libcephfs.so.2:_ZN11json_spirit13read_or_throwERKNSt7__cxx1112basic_stringIcSt11char_traitsIcESaIcEEERNS_10Value_implINS_10Config_mapIS5_EEEE
libcephfs.so.2:_ZN11json_spirit13read_or_throwERKNSt7__cxx1112basic_stringIcSt11char_traitsIcESaIcEEERNS_10Value_implINS_13Config_vectorIS5_EEEE
libcephfs.so.2:_ZN11json_spirit13read_or_throwERN9__gnu_cxx17__normal_iteratorIPKcNSt7__cxx1112basic_stringIcSt11char_traitsIcESaIcEEEEESA_RNS_10Value_implINS_10Config_mapIS9_EEEE
libcephfs.so.2:_ZN11json_spirit13read_or_throwERN9__gnu_cxx17__normal_iteratorIPKcNSt7__cxx1112basic_stringIcSt11char_traitsIcESaIcEEEEESA_RNS_10Value_implINS_13Config_vectorIS9_EEEE
libcephfs.so.2:_ZN11json_spirit13read_or_throwERSiRNS_10Value_implINS_10Config_mapINSt7__cxx1112basic_stringIcSt11char_traitsIcESaIcEEEEEEE
libcephfs.so.2:_ZN11json_spirit13read_or_throwERSiRNS_10Value_implINS_13Config_vectorINSt7__cxx1112basic_stringIcSt11char_traitsIcESaIcEEEEEEE
libcephfs.so.2:_ZN11json_spirit19unicode_str_to_utf8INSt7__cxx1112basic_stringIcSt11char_traitsIcESaIcEEEN9__gnu_cxx17__normal_iteratorIPKcS6_EEEET_RT0_
libcephfs.so.2:_ZN11json_spirit4readERKNSt7__cxx1112basic_stringIcSt11char_traitsIcESaIcEEERNS_10Value_implINS_10Config_mapIS5_EEEE
libcephfs.so.2:_ZN11json_spirit4readERKNSt7__cxx1112basic_stringIcSt11char_traitsIcESaIcEEERNS_10Value_implINS_13Config_vectorIS5_EEEE
libcephfs.so.2:_ZN11json_spirit4readERN9__gnu_cxx17__normal_iteratorIPKcNSt7__cxx1112basic_stringIcSt11char_traitsIcESaIcEEEEESA_RNS_10Value_implINS_10Config_mapIS9_EEEE
libcephfs.so.2:_ZN11json_spirit4readERN9__gnu_cxx17__normal_iteratorIPKcNSt7__cxx1112basic_stringIcSt11char_traitsIcESaIcEEEEESA_RNS_10Value_implINS_13Config_vectorIS9_EEEE
libcephfs.so.2:_ZN11json_spirit4readERSiRNS_10Value_implINS_10Config_mapINSt7__cxx1112basic_stringIcSt11char_traitsIcESaIcEEEEEEE
libcephfs.so.2:_ZN11json_spirit4readERSiRNS_10Value_implINS_13Config_vectorINSt7__cxx1112basic_stringIcSt11char_traitsIcESaIcEEEEEEE
libcephfs.so.2:_ZN5boost11this_thread18interruption_pointEv
libcephfs.so.2:_ZN5boost11this_thread20disable_interruptionC1Ev
libcephfs.so.2:_ZN5boost11this_thread20disable_interruptionC2Ev
libcephfs.so.2:_ZN5boost11this_thread20disable_interruptionD1Ev
libcephfs.so.2:_ZN5boost11this_thread20disable_interruptionD2Ev
libcephfs.so.2:_ZN5boost11this_thread20interruption_enabledEv
libcephfs.so.2:_ZN5boost11this_thread20restore_interruptionC1ERNS0_20disable_interruptionE
libcephfs.so.2:_ZN5boost11this_thread20restore_interruptionC2ERNS0_20disable_interruptionE
libcephfs.so.2:_ZN5boost11this_thread20restore_interruptionD1Ev
libcephfs.so.2:_ZN5boost11this_thread20restore_interruptionD2Ev
libcephfs.so.2:_ZN5boost11this_thread21no_interruption_point6hidden11sleep_untilERK8timespec
libcephfs.so.2:_ZN5boost11this_thread21no_interruption_point6hidden9sleep_forERK8timespec
libcephfs.so.2:_ZN5boost11this_thread22interruption_requestedEv
libcephfs.so.2:_ZN5boost11this_thread5yieldEv
libcephfs.so.2:_ZN5boost11this_thread6hidden11sleep_untilERK8timespec
libcephfs.so.2:_ZN5boost11this_thread6hidden9sleep_forERK8timespec
libcephfs.so.2:_ZN5boost13thread_detail17enter_once_regionERNS_9once_flagE
libcephfs.so.2:_ZN5boost13thread_detail18commit_once_regionERNS_9once_flagE
libcephfs.so.2:_ZN5boost13thread_detail20rollback_once_regionERNS_9once_flagE
libcephfs.so.2:_ZN5boost25notify_all_at_thread_exitERNS_18condition_variableENS_11unique_lockINS_5mutexEEE
libcephfs.so.2:_ZN5boost6detail12get_tss_dataEPKv
libcephfs.so.2:_ZN5boost6detail12set_tss_dataEPKvNS_10shared_ptrINS0_20tss_cleanup_functionEEEPvb
libcephfs.so.2:_ZN5boost6detail13find_tss_dataEPKv
libcephfs.so.2:_ZN5boost6detail14erase_tss_nodeEPKv
libcephfs.so.2:_ZN5boost6detail16add_new_tss_nodeEPKvNS_10shared_ptrINS0_20tss_cleanup_functionEEEPv
libcephfs.so.2:_ZN5boost6detail16thread_data_baseD0Ev
libcephfs.so.2:_ZN5boost6detail16thread_data_baseD1Ev
libcephfs.so.2:_ZN5boost6detail16thread_data_baseD2Ev
libcephfs.so.2:_ZN5boost6detail23get_current_thread_dataEv
libcephfs.so.2:_ZN5boost6detail23set_current_thread_dataEPNS0_16thread_data_baseE
libcephfs.so.2:_ZN5boost6detail24add_thread_exit_functionEPNS0_25thread_exit_function_baseE
libcephfs.so.2:_ZN5boost6detail25make_external_thread_dataEv
libcephfs.so.2:_ZN5boost6detail25make_ready_at_thread_exitENS_10shared_ptrINS0_17shared_state_baseEEE
libcephfs.so.2:_ZN5boost6detail31get_or_make_current_thread_dataEv
libcephfs.so.2:_ZN5boost6system15system_categoryEv
libcephfs.so.2:_ZN5boost6system16generic_categoryEv
libcephfs.so.2:_ZN5boost6thread13join_noexceptEv
libcephfs.so.2:_ZN5boost6thread13native_handleEv
libcephfs.so.2:_ZN5boost6thread20hardware_concurrencyEv
libcephfs.so.2:_ZN5boost6thread20physical_concurrencyEv
libcephfs.so.2:_ZN5boost6thread21start_thread_noexceptERKNS_17thread_attributesE
libcephfs.so.2:_ZN5boost6thread21start_thread_noexceptEv
libcephfs.so.2:_ZN5boost6thread26do_try_join_until_noexceptERK8timespecRb
libcephfs.so.2:_ZN5boost6thread6detachEv
libcephfs.so.2:_ZN5boost6thread9interruptEv
libcephfs.so.2:_ZN5boost6threadC1Ev
libcephfs.so.2:_ZN5boost6threadC2Ev
libcephfs.so.2:_ZN5boost9iostreams10zlib_error5checkEi
libcephfs.so.2:_ZN5boost9iostreams10zlib_errorC1Ei
libcephfs.so.2:_ZN5boost9iostreams10zlib_errorC2Ei
libcephfs.so.2:_ZN5boost9iostreams6detail9zlib_base5afterERPKcRPcb
libcephfs.so.2:_ZN5boost9iostreams6detail9zlib_base5resetEbb
libcephfs.so.2:_ZN5boost9iostreams6detail9zlib_base6beforeERPKcS4_RPcS6_
libcephfs.so.2:_ZN5boost9iostreams6detail9zlib_base7do_initERKNS0_11zlib_paramsEbPFPvS6_jjEPFvS6_S6_ES6_
libcephfs.so.2:_ZN5boost9iostreams6detail9zlib_base8xdeflateEi
libcephfs.so.2:_ZN5boost9iostreams6detail9zlib_base8xinflateEi
libcephfs.so.2:_ZN5boost9iostreams6detail9zlib_baseC1Ev
libcephfs.so.2:_ZN5boost9iostreams6detail9zlib_baseC2Ev
libcephfs.so.2:_ZN5boost9iostreams6detail9zlib_baseD1Ev
libcephfs.so.2:_ZN5boost9iostreams6detail9zlib_baseD2Ev
libcephfs.so.2:_ZNK5boost6thread15get_thread_infoEv
libcephfs.so.2:_ZNK5boost6thread22interruption_requestedEv
libcephfs.so.2:_ZNK5boost6thread8joinableEv
libcephfs.so.2:ceph_buffer_free
libcephfs.so.2:ceph_chdir
libcephfs.so.2:ceph_chmod
libcephfs.so.2:ceph_chown
libcephfs.so.2:ceph_close
libcephfs.so.2:ceph_closedir
libcephfs.so.2:ceph_conf_get
libcephfs.so.2:ceph_conf_parse_argv
libcephfs.so.2:ceph_conf_parse_env
libcephfs.so.2:ceph_conf_read_file
libcephfs.so.2:ceph_conf_set
libcephfs.so.2:ceph_create
libcephfs.so.2:ceph_create_from_rados
libcephfs.so.2:ceph_create_with_context
libcephfs.so.2:ceph_debug_get_fd_caps
libcephfs.so.2:ceph_debug_get_file_caps
libcephfs.so.2:ceph_fallocate
libcephfs.so.2:ceph_fchmod
libcephfs.so.2:ceph_fchown
libcephfs.so.2:ceph_fgetxattr
libcephfs.so.2:ceph_flistxattr
libcephfs.so.2:ceph_flock
libcephfs.so.2:ceph_fremovexattr
libcephfs.so.2:ceph_fsetattrx
libcephfs.so.2:ceph_fsetxattr
libcephfs.so.2:ceph_fstatx
libcephfs.so.2:ceph_fsync
libcephfs.so.2:ceph_ftruncate
libcephfs.so.2:ceph_get_file_extent_osds
libcephfs.so.2:ceph_get_file_layout
libcephfs.so.2:ceph_get_file_object_size
libcephfs.so.2:ceph_get_file_pool
libcephfs.so.2:ceph_get_file_pool_name
libcephfs.so.2:ceph_get_file_replication
libcephfs.so.2:ceph_get_file_stripe_address
libcephfs.so.2:ceph_get_file_stripe_count
libcephfs.so.2:ceph_get_file_stripe_unit
libcephfs.so.2:ceph_get_local_osd
libcephfs.so.2:ceph_get_mount_context
libcephfs.so.2:ceph_get_osd_addr
libcephfs.so.2:ceph_get_osd_crush_location
libcephfs.so.2:ceph_get_path_layout
libcephfs.so.2:ceph_get_path_object_size
libcephfs.so.2:ceph_get_path_pool
libcephfs.so.2:ceph_get_path_pool_name
libcephfs.so.2:ceph_get_path_replication
libcephfs.so.2:ceph_get_path_stripe_count
libcephfs.so.2:ceph_get_path_stripe_unit
libcephfs.so.2:ceph_get_pool_id
libcephfs.so.2:ceph_get_pool_name
libcephfs.so.2:ceph_get_pool_replication
libcephfs.so.2:ceph_get_stripe_unit_granularity
libcephfs.so.2:ceph_getcwd
libcephfs.so.2:ceph_getdents
libcephfs.so.2:ceph_getdnames
libcephfs.so.2:ceph_getxattr
libcephfs.so.2:ceph_init
libcephfs.so.2:ceph_is_mounted
libcephfs.so.2:ceph_lchown
libcephfs.so.2:ceph_lgetxattr
libcephfs.so.2:ceph_link
libcephfs.so.2:ceph_listxattr
libcephfs.so.2:ceph_ll_close
libcephfs.so.2:ceph_ll_commit_blocks
libcephfs.so.2:ceph_ll_create
libcephfs.so.2:ceph_ll_file_layout
libcephfs.so.2:ceph_ll_forget
libcephfs.so.2:ceph_ll_fsync
libcephfs.so.2:ceph_ll_get_inode
libcephfs.so.2:ceph_ll_get_internal_offset
libcephfs.so.2:ceph_ll_get_stripe_osd
libcephfs.so.2:ceph_ll_getattr
libcephfs.so.2:ceph_ll_getlk
libcephfs.so.2:ceph_ll_getxattr
libcephfs.so.2:ceph_ll_link
libcephfs.so.2:ceph_ll_listxattr
libcephfs.so.2:ceph_ll_lookup
libcephfs.so.2:ceph_ll_lookup_inode
libcephfs.so.2:ceph_ll_lookup_root
libcephfs.so.2:ceph_ll_lseek
libcephfs.so.2:ceph_ll_mkdir
libcephfs.so.2:ceph_ll_mknod
libcephfs.so.2:ceph_ll_num_osds
libcephfs.so.2:ceph_ll_open
libcephfs.so.2:ceph_ll_opendir
libcephfs.so.2:ceph_ll_osdaddr
libcephfs.so.2:ceph_ll_put
libcephfs.so.2:ceph_ll_read
libcephfs.so.2:ceph_ll_read_block
libcephfs.so.2:ceph_ll_readlink
libcephfs.so.2:ceph_ll_readv
libcephfs.so.2:ceph_ll_releasedir
libcephfs.so.2:ceph_ll_removexattr
libcephfs.so.2:ceph_ll_rename
libcephfs.so.2:ceph_ll_rmdir
libcephfs.so.2:ceph_ll_setattr
libcephfs.so.2:ceph_ll_setlk
libcephfs.so.2:ceph_ll_setxattr
libcephfs.so.2:ceph_ll_snap_seq
libcephfs.so.2:ceph_ll_statfs
libcephfs.so.2:ceph_ll_stripe_unit
libcephfs.so.2:ceph_ll_symlink
libcephfs.so.2:ceph_ll_unlink
libcephfs.so.2:ceph_ll_walk
libcephfs.so.2:ceph_ll_write
libcephfs.so.2:ceph_ll_write_block
libcephfs.so.2:ceph_ll_writev
libcephfs.so.2:ceph_llistxattr
libcephfs.so.2:ceph_localize_reads
libcephfs.so.2:ceph_lremovexattr
libcephfs.so.2:ceph_lseek
libcephfs.so.2:ceph_lsetxattr
libcephfs.so.2:ceph_mds_command
libcephfs.so.2:ceph_mkdir
libcephfs.so.2:ceph_mkdirs
libcephfs.so.2:ceph_mknod
libcephfs.so.2:ceph_mount
libcephfs.so.2:ceph_mount_perms
libcephfs.so.2:ceph_open
libcephfs.so.2:ceph_open_layout
libcephfs.so.2:ceph_opendir
libcephfs.so.2:ceph_preadv
libcephfs.so.2:ceph_pwritev
libcephfs.so.2:ceph_read
libcephfs.so.2:ceph_readdir
libcephfs.so.2:ceph_readdir_r
libcephfs.so.2:ceph_readdirplus_r
libcephfs.so.2:ceph_readlink
libcephfs.so.2:ceph_release
libcephfs.so.2:ceph_removexattr
libcephfs.so.2:ceph_rename
libcephfs.so.2:ceph_rewinddir
libcephfs.so.2:ceph_rmdir
libcephfs.so.2:ceph_seekdir
libcephfs.so.2:ceph_set_default_file_replication
libcephfs.so.2:ceph_set_default_file_stripe_count
libcephfs.so.2:ceph_set_default_file_stripe_unit
libcephfs.so.2:ceph_set_default_object_size
libcephfs.so.2:ceph_set_default_preferred_pg
libcephfs.so.2:ceph_setattrx
libcephfs.so.2:ceph_setxattr
libcephfs.so.2:ceph_shutdown
libcephfs.so.2:ceph_statfs
libcephfs.so.2:ceph_statx
libcephfs.so.2:ceph_symlink
libcephfs.so.2:ceph_sync_fs
libcephfs.so.2:ceph_telldir
libcephfs.so.2:ceph_truncate
libcephfs.so.2:ceph_unlink
libcephfs.so.2:ceph_unmount
libcephfs.so.2:ceph_userperm_destroy
libcephfs.so.2:ceph_userperm_new
libcephfs.so.2:ceph_utime
libcephfs.so.2:ceph_version
libcephfs.so.2:ceph_write
librados.so.2:_Z17get_max_pipe_sizev
librados.so.2:_Z20update_max_pipe_sizev
librados.so.2:_ZN4ceph6buffer10claim_charEjPc
librados.so.2:_ZN4ceph6buffer10error_codeC1Ei
librados.so.2:_ZN4ceph6buffer10error_codeC2Ei
librados.so.2:_ZN4ceph6buffer10raw_mallocdlEPv
librados.so.2:_ZN4ceph6buffer10raw_mallocnwEm
librados.so.2:_ZN4ceph6buffer10raw_staticdlEPv
librados.so.2:_ZN4ceph6buffer10raw_staticnwEm
librados.so.2:_ZN4ceph6buffer11track_c_strEb
librados.so.2:_ZN4ceph6buffer12claim_bufferEjPc7deleter
librados.so.2:_ZN4ceph6buffer12claim_mallocEjPc
librados.so.2:_ZN4ceph6buffer13create_mallocEj
librados.so.2:_ZN4ceph6buffer13create_staticEjPc
librados.so.2:_ZN4ceph6buffer14create_alignedEjj
librados.so.2:_ZN4ceph6buffer14get_cached_crcEv
librados.so.2:_ZN4ceph6buffer14raw_mmap_pagesdlEPv
librados.so.2:_ZN4ceph6buffer14raw_mmap_pagesnwEm
librados.so.2:_ZN4ceph6buffer15get_total_allocEv
librados.so.2:_ZN4ceph6buffer15raw_unshareabledlEPv
librados.so.2:_ZN4ceph6buffer15raw_unshareablenwEm
librados.so.2:_ZN4ceph6buffer16create_zero_copyEjiPl
librados.so.2:_ZN4ceph6buffer16track_cached_crcEb
librados.so.2:_ZN4ceph6buffer17raw_posix_aligneddlEPv
librados.so.2:_ZN4ceph6buffer17raw_posix_alignednwEm
librados.so.2:_ZN4ceph6buffer18create_unshareableEj
librados.so.2:_ZN4ceph6buffer18get_c_str_accessesEv
librados.so.2:_ZN4ceph6buffer19create_page_alignedEj
librados.so.2:_ZN4ceph6buffer21get_history_alloc_numEv
librados.so.2:_ZN4ceph6buffer23get_cached_crc_adjustedEv
librados.so.2:_ZN4ceph6buffer23get_history_alloc_bytesEv
librados.so.2:_ZN4ceph6buffer3ptr14make_shareableEv
librados.so.2:_ZN4ceph6buffer3ptr4swapERS1_
librados.so.2:_ZN4ceph6buffer3ptr4zeroEb
librados.so.2:_ZN4ceph6buffer3ptr4zeroEjj
librados.so.2:_ZN4ceph6buffer3ptr4zeroEjjb
librados.so.2:_ZN4ceph6buffer3ptr4zeroEv
librados.so.2:_ZN4ceph6buffer3ptr5c_strEv
librados.so.2:_ZN4ceph6buffer3ptr5cloneEv
librados.so.2:_ZN4ceph6buffer3ptr6appendEPKcj
librados.so.2:_ZN4ceph6buffer3ptr6appendEc
librados.so.2:_ZN4ceph6buffer3ptr6wastedEv
librados.so.2:_ZN4ceph6buffer3ptr7copy_inEjjPKc
librados.so.2:_ZN4ceph6buffer3ptr7copy_inEjjPKcb
librados.so.2:_ZN4ceph6buffer3ptr7releaseEv
librados.so.2:_ZN4ceph6buffer3ptr9end_c_strEv
librados.so.2:_ZN4ceph6buffer3ptrC1EOS1_
librados.so.2:_ZN4ceph6buffer3ptrC1EPKcj
librados.so.2:_ZN4ceph6buffer3ptrC1EPNS0_3rawE
librados.so.2:_ZN4ceph6buffer3ptrC1ERKS1_
librados.so.2:_ZN4ceph6buffer3ptrC1ERKS1_jj
librados.so.2:_ZN4ceph6buffer3ptrC1Ej
librados.so.2:_ZN4ceph6buffer3ptrC2EOS1_
librados.so.2:_ZN4ceph6buffer3ptrC2EPKcj
librados.so.2:_ZN4ceph6buffer3ptrC2EPNS0_3rawE
librados.so.2:_ZN4ceph6buffer3ptrC2ERKS1_
librados.so.2:_ZN4ceph6buffer3ptrC2ERKS1_jj
librados.so.2:_ZN4ceph6buffer3ptrC2Ej
librados.so.2:_ZN4ceph6buffer3ptraSEOS1_
librados.so.2:_ZN4ceph6buffer3ptraSERKS1_
librados.so.2:_ZN4ceph6buffer3ptrixEj
librados.so.2:_ZN4ceph6buffer4copyEPKcj
librados.so.2:_ZN4ceph6buffer4list10write_fileEPKci
librados.so.2:_ZN4ceph6buffer4list11append_zeroEj
librados.so.2:_ZN4ceph6buffer4list12claim_appendERS1_j
librados.so.2:_ZN4ceph6buffer4list12prepend_zeroEj
librados.so.2:_ZN4ceph6buffer4list13claim_prependERS1_j
librados.so.2:_ZN4ceph6buffer4list13decode_base64ERS1_
librados.so.2:_ZN4ceph6buffer4list13encode_base64ERS1_
librados.so.2:_ZN4ceph6buffer4list14contents_equalERS1_
librados.so.2:_ZN4ceph6buffer4list14get_contiguousEjj
librados.so.2:_ZN4ceph6buffer4list14invalidate_crcEv
librados.so.2:_ZN4ceph6buffer4list15rebuild_alignedEj
librados.so.2:_ZN4ceph6buffer4list17read_fd_zero_copyEim
librados.so.2:_ZN4ceph6buffer4list20rebuild_page_alignedEv
librados.so.2:_ZN4ceph6buffer4list31rebuild_aligned_size_and_memoryEjj
librados.so.2:_ZN4ceph6buffer4list4swapERS1_
librados.so.2:_ZN4ceph6buffer4list4zeroEjj
librados.so.2:_ZN4ceph6buffer4list4zeroEv
librados.so.2:_ZN4ceph6buffer4list5c_strEv
librados.so.2:_ZN4ceph6buffer4list5claimERS1_j
librados.so.2:_ZN4ceph6buffer4list6appendEONS0_3ptrE
librados.so.2:_ZN4ceph6buffer4list6appendEPKcj
librados.so.2:_ZN4ceph6buffer4list6appendERKNS0_3ptrE
librados.so.2:_ZN4ceph6buffer4list6appendERKNS0_3ptrEjj
librados.so.2:_ZN4ceph6buffer4list6appendERKS1_
librados.so.2:_ZN4ceph6buffer4list6appendERSi
librados.so.2:_ZN4ceph6buffer4list6appendEc
librados.so.2:_ZN4ceph6buffer4list6spliceEjjPS1_
librados.so.2:_ZN4ceph6buffer4list7copy_inEjjPKc
librados.so.2:_ZN4ceph6buffer4list7copy_inEjjPKcb
librados.so.2:_ZN4ceph6buffer4list7copy_inEjjRKS1_
librados.so.2:_ZN4ceph6buffer4list7read_fdEim
librados.so.2:_ZN4ceph6buffer4list7rebuildERNS0_3ptrE
librados.so.2:_ZN4ceph6buffer4list7rebuildEv
librados.so.2:_ZN4ceph6buffer4list8iterator12copy_shallowEjRNS0_3ptrE
librados.so.2:_ZN4ceph6buffer4list8iterator15get_current_ptrEv
librados.so.2:_ZN4ceph6buffer4list8iterator4copyEjPc
librados.so.2:_ZN4ceph6buffer4list8iterator4copyEjRNS0_3ptrE
librados.so.2:_ZN4ceph6buffer4list8iterator4copyEjRNSt7__cxx1112basic_stringIcSt11char_traitsIcESaIcEEE
librados.so.2:_ZN4ceph6buffer4list8iterator4copyEjRS1_
librados.so.2:_ZN4ceph6buffer4list8iterator4seekEj
librados.so.2:_ZN4ceph6buffer4list8iterator7advanceEi
librados.so.2:_ZN4ceph6buffer4list8iterator7copy_inEjPKc
librados.so.2:_ZN4ceph6buffer4list8iterator7copy_inEjPKcb
librados.so.2:_ZN4ceph6buffer4list8iterator7copy_inEjRKS1_
librados.so.2:_ZN4ceph6buffer4list8iterator8copy_allERS1_
librados.so.2:_ZN4ceph6buffer4list8iterator9copy_deepEjRNS0_3ptrE
librados.so.2:_ZN4ceph6buffer4list8iteratorC1EPS1_j
librados.so.2:_ZN4ceph6buffer4list8iteratorC1EPS1_jSt14_List_iteratorINS0_3ptrEEj
librados.so.2:_ZN4ceph6buffer4list8iteratorC2EPS1_j
librados.so.2:_ZN4ceph6buffer4list8iteratorC2EPS1_jSt14_List_iteratorINS0_3ptrEEj
librados.so.2:_ZN4ceph6buffer4list8iteratordeEv
librados.so.2:_ZN4ceph6buffer4list8iteratorppEv
librados.so.2:_ZN4ceph6buffer4list9read_fileEPKcPNSt7__cxx1112basic_stringIcSt11char_traitsIcESaIcEEE
librados.so.2:_ZN4ceph6buffer4list9substr_ofERKS1_jj
librados.so.2:_ZN4ceph6buffer4listC1EOS1_
librados.so.2:_ZN4ceph6buffer4listC2EOS1_
librados.so.2:_ZN4ceph6buffer6createEj
librados.so.2:_ZN4ceph6buffer8raw_chardlEPv
librados.so.2:_ZN4ceph6buffer8raw_charnwEm
librados.so.2:_ZN4ceph6buffer8raw_pipedlEPv
librados.so.2:_ZN4ceph6buffer8raw_pipenwEm
librados.so.2:_ZN4ceph6bufferlsERSoRKNS0_3ptrE
librados.so.2:_ZN4ceph6bufferlsERSoRKNS0_3rawE
librados.so.2:_ZN4ceph6bufferlsERSoRKNS0_4listE
librados.so.2:_ZN4ceph6bufferlsERSoRKNS0_5errorE
librados.so.2:_ZN8librados10ListObjectC1EPNS_14ListObjectImplE
librados.so.2:_ZN8librados10ListObjectC1ERKS0_
librados.so.2:_ZN8librados10ListObjectC1Ev
librados.so.2:_ZN8librados10ListObjectC2EPNS_14ListObjectImplE
librados.so.2:_ZN8librados10ListObjectC2ERKS0_
librados.so.2:_ZN8librados10ListObjectC2Ev
librados.so.2:_ZN8librados10ListObjectD1Ev
librados.so.2:_ZN8librados10ListObjectD2Ev
librados.so.2:_ZN8librados10ListObjectaSERKS0_
librados.so.2:_ZN8librados11RadosClient10handle_logEP4MLog
librados.so.2:_ZN8librados11RadosClient10pg_commandE4pg_tRSt6vectorINSt7__cxx1112basic_stringIcSt11char_traitsIcESaIcEEESaIS8_EERKN4ceph6buffer4listEPSE_PS8_
librados.so.2:_ZN8librados11RadosClient11lookup_poolEPKc
librados.so.2:_ZN8librados11RadosClient11mgr_commandERKSt6vectorINSt7__cxx1112basic_stringIcSt11char_traitsIcESaIcEEESaIS7_EERKN4ceph6buffer4listEPSE_PS7_
librados.so.2:_ZN8librados11RadosClient11mon_commandENSt7__cxx1112basic_stringIcSt11char_traitsIcESaIcEEERKSt6vectorIS6_SaIS6_EERKN4ceph6buffer4listEPSE_PS6_
librados.so.2:_ZN8librados11RadosClient11mon_commandERKSt6vectorINSt7__cxx1112basic_stringIcSt11char_traitsIcESaIcEEESaIS7_EERKN4ceph6buffer4listEPSE_PS7_
librados.so.2:_ZN8librados11RadosClient11mon_commandEiRKSt6vectorINSt7__cxx1112basic_stringIcSt11char_traitsIcESaIcEEESaIS7_EERKN4ceph6buffer4listEPSE_PS7_
librados.so.2:_ZN8librados11RadosClient11monitor_logERKNSt7__cxx1112basic_stringIcSt11char_traitsIcESaIcEEEPFvPvPKcSB_mmmSB_SB_ES9_
librados.so.2:_ZN8librados11RadosClient11ms_dispatchEP7Message
librados.so.2:_ZN8librados11RadosClient11osd_commandEiRSt6vectorINSt7__cxx1112basic_stringIcSt11char_traitsIcESaIcEEESaIS7_EERKN4ceph6buffer4listEPSD_PS7_
librados.so.2:_ZN8librados11RadosClient11pool_createERNSt7__cxx1112basic_stringIcSt11char_traitsIcESaIcEEEys
librados.so.2:_ZN8librados11RadosClient11pool_deleteEPKc
librados.so.2:_ZN8librados11RadosClient11watch_flushEv
librados.so.2:_ZN8librados11RadosClient12create_ioctxEPKcPPNS_9IoCtxImplE
librados.so.2:_ZN8librados11RadosClient12create_ioctxElPPNS_9IoCtxImplE
librados.so.2:_ZN8librados11RadosClient12get_fs_statsER11ceph_statfs
librados.so.2:_ZN8librados11RadosClient12ping_monitorENSt7__cxx1112basic_stringIcSt11char_traitsIcESaIcEEEPS6_
librados.so.2:_ZN8librados11RadosClient13blacklist_addERKNSt7__cxx1112basic_stringIcSt11char_traitsIcESaIcEEEj
librados.so.2:_ZN8librados11RadosClient13pool_get_auidEmPy
librados.so.2:_ZN8librados11RadosClient13pool_get_nameEmPNSt7__cxx1112basic_stringIcSt11char_traitsIcESaIcEEE
librados.so.2:_ZN8librados11RadosClient14blacklist_selfEb
librados.so.2:_ZN8librados11RadosClient14get_pool_statsERNSt7__cxx114listINS1_12basic_stringIcSt11char_traitsIcESaIcEEESaIS7_EEERSt3mapIS7_11pool_stat_tSt4lessIS7_ESaISt4pairIKS7_SC_EEE
librados.so.2:_ZN8librados11RadosClient15get_instance_idEv
librados.so.2:_ZN8librados11RadosClient15ms_handle_resetEP10Connection
librados.so.2:_ZN8librados11RadosClient15wait_for_osdmapEv
librados.so.2:_ZN8librados11RadosClient17async_watch_flushEPNS_17AioCompletionImplE
librados.so.2:_ZN8librados11RadosClient17ms_get_authorizerEiPP14AuthAuthorizerb
librados.so.2:_ZN8librados11RadosClient17ms_handle_connectEP10Connection
librados.so.2:_ZN8librados11RadosClient17ms_handle_refusedEP10Connection
librados.so.2:_ZN8librados11RadosClient17pool_create_asyncERNSt7__cxx1112basic_stringIcSt11char_traitsIcESaIcEEEPNS_23PoolAsyncCompletionImplEys
librados.so.2:_ZN8librados11RadosClient17pool_delete_asyncEPKcPNS_23PoolAsyncCompletionImplE
librados.so.2:_ZN8librados11RadosClient18pool_get_base_tierElPl
librados.so.2:_ZN8librados11RadosClient22ms_handle_remote_resetEP10Connection
librados.so.2:_ZN8librados11RadosClient22wait_for_latest_osdmapEv
librados.so.2:_ZN8librados11RadosClient23pool_required_alignmentEl
librados.so.2:_ZN8librados11RadosClient23pool_requires_alignmentEl
librados.so.2:_ZN8librados11RadosClient24pool_required_alignment2ElPm
librados.so.2:_ZN8librados11RadosClient24pool_requires_alignment2ElPb
librados.so.2:_ZN8librados11RadosClient34get_pool_is_selfmanaged_snaps_modeERKNSt7__cxx1112basic_stringIcSt11char_traitsIcESaIcEEE
librados.so.2:_ZN8librados11RadosClient3getEv
librados.so.2:_ZN8librados11RadosClient3putEv
librados.so.2:_ZN8librados11RadosClient7connectEv
librados.so.2:_ZN8librados11RadosClient8get_fsidEPNSt7__cxx1112basic_stringIcSt11char_traitsIcESaIcEEE
librados.so.2:_ZN8librados11RadosClient8shutdownEv
librados.so.2:_ZN8librados11RadosClient9_dispatchEP7Message
librados.so.2:_ZN8librados11RadosClient9pool_listERNSt7__cxx114listISt4pairIlNS1_12basic_stringIcSt11char_traitsIcESaIcEEEESaIS9_EEE
librados.so.2:_ZN8librados11RadosClientC1EP11CephContext
librados.so.2:_ZN8librados11RadosClientC2EP11CephContext
librados.so.2:_ZN8librados11RadosClientD0Ev
librados.so.2:_ZN8librados11RadosClientD1Ev
librados.so.2:_ZN8librados11RadosClientD2Ev
librados.so.2:_ZN8librados12ObjectCursor3setEPv
librados.so.2:_ZN8librados12ObjectCursorC1ERKS0_
librados.so.2:_ZN8librados12ObjectCursorC1Ev
librados.so.2:_ZN8librados12ObjectCursorC2ERKS0_
librados.so.2:_ZN8librados12ObjectCursorC2Ev
librados.so.2:_ZN8librados12ObjectCursorD1Ev
librados.so.2:_ZN8librados12ObjectCursorD2Ev
librados.so.2:_ZN8librados12ObjectCursorltERKS0_
librados.so.2:_ZN8librados13AioCompletion11get_versionEv
librados.so.2:_ZN8librados13AioCompletion11is_completeEv
librados.so.2:_ZN8librados13AioCompletion13get_version64Ev
librados.so.2:_ZN8librados13AioCompletion13wait_for_safeEv
librados.so.2:_ZN8librados13AioCompletion14is_safe_and_cbEv
librados.so.2:_ZN8librados13AioCompletion16get_return_valueEv
librados.so.2:_ZN8librados13AioCompletion17set_safe_callbackEPvPFvS1_S1_E
librados.so.2:_ZN8librados13AioCompletion17wait_for_completeEv
librados.so.2:_ZN8librados13AioCompletion18is_complete_and_cbEv
librados.so.2:_ZN8librados13AioCompletion20wait_for_safe_and_cbEv
librados.so.2:_ZN8librados13AioCompletion21set_complete_callbackEPvPFvS1_S1_E
librados.so.2:_ZN8librados13AioCompletion24wait_for_complete_and_cbEv
librados.so.2:_ZN8librados13AioCompletion7is_safeEv
librados.so.2:_ZN8librados13AioCompletion7releaseEv
librados.so.2:_ZN8librados14ObjectIterator4seekEj
librados.so.2:_ZN8librados14ObjectIterator8get_nextEv
librados.so.2:_ZN8librados14ObjectIteratorC1EPNS_10ObjListCtxE
librados.so.2:_ZN8librados14ObjectIteratorC1ERKS0_
librados.so.2:_ZN8librados14ObjectIteratorC2EPNS_10ObjListCtxE
librados.so.2:_ZN8librados14ObjectIteratorC2ERKS0_
librados.so.2:_ZN8librados14ObjectIteratorD1Ev
librados.so.2:_ZN8librados14ObjectIteratorD2Ev
librados.so.2:_ZN8librados14ObjectIteratoraSERKS0_
librados.so.2:_ZN8librados14ObjectIteratorppEi
librados.so.2:_ZN8librados14ObjectIteratorppEv
librados.so.2:_ZN8librados14PlacementGroup5parseEPKc
librados.so.2:_ZN8librados14PlacementGroupC1ERKS0_
librados.so.2:_ZN8librados14PlacementGroupC1Ev
librados.so.2:_ZN8librados14PlacementGroupC2ERKS0_
librados.so.2:_ZN8librados14PlacementGroupC2Ev
librados.so.2:_ZN8librados14PlacementGroupD1Ev
librados.so.2:_ZN8librados14PlacementGroupD2Ev
librados.so.2:_ZN8librados15NObjectIterator10set_filterERKN4ceph6buffer4listE
librados.so.2:_ZN8librados15NObjectIterator4seekEj
librados.so.2:_ZN8librados15NObjectIterator8get_nextEv
librados.so.2:_ZN8librados15NObjectIteratorC1EPNS_10ObjListCtxE
librados.so.2:_ZN8librados15NObjectIteratorC1ERKS0_
librados.so.2:_ZN8librados15NObjectIteratorC2EPNS_10ObjListCtxE
librados.so.2:_ZN8librados15NObjectIteratorC2ERKS0_
librados.so.2:_ZN8librados15NObjectIteratorD1Ev
librados.so.2:_ZN8librados15NObjectIteratorD2Ev
librados.so.2:_ZN8librados15NObjectIteratoraSERKS0_
librados.so.2:_ZN8librados15NObjectIteratorppEi
librados.so.2:_ZN8librados15NObjectIteratorppEv
librados.so.2:_ZN8librados15ObjectOperation12set_op_flagsENS_20ObjectOperationFlagsE
librados.so.2:_ZN8librados15ObjectOperation12src_cmpxattrERKNSt7__cxx1112basic_stringIcSt11char_traitsIcESaIcEEEPKciRKN4ceph6buffer4listE
librados.so.2:_ZN8librados15ObjectOperation12src_cmpxattrERKNSt7__cxx1112basic_stringIcSt11char_traitsIcESaIcEEEPKcim
librados.so.2:_ZN8librados15ObjectOperation13assert_existsEv
librados.so.2:_ZN8librados15ObjectOperation13set_op_flags2Ei
librados.so.2:_ZN8librados15ObjectOperation14assert_versionEm
librados.so.2:_ZN8librados15ObjectOperation4execEPKcS2_RN4ceph6buffer4listE
librados.so.2:_ZN8librados15ObjectOperation4execEPKcS2_RN4ceph6buffer4listEPNS_25ObjectOperationCompletionE
librados.so.2:_ZN8librados15ObjectOperation4execEPKcS2_RN4ceph6buffer4listEPS5_Pi
librados.so.2:_ZN8librados15ObjectOperation4sizeEv
librados.so.2:_ZN8librados15ObjectOperation8cmpxattrEPKchRKN4ceph6buffer4listE
librados.so.2:_ZN8librados15ObjectOperation8cmpxattrEPKchm
librados.so.2:_ZN8librados15ObjectOperation8omap_cmpERKSt3mapINSt7__cxx1112basic_stringIcSt11char_traitsIcESaIcEEESt4pairIN4ceph6buffer4listEiESt4lessIS7_ESaIS8_IKS7_SC_EEEPi
librados.so.2:_ZN8librados15ObjectOperationC1Ev
librados.so.2:_ZN8librados15ObjectOperationC2Ev
librados.so.2:_ZN8librados15ObjectOperationD0Ev
librados.so.2:_ZN8librados15ObjectOperationD1Ev
librados.so.2:_ZN8librados15ObjectOperationD2Ev
librados.so.2:_ZN8librados15RadosXattrsIterC1Ev
librados.so.2:_ZN8librados15RadosXattrsIterC2Ev
librados.so.2:_ZN8librados15RadosXattrsIterD1Ev
librados.so.2:_ZN8librados15RadosXattrsIterD2Ev
librados.so.2:_ZN8librados19NObjectIteratorImpl10set_filterERKN4ceph6buffer4listE
librados.so.2:_ZN8librados19NObjectIteratorImpl4seekEj
librados.so.2:_ZN8librados19NObjectIteratorImpl8get_nextEv
librados.so.2:_ZN8librados19NObjectIteratorImplC1EPNS_10ObjListCtxE
librados.so.2:_ZN8librados19NObjectIteratorImplC1ERKS0_
librados.so.2:_ZN8librados19NObjectIteratorImplC2EPNS_10ObjListCtxE
librados.so.2:_ZN8librados19NObjectIteratorImplC2ERKS0_
librados.so.2:_ZN8librados19NObjectIteratorImplD1Ev
librados.so.2:_ZN8librados19NObjectIteratorImplD2Ev
librados.so.2:_ZN8librados19NObjectIteratorImplaSERKS0_
librados.so.2:_ZN8librados19NObjectIteratorImplppEi
librados.so.2:_ZN8librados19NObjectIteratorImplppEv
librados.so.2:_ZN8librados19ObjectReadOperation10list_snapsEPNS_10snap_set_tEPi
librados.so.2:_ZN8librados19ObjectReadOperation11cache_evictEv
librados.so.2:_ZN8librados19ObjectReadOperation11cache_flushEv
librados.so.2:_ZN8librados19ObjectReadOperation11sparse_readEmmPSt3mapImmSt4lessImESaISt4pairIKmmEEEPN4ceph6buffer4listEPi
librados.so.2:_ZN8librados19ObjectReadOperation13list_watchersEPNSt7__cxx114listI11obj_watch_tSaIS3_EEEPi
librados.so.2:_ZN8librados19ObjectReadOperation13omap_get_keysERKNSt7__cxx1112basic_stringIcSt11char_traitsIcESaIcEEEmPSt3setIS6_St4lessIS6_ESaIS6_EEPi
librados.so.2:_ZN8librados19ObjectReadOperation13omap_get_valsERKNSt7__cxx1112basic_stringIcSt11char_traitsIcESaIcEEES8_mPSt3mapIS6_N4ceph6buffer4listESt4lessIS6_ESaISt4pairIS7_SC_EEEPi
librados.so.2:_ZN8librados19ObjectReadOperation13omap_get_valsERKNSt7__cxx1112basic_stringIcSt11char_traitsIcESaIcEEEmPSt3mapIS6_N4ceph6buffer4listESt4lessIS6_ESaISt4pairIS7_SC_EEEPi
librados.so.2:_ZN8librados19ObjectReadOperation15cache_try_flushEv
librados.so.2:_ZN8librados19ObjectReadOperation15omap_get_headerEPN4ceph6buffer4listEPi
librados.so.2:_ZN8librados19ObjectReadOperation21omap_get_vals_by_keysERKSt3setINSt7__cxx1112basic_stringIcSt11char_traitsIcESaIcEEESt4lessIS7_ESaIS7_EEPSt3mapIS7_N4ceph6buffer4listES9_SaISt4pairIKS7_SH_EEEPi
librados.so.2:_ZN8librados19ObjectReadOperation4readEmmPN4ceph6buffer4listEPi
librados.so.2:_ZN8librados19ObjectReadOperation4statEPmPlPi
librados.so.2:_ZN8librados19ObjectReadOperation5stat2EPmP8timespecPi
librados.so.2:_ZN8librados19ObjectReadOperation8getxattrEPKcPN4ceph6buffer4listEPi
librados.so.2:_ZN8librados19ObjectReadOperation8is_dirtyEPbPi
librados.so.2:_ZN8librados19ObjectReadOperation8tmap_getEPN4ceph6buffer4listEPi
librados.so.2:_ZN8librados19ObjectReadOperation9getxattrsEPSt3mapINSt7__cxx1112basic_stringIcSt11char_traitsIcESaIcEEEN4ceph6buffer4listESt4lessIS7_ESaISt4pairIKS7_SA_EEEPi
librados.so.2:_ZN8librados19PoolAsyncCompletion11is_completeEv
librados.so.2:_ZN8librados19PoolAsyncCompletion12set_callbackEPvPFvS1_S1_E
librados.so.2:_ZN8librados19PoolAsyncCompletion16get_return_valueEv
librados.so.2:_ZN8librados19PoolAsyncCompletion4waitEv
librados.so.2:_ZN8librados19PoolAsyncCompletion7releaseEv
librados.so.2:_ZN8librados20ObjectWriteOperation10copy_from2ERKNSt7__cxx1112basic_stringIcSt11char_traitsIcESaIcEEERKNS_5IoCtxEmj
librados.so.2:_ZN8librados20ObjectWriteOperation10omap_clearEv
librados.so.2:_ZN8librados20ObjectWriteOperation10write_fullERKN4ceph6buffer4listE
librados.so.2:_ZN8librados20ObjectWriteOperation11cache_unpinEv
librados.so.2:_ZN8librados20ObjectWriteOperation11clone_rangeEmRKNSt7__cxx1112basic_stringIcSt11char_traitsIcESaIcEEEmm
librados.so.2:_ZN8librados20ObjectWriteOperation11tmap_updateERKN4ceph6buffer4listE
librados.so.2:_ZN8librados20ObjectWriteOperation12omap_rm_keysERKSt3setINSt7__cxx1112basic_stringIcSt11char_traitsIcESaIcEEESt4lessIS7_ESaIS7_EE
librados.so.2:_ZN8librados20ObjectWriteOperation13snap_rollbackEm
librados.so.2:_ZN8librados20ObjectWriteOperation14set_alloc_hintEmm
librados.so.2:_ZN8librados20ObjectWriteOperation15omap_set_headerERKN4ceph6buffer4listE
librados.so.2:_ZN8librados20ObjectWriteOperation15set_alloc_hint2Emmj
librados.so.2:_ZN8librados20ObjectWriteOperation25selfmanaged_snap_rollbackEm
librados.so.2:_ZN8librados20ObjectWriteOperation4zeroEmm
librados.so.2:_ZN8librados20ObjectWriteOperation5mtimeEPl
librados.so.2:_ZN8librados20ObjectWriteOperation5writeEmRKN4ceph6buffer4listE
librados.so.2:_ZN8librados20ObjectWriteOperation6appendERKN4ceph6buffer4listE
librados.so.2:_ZN8librados20ObjectWriteOperation6createEb
librados.so.2:_ZN8librados20ObjectWriteOperation6createEbRKNSt7__cxx1112basic_stringIcSt11char_traitsIcESaIcEEE
librados.so.2:_ZN8librados20ObjectWriteOperation6mtime2EP8timespec
librados.so.2:_ZN8librados20ObjectWriteOperation6removeEv
librados.so.2:_ZN8librados20ObjectWriteOperation7rmxattrEPKc
librados.so.2:_ZN8librados20ObjectWriteOperation7undirtyEv
librados.so.2:_ZN8librados20ObjectWriteOperation8omap_setERKSt3mapINSt7__cxx1112basic_stringIcSt11char_traitsIcESaIcEEEN4ceph6buffer4listESt4lessIS7_ESaISt4pairIKS7_SA_EEE
librados.so.2:_ZN8librados20ObjectWriteOperation8setxattrEPKcRKN4ceph6buffer4listE
librados.so.2:_ZN8librados20ObjectWriteOperation8tmap_putERKN4ceph6buffer4listE
librados.so.2:_ZN8librados20ObjectWriteOperation8truncateEm
librados.so.2:_ZN8librados20ObjectWriteOperation9cache_pinEv
librados.so.2:_ZN8librados20ObjectWriteOperation9copy_fromERKNSt7__cxx1112basic_stringIcSt11char_traitsIcESaIcEEERKNS_5IoCtxEm
librados.so.2:_ZN8librados20ObjectWriteOperation9writesameEmmRKN4ceph6buffer4listE
librados.so.2:_ZN8librados5IoCtx10aio_appendERKNSt7__cxx1112basic_stringIcSt11char_traitsIcESaIcEEEPNS_13AioCompletionERKN4ceph6buffer4listEm
librados.so.2:_ZN8librados5IoCtx10aio_cancelEPNS_13AioCompletionE
librados.so.2:_ZN8librados5IoCtx10aio_notifyERKNSt7__cxx1112basic_stringIcSt11char_traitsIcESaIcEEEPNS_13AioCompletionERN4ceph6buffer4listEmPSD_
librados.so.2:_ZN8librados5IoCtx10aio_removeERKNSt7__cxx1112basic_stringIcSt11char_traitsIcESaIcEEEPNS_13AioCompletionE
librados.so.2:_ZN8librados5IoCtx10aio_removeERKNSt7__cxx1112basic_stringIcSt11char_traitsIcESaIcEEEPNS_13AioCompletionEi
librados.so.2:_ZN8librados5IoCtx10aio_unlockERKNSt7__cxx1112basic_stringIcSt11char_traitsIcESaIcEEES8_S8_PNS_13AioCompletionE
librados.so.2:_ZN8librados5IoCtx10aio_watch2ERKNSt7__cxx1112basic_stringIcSt11char_traitsIcESaIcEEEPNS_13AioCompletionEPmPNS_9WatchCtx2Ej
librados.so.2:_ZN8librados5IoCtx10break_lockERKNSt7__cxx1112basic_stringIcSt11char_traitsIcESaIcEEES8_S8_S8_
librados.so.2:_ZN8librados5IoCtx10list_snapsERKNSt7__cxx1112basic_stringIcSt11char_traitsIcESaIcEEEPNS_10snap_set_tE
librados.so.2:_ZN8librados5IoCtx10notify_ackERKNSt7__cxx1112basic_stringIcSt11char_traitsIcESaIcEEEmmRN4ceph6buffer4listE
librados.so.2:_ZN8librados5IoCtx10omap_clearERKNSt7__cxx1112basic_stringIcSt11char_traitsIcESaIcEEE
librados.so.2:_ZN8librados5IoCtx10write_fullERKNSt7__cxx1112basic_stringIcSt11char_traitsIcESaIcEEERN4ceph6buffer4listE
librados.so.2:_ZN8librados5IoCtx11aio_operateERKNSt7__cxx1112basic_stringIcSt11char_traitsIcESaIcEEEPNS_13AioCompletionEPNS_19ObjectReadOperationEPN4ceph6buffer4listE
librados.so.2:_ZN8librados5IoCtx11aio_operateERKNSt7__cxx1112basic_stringIcSt11char_traitsIcESaIcEEEPNS_13AioCompletionEPNS_19ObjectReadOperationEiPN4ceph6buffer4listE
librados.so.2:_ZN8librados5IoCtx11aio_operateERKNSt7__cxx1112basic_stringIcSt11char_traitsIcESaIcEEEPNS_13AioCompletionEPNS_19ObjectReadOperationEmiPN4ceph6buffer4listE
librados.so.2:_ZN8librados5IoCtx11aio_operateERKNSt7__cxx1112basic_stringIcSt11char_traitsIcESaIcEEEPNS_13AioCompletionEPNS_20ObjectWriteOperationE
librados.so.2:_ZN8librados5IoCtx11aio_operateERKNSt7__cxx1112basic_stringIcSt11char_traitsIcESaIcEEEPNS_13AioCompletionEPNS_20ObjectWriteOperationEi
librados.so.2:_ZN8librados5IoCtx11aio_operateERKNSt7__cxx1112basic_stringIcSt11char_traitsIcESaIcEEEPNS_13AioCompletionEPNS_20ObjectWriteOperationEmRSt6vectorImSaImEE
librados.so.2:_ZN8librados5IoCtx11aio_rmxattrERKNSt7__cxx1112basic_stringIcSt11char_traitsIcESaIcEEEPNS_13AioCompletionEPKc
librados.so.2:_ZN8librados5IoCtx11aio_unwatchEmPNS_13AioCompletionE
librados.so.2:_ZN8librados5IoCtx11cache_unpinERKNSt7__cxx1112basic_stringIcSt11char_traitsIcESaIcEEE
librados.so.2:_ZN8librados5IoCtx11clone_rangeERKNSt7__cxx1112basic_stringIcSt11char_traitsIcESaIcEEEmS8_mm
librados.so.2:_ZN8librados5IoCtx11hit_set_getEjPNS_13AioCompletionElPN4ceph6buffer4listE
librados.so.2:_ZN8librados5IoCtx11lock_sharedERKNSt7__cxx1112basic_stringIcSt11char_traitsIcESaIcEEES8_S8_S8_S8_P7timevalh
librados.so.2:_ZN8librados5IoCtx11object_listERKNS_12ObjectCursorES3_mRKN4ceph6buffer4listEPSt6vectorINS_10ObjectItemESaISA_EEPS1_
librados.so.2:_ZN8librados5IoCtx11snap_createEPKc
librados.so.2:_ZN8librados5IoCtx11snap_lookupEPKcPm
librados.so.2:_ZN8librados5IoCtx11snap_removeEPKc
librados.so.2:_ZN8librados5IoCtx11sparse_readERKNSt7__cxx1112basic_stringIcSt11char_traitsIcESaIcEEERSt3mapImmSt4lessImESaISt4pairIKmmEEERN4ceph6buffer4listEmm
librados.so.2:_ZN8librados5IoCtx11tmap_updateERKNSt7__cxx1112basic_stringIcSt11char_traitsIcESaIcEEERN4ceph6buffer4listE
librados.so.2:_ZN8librados5IoCtx11watch_checkEm
librados.so.2:_ZN8librados5IoCtx12aio_getxattrERKNSt7__cxx1112basic_stringIcSt11char_traitsIcESaIcEEEPNS_13AioCompletionEPKcRN4ceph6buffer4listE
librados.so.2:_ZN8librados5IoCtx12aio_setxattrERKNSt7__cxx1112basic_stringIcSt11char_traitsIcESaIcEEEPNS_13AioCompletionEPKcRN4ceph6buffer4listE
librados.so.2:_ZN8librados5IoCtx12hit_set_listEjPNS_13AioCompletionEPNSt7__cxx114listISt4pairIllESaIS6_EEE
librados.so.2:_ZN8librados5IoCtx12list_lockersERKNSt7__cxx1112basic_stringIcSt11char_traitsIcESaIcEEES8_PiPS6_PNS1_4listINS_8locker_tESaISC_EEE
librados.so.2:_ZN8librados5IoCtx12omap_rm_keysERKNSt7__cxx1112basic_stringIcSt11char_traitsIcESaIcEEERKSt3setIS6_St4lessIS6_ESaIS6_EE
librados.so.2:_ZN8librados5IoCtx12tmap_to_omapERKNSt7__cxx1112basic_stringIcSt11char_traitsIcESaIcEEEb
librados.so.2:_ZN8librados5IoCtx13aio_getxattrsERKNSt7__cxx1112basic_stringIcSt11char_traitsIcESaIcEEEPNS_13AioCompletionERSt3mapIS6_N4ceph6buffer4listESt4lessIS6_ESaISt4pairIS7_SE_EEE
librados.so.2:_ZN8librados5IoCtx13aio_writesameERKNSt7__cxx1112basic_stringIcSt11char_traitsIcESaIcEEEPNS_13AioCompletionERKN4ceph6buffer4listEmm
librados.so.2:_ZN8librados5IoCtx13get_pool_nameB5cxx11Ev
librados.so.2:_ZN8librados5IoCtx13list_watchersERKNSt7__cxx1112basic_stringIcSt11char_traitsIcESaIcEEEPNS1_4listI11obj_watch_tSaISA_EEE
librados.so.2:_ZN8librados5IoCtx13objects_beginEj
librados.so.2:_ZN8librados5IoCtx13objects_beginEv
librados.so.2:_ZN8librados5IoCtx13omap_get_keysERKNSt7__cxx1112basic_stringIcSt11char_traitsIcESaIcEEES8_mPSt3setIS6_St4lessIS6_ESaIS6_EE
librados.so.2:_ZN8librados5IoCtx13omap_get_valsERKNSt7__cxx1112basic_stringIcSt11char_traitsIcESaIcEEES8_S8_mPSt3mapIS6_N4ceph6buffer4listESt4lessIS6_ESaISt4pairIS7_SC_EEE
librados.so.2:_ZN8librados5IoCtx13omap_get_valsERKNSt7__cxx1112basic_stringIcSt11char_traitsIcESaIcEEES8_mPSt3mapIS6_N4ceph6buffer4listESt4lessIS6_ESaISt4pairIS7_SC_EEE
librados.so.2:_ZN8librados5IoCtx13set_namespaceERKNSt7__cxx1112basic_stringIcSt11char_traitsIcESaIcEEE
librados.so.2:_ZN8librados5IoCtx13snap_get_nameEmPNSt7__cxx1112basic_stringIcSt11char_traitsIcESaIcEEE
librados.so.2:_ZN8librados5IoCtx13snap_rollbackERKNSt7__cxx1112basic_stringIcSt11char_traitsIcESaIcEEEPKc
librados.so.2:_ZN8librados5IoCtx13snap_set_readEm
librados.so.2:_ZN8librados5IoCtx14aio_write_fullERKNSt7__cxx1112basic_stringIcSt11char_traitsIcESaIcEEEPNS_13AioCompletionERKN4ceph6buffer4listE
librados.so.2:_ZN8librados5IoCtx14lock_exclusiveERKNSt7__cxx1112basic_stringIcSt11char_traitsIcESaIcEEES8_S8_S8_P7timevalh
librados.so.2:_ZN8librados5IoCtx14nobjects_beginERKN4ceph6buffer4listE
librados.so.2:_ZN8librados5IoCtx14nobjects_beginEj
librados.so.2:_ZN8librados5IoCtx14nobjects_beginEjRKN4ceph6buffer4listE
librados.so.2:_ZN8librados5IoCtx14nobjects_beginEv
librados.so.2:_ZN8librados5IoCtx14set_alloc_hintERKNSt7__cxx1112basic_stringIcSt11char_traitsIcESaIcEEEmm
librados.so.2:_ZN8librados5IoCtx14set_auid_asyncEmPNS_19PoolAsyncCompletionE
librados.so.2:_ZN8librados5IoCtx14snap_get_stampEmPl
librados.so.2:_ZN8librados5IoCtx15aio_flush_asyncEPNS_13AioCompletionE
librados.so.2:_ZN8librados5IoCtx15aio_sparse_readERKNSt7__cxx1112basic_stringIcSt11char_traitsIcESaIcEEEPNS_13AioCompletionEPSt3mapImmSt4lessImESaISt4pairIKmmEEEPN4ceph6buffer4listEmm
librados.so.2:_ZN8librados5IoCtx15aio_sparse_readERKNSt7__cxx1112basic_stringIcSt11char_traitsIcESaIcEEEPNS_13AioCompletionEPSt3mapImmSt4lessImESaISt4pairIKmmEEEPN4ceph6buffer4listEmmm
librados.so.2:_ZN8librados5IoCtx15locator_set_keyERKNSt7__cxx1112basic_stringIcSt11char_traitsIcESaIcEEE
librados.so.2:_ZN8librados5IoCtx15object_list_endEv
librados.so.2:_ZN8librados5IoCtx15omap_get_headerERKNSt7__cxx1112basic_stringIcSt11char_traitsIcESaIcEEEPN4ceph6buffer4listE
librados.so.2:_ZN8librados5IoCtx15omap_set_headerERKNSt7__cxx1112basic_stringIcSt11char_traitsIcESaIcEEERKN4ceph6buffer4listE
librados.so.2:_ZN8librados5IoCtx15set_alloc_hint2ERKNSt7__cxx1112basic_stringIcSt11char_traitsIcESaIcEEEmmj
librados.so.2:_ZN8librados5IoCtx16get_last_versionEv
librados.so.2:_ZN8librados5IoCtx17object_list_beginEv
librados.so.2:_ZN8librados5IoCtx17object_list_sliceENS_12ObjectCursorES1_mmPS1_S2_
librados.so.2:_ZN8librados5IoCtx18from_rados_ioctx_tEPvRS0_
librados.so.2:_ZN8librados5IoCtx18object_list_is_endERKNS_12ObjectCursorE
librados.so.2:_ZN8librados5IoCtx18set_assert_versionEm
librados.so.2:_ZN8librados5IoCtx18set_notify_timeoutEj
librados.so.2:_ZN8librados5IoCtx21omap_get_vals_by_keysERKNSt7__cxx1112basic_stringIcSt11char_traitsIcESaIcEEERKSt3setIS6_St4lessIS6_ESaIS6_EEPSt3mapIS6_N4ceph6buffer4listESB_SaISt4pairIS7_SJ_EEE
librados.so.2:_ZN8librados5IoCtx22set_assert_src_versionERKNSt7__cxx1112basic_stringIcSt11char_traitsIcESaIcEEEm
librados.so.2:_ZN8librados5IoCtx23pool_required_alignmentEv
librados.so.2:_ZN8librados5IoCtx23pool_requires_alignmentEv
librados.so.2:_ZN8librados5IoCtx23selfmanaged_snap_createEPm
librados.so.2:_ZN8librados5IoCtx23selfmanaged_snap_removeEm
librados.so.2:_ZN8librados5IoCtx24get_object_hash_positionERKNSt7__cxx1112basic_stringIcSt11char_traitsIcESaIcEEE
librados.so.2:_ZN8librados5IoCtx24pool_required_alignment2EPm
librados.so.2:_ZN8librados5IoCtx24pool_requires_alignment2EPb
librados.so.2:_ZN8librados5IoCtx25get_object_hash_position2ERKNSt7__cxx1112basic_stringIcSt11char_traitsIcESaIcEEEPj
librados.so.2:_ZN8librados5IoCtx25selfmanaged_snap_rollbackERKNSt7__cxx1112basic_stringIcSt11char_traitsIcESaIcEEEm
librados.so.2:_ZN8librados5IoCtx27get_object_pg_hash_positionERKNSt7__cxx1112basic_stringIcSt11char_traitsIcESaIcEEE
librados.so.2:_ZN8librados5IoCtx28get_object_pg_hash_position2ERKNSt7__cxx1112basic_stringIcSt11char_traitsIcESaIcEEEPj
librados.so.2:_ZN8librados5IoCtx30selfmanaged_snap_set_write_ctxEmRSt6vectorImSaImEE
librados.so.2:_ZN8librados5IoCtx3cctEv
librados.so.2:_ZN8librados5IoCtx3dupERKS0_
librados.so.2:_ZN8librados5IoCtx4execERKNSt7__cxx1112basic_stringIcSt11char_traitsIcESaIcEEEPKcSA_RN4ceph6buffer4listESE_
librados.so.2:_ZN8librados5IoCtx4readERKNSt7__cxx1112basic_stringIcSt11char_traitsIcESaIcEEERN4ceph6buffer4listEmm
librados.so.2:_ZN8librados5IoCtx4statERKNSt7__cxx1112basic_stringIcSt11char_traitsIcESaIcEEEPmPl
librados.so.2:_ZN8librados5IoCtx5closeEv
librados.so.2:_ZN8librados5IoCtx5stat2ERKNSt7__cxx1112basic_stringIcSt11char_traitsIcESaIcEEEPmP8timespec
librados.so.2:_ZN8librados5IoCtx5truncERKNSt7__cxx1112basic_stringIcSt11char_traitsIcESaIcEEEm
librados.so.2:_ZN8librados5IoCtx5watchERKNSt7__cxx1112basic_stringIcSt11char_traitsIcESaIcEEEmPmPNS_8WatchCtxE
librados.so.2:_ZN8librados5IoCtx5writeERKNSt7__cxx1112basic_stringIcSt11char_traitsIcESaIcEEERN4ceph6buffer4listEmm
librados.so.2:_ZN8librados5IoCtx6appendERKNSt7__cxx1112basic_stringIcSt11char_traitsIcESaIcEEERN4ceph6buffer4listEm
librados.so.2:_ZN8librados5IoCtx6createERKNSt7__cxx1112basic_stringIcSt11char_traitsIcESaIcEEEb
librados.so.2:_ZN8librados5IoCtx6createERKNSt7__cxx1112basic_stringIcSt11char_traitsIcESaIcEEEbS8_
librados.so.2:_ZN8librados5IoCtx6get_idEv
librados.so.2:_ZN8librados5IoCtx6mapextERKNSt7__cxx1112basic_stringIcSt11char_traitsIcESaIcEEEmmRSt3mapImmSt4lessImESaISt4pairIKmmEEE
librados.so.2:_ZN8librados5IoCtx6notifyERKNSt7__cxx1112basic_stringIcSt11char_traitsIcESaIcEEEmRN4ceph6buffer4listE
librados.so.2:_ZN8librados5IoCtx6removeERKNSt7__cxx1112basic_stringIcSt11char_traitsIcESaIcEEE
librados.so.2:_ZN8librados5IoCtx6removeERKNSt7__cxx1112basic_stringIcSt11char_traitsIcESaIcEEEi
librados.so.2:_ZN8librados5IoCtx6unlockERKNSt7__cxx1112basic_stringIcSt11char_traitsIcESaIcEEES8_S8_
librados.so.2:_ZN8librados5IoCtx6watch2ERKNSt7__cxx1112basic_stringIcSt11char_traitsIcESaIcEEEPmPNS_9WatchCtx2E
librados.so.2:_ZN8librados5IoCtx6watch3ERKNSt7__cxx1112basic_stringIcSt11char_traitsIcESaIcEEEPmPNS_9WatchCtx2Ej
librados.so.2:_ZN8librados5IoCtx7notify2ERKNSt7__cxx1112basic_stringIcSt11char_traitsIcESaIcEEERN4ceph6buffer4listEmPSB_
librados.so.2:_ZN8librados5IoCtx7operateERKNSt7__cxx1112basic_stringIcSt11char_traitsIcESaIcEEEPNS_19ObjectReadOperationEPN4ceph6buffer4listE
librados.so.2:_ZN8librados5IoCtx7operateERKNSt7__cxx1112basic_stringIcSt11char_traitsIcESaIcEEEPNS_20ObjectWriteOperationE
librados.so.2:_ZN8librados5IoCtx7rmxattrERKNSt7__cxx1112basic_stringIcSt11char_traitsIcESaIcEEEPKc
librados.so.2:_ZN8librados5IoCtx7unwatchERKNSt7__cxx1112basic_stringIcSt11char_traitsIcESaIcEEEm
librados.so.2:_ZN8librados5IoCtx8aio_execERKNSt7__cxx1112basic_stringIcSt11char_traitsIcESaIcEEEPNS_13AioCompletionEPKcSC_RN4ceph6buffer4listEPSF_
librados.so.2:_ZN8librados5IoCtx8aio_readERKNSt7__cxx1112basic_stringIcSt11char_traitsIcESaIcEEEPNS_13AioCompletionEPN4ceph6buffer4listEmm
librados.so.2:_ZN8librados5IoCtx8aio_readERKNSt7__cxx1112basic_stringIcSt11char_traitsIcESaIcEEEPNS_13AioCompletionEPN4ceph6buffer4listEmmm
librados.so.2:_ZN8librados5IoCtx8aio_statERKNSt7__cxx1112basic_stringIcSt11char_traitsIcESaIcEEEPNS_13AioCompletionEPmPl
librados.so.2:_ZN8librados5IoCtx8get_auidEPm
librados.so.2:_ZN8librados5IoCtx8getxattrERKNSt7__cxx1112basic_stringIcSt11char_traitsIcESaIcEEEPKcRN4ceph6buffer4listE
librados.so.2:_ZN8librados5IoCtx8omap_setERKNSt7__cxx1112basic_stringIcSt11char_traitsIcESaIcEEERKSt3mapIS6_N4ceph6buffer4listESt4lessIS6_ESaISt4pairIS7_SC_EEE
librados.so.2:_ZN8librados5IoCtx8rollbackERKNSt7__cxx1112basic_stringIcSt11char_traitsIcESaIcEEEPKc
librados.so.2:_ZN8librados5IoCtx8set_auidEm
librados.so.2:_ZN8librados5IoCtx8setxattrERKNSt7__cxx1112basic_stringIcSt11char_traitsIcESaIcEEEPKcRN4ceph6buffer4listE
librados.so.2:_ZN8librados5IoCtx8tmap_getERKNSt7__cxx1112basic_stringIcSt11char_traitsIcESaIcEEERN4ceph6buffer4listE
librados.so.2:_ZN8librados5IoCtx8tmap_putERKNSt7__cxx1112basic_stringIcSt11char_traitsIcESaIcEEERN4ceph6buffer4listE
librados.so.2:_ZN8librados5IoCtx8unwatch2Em
librados.so.2:_ZN8librados5IoCtx9aio_flushEv
librados.so.2:_ZN8librados5IoCtx9aio_watchERKNSt7__cxx1112basic_stringIcSt11char_traitsIcESaIcEEEPNS_13AioCompletionEPmPNS_9WatchCtx2E
librados.so.2:_ZN8librados5IoCtx9aio_writeERKNSt7__cxx1112basic_stringIcSt11char_traitsIcESaIcEEEPNS_13AioCompletionERKN4ceph6buffer4listEmm
librados.so.2:_ZN8librados5IoCtx9cache_pinERKNSt7__cxx1112basic_stringIcSt11char_traitsIcESaIcEEE
librados.so.2:_ZN8librados5IoCtx9getxattrsERKNSt7__cxx1112basic_stringIcSt11char_traitsIcESaIcEEERSt3mapIS6_N4ceph6buffer4listESt4lessIS6_ESaISt4pairIS7_SC_EEE
librados.so.2:_ZN8librados5IoCtx9snap_listEPSt6vectorImSaImEE
librados.so.2:_ZN8librados5IoCtx9writesameERKNSt7__cxx1112basic_stringIcSt11char_traitsIcESaIcEEERN4ceph6buffer4listEmm
librados.so.2:_ZN8librados5IoCtxC1EPNS_9IoCtxImplE
librados.so.2:_ZN8librados5IoCtxC1ERKS0_
librados.so.2:_ZN8librados5IoCtxC1Ev
librados.so.2:_ZN8librados5IoCtxC2EPNS_9IoCtxImplE
librados.so.2:_ZN8librados5IoCtxC2ERKS0_
librados.so.2:_ZN8librados5IoCtxC2Ev
librados.so.2:_ZN8librados5IoCtxD1Ev
librados.so.2:_ZN8librados5IoCtxD2Ev
librados.so.2:_ZN8librados5IoCtxaSERKS0_
librados.so.2:_ZN8librados5Rados10pg_commandEPKcNSt7__cxx1112basic_stringIcSt11char_traitsIcESaIcEEERKN4ceph6buffer4listEPSB_PS8_
librados.so.2:_ZN8librados5Rados10pool_list2ERNSt7__cxx114listISt4pairIlNS1_12basic_stringIcSt11char_traitsIcESaIcEEEESaIS9_EEE
librados.so.2:_ZN8librados5Rados11mgr_commandENSt7__cxx1112basic_stringIcSt11char_traitsIcESaIcEEERKN4ceph6buffer4listEPS9_PS6_
librados.so.2:_ZN8librados5Rados11mon_commandENSt7__cxx1112basic_stringIcSt11char_traitsIcESaIcEEERKN4ceph6buffer4listEPS9_PS6_
librados.so.2:_ZN8librados5Rados11osd_commandEiNSt7__cxx1112basic_stringIcSt11char_traitsIcESaIcEEERKN4ceph6buffer4listEPS9_PS6_
librados.so.2:_ZN8librados5Rados11pool_createEPKc
librados.so.2:_ZN8librados5Rados11pool_createEPKcm
librados.so.2:_ZN8librados5Rados11pool_createEPKcmh
librados.so.2:_ZN8librados5Rados11pool_deleteEPKc
librados.so.2:_ZN8librados5Rados11pool_lookupEPKc
librados.so.2:_ZN8librados5Rados11watch_flushEv
librados.so.2:_ZN8librados5Rados12cluster_fsidEPNSt7__cxx1112basic_stringIcSt11char_traitsIcESaIcEEE
librados.so.2:_ZN8librados5Rados12cluster_statER20rados_cluster_stat_t
librados.so.2:_ZN8librados5Rados12ioctx_createEPKcRNS_5IoCtxE
librados.so.2:_ZN8librados5Rados13blacklist_addERKNSt7__cxx1112basic_stringIcSt11char_traitsIcESaIcEEEj
librados.so.2:_ZN8librados5Rados13ioctx_create2ElRNS_5IoCtxE
librados.so.2:_ZN8librados5Rados14get_pool_statsERNSt7__cxx114listINS1_12basic_stringIcSt11char_traitsIcESaIcEEESaIS7_EEERS7_RSt3mapIS7_SC_IS7_17rados_pool_stat_tSt4lessIS7_ESaISt4pairIKS7_SD_EEESF_SaISG_ISH_SK_EEE
librados.so.2:_ZN8librados5Rados14get_pool_statsERNSt7__cxx114listINS1_12basic_stringIcSt11char_traitsIcESaIcEEESaIS7_EEERSt3mapIS7_17rados_pool_stat_tSt4lessIS7_ESaISt4pairIKS7_SC_EEE
librados.so.2:_ZN8librados5Rados14get_pool_statsERNSt7__cxx114listINS1_12basic_stringIcSt11char_traitsIcESaIcEEESaIS7_EEERSt3mapIS7_SB_IS7_17rados_pool_stat_tSt4lessIS7_ESaISt4pairIKS7_SC_EEESE_SaISF_ISG_SJ_EEE
librados.so.2:_ZN8librados5Rados15aio_watch_flushEPNS_13AioCompletionE
librados.so.2:_ZN8librados5Rados15get_instance_idEv
librados.so.2:_ZN8librados5Rados17init_with_contextEPv
librados.so.2:_ZN8librados5Rados17pool_create_asyncEPKcPNS_19PoolAsyncCompletionE
librados.so.2:_ZN8librados5Rados17pool_create_asyncEPKcmPNS_19PoolAsyncCompletionE
librados.so.2:_ZN8librados5Rados17pool_create_asyncEPKcmhPNS_19PoolAsyncCompletionE
librados.so.2:_ZN8librados5Rados17pool_delete_asyncEPKcPNS_19PoolAsyncCompletionE
librados.so.2:_ZN8librados5Rados18pool_get_base_tierElPl
librados.so.2:_ZN8librados5Rados19pool_reverse_lookupElPNSt7__cxx1112basic_stringIcSt11char_traitsIcESaIcEEE
librados.so.2:_ZN8librados5Rados19test_blacklist_selfEb
librados.so.2:_ZN8librados5Rados20get_inconsistent_pgsElPSt6vectorINS_14PlacementGroupESaIS2_EE
librados.so.2:_ZN8librados5Rados21aio_create_completionEPvPFvS1_S1_ES3_
librados.so.2:_ZN8librados5Rados21aio_create_completionEv
librados.so.2:_ZN8librados5Rados22wait_for_latest_osdmapEv
librados.so.2:_ZN8librados5Rados24get_inconsistent_objectsERKNS_14PlacementGroupERKNS_11object_id_tEjPNS_13AioCompletionEPSt6vectorINS_18inconsistent_obj_tESaISA_EEPj
librados.so.2:_ZN8librados5Rados25get_inconsistent_snapsetsERKNS_14PlacementGroupERKNS_11object_id_tEjPNS_13AioCompletionEPSt6vectorINS_22inconsistent_snapset_tESaISA_EEPj
librados.so.2:_ZN8librados5Rados28pool_async_create_completionEv
librados.so.2:_ZN8librados5Rados34get_pool_is_selfmanaged_snaps_modeERKNSt7__cxx1112basic_stringIcSt11char_traitsIcESaIcEEE
librados.so.2:_ZN8librados5Rados3cctEv
librados.so.2:_ZN8librados5Rados4initEPKc
librados.so.2:_ZN8librados5Rados5init2EPKcS2_m
librados.so.2:_ZN8librados5Rados7connectEv
librados.so.2:_ZN8librados5Rados7versionEPiS1_S1_
librados.so.2:_ZN8librados5Rados8conf_getEPKcRNSt7__cxx1112basic_stringIcSt11char_traitsIcESaIcEEE
librados.so.2:_ZN8librados5Rados8conf_setEPKcS2_
librados.so.2:_ZN8librados5Rados8shutdownEv
librados.so.2:_ZN8librados5Rados9pool_listERNSt7__cxx114listINS1_12basic_stringIcSt11char_traitsIcESaIcEEESaIS7_EEE
librados.so.2:_ZN8librados5RadosC1ERNS_5IoCtxE
librados.so.2:_ZN8librados5RadosC1Ev
librados.so.2:_ZN8librados5RadosC2ERNS_5IoCtxE
librados.so.2:_ZN8librados5RadosC2Ev
librados.so.2:_ZN8librados5RadosD1Ev
librados.so.2:_ZN8librados5RadosD2Ev
librados.so.2:_ZN8librados8WatchCtxD0Ev
librados.so.2:_ZN8librados8WatchCtxD1Ev
librados.so.2:_ZN8librados8WatchCtxD2Ev
librados.so.2:_ZN8librados9IoCtxImpl10C_aio_Safe6finishEi
librados.so.2:_ZN8librados9IoCtxImpl10C_aio_SafeC1EPNS_17AioCompletionImplE
librados.so.2:_ZN8librados9IoCtxImpl10C_aio_SafeC2EPNS_17AioCompletionImplE
librados.so.2:_ZN8librados9IoCtxImpl10aio_appendERK8object_tPNS_17AioCompletionImplERKN4ceph6buffer4listEm
librados.so.2:_ZN8librados9IoCtxImpl10aio_cancelEPNS_17AioCompletionImplE
librados.so.2:_ZN8librados9IoCtxImpl10aio_notifyERK8object_tPNS_17AioCompletionImplERN4ceph6buffer4listEmPS8_PPcPm
librados.so.2:_ZN8librados9IoCtxImpl10aio_removeERK8object_tPNS_17AioCompletionImplEi
librados.so.2:_ZN8librados9IoCtxImpl10nlist_seekEPN8Objecter12NListContextEj
librados.so.2:_ZN8librados9IoCtxImpl10notify_ackERK8object_tmmRN4ceph6buffer4listE
librados.so.2:_ZN8librados9IoCtxImpl10write_fullERK8object_tRN4ceph6buffer4listE
librados.so.2:_ZN8librados9IoCtxImpl11aio_operateERK8object_tP15ObjectOperationPNS_17AioCompletionImplERK11SnapContexti
librados.so.2:_ZN8librados9IoCtxImpl11aio_rmxattrERK8object_tPNS_17AioCompletionImplEPKc
librados.so.2:_ZN8librados9IoCtxImpl11aio_unwatchEmPNS_17AioCompletionImplE
librados.so.2:_ZN8librados9IoCtxImpl11cache_unpinERK8object_t
librados.so.2:_ZN8librados9IoCtxImpl11clone_rangeERK8object_tmS3_mm
librados.so.2:_ZN8librados9IoCtxImpl11hit_set_getEjPNS_17AioCompletionImplElPN4ceph6buffer4listE
librados.so.2:_ZN8librados9IoCtxImpl11snap_createEPKc
librados.so.2:_ZN8librados9IoCtxImpl11snap_lookupEPKcPm
librados.so.2:_ZN8librados9IoCtxImpl11snap_removeEPKc
librados.so.2:_ZN8librados9IoCtxImpl11sparse_readERK8object_tRSt3mapImmSt4lessImESaISt4pairIKmmEEERN4ceph6buffer4listEmm
librados.so.2:_ZN8librados9IoCtxImpl11tmap_updateERK8object_tRN4ceph6buffer4listE
librados.so.2:_ZN8librados9IoCtxImpl11watch_checkEm
librados.so.2:_ZN8librados9IoCtxImpl12aio_getxattrERK8object_tPNS_17AioCompletionImplEPKcRN4ceph6buffer4listE
librados.so.2:_ZN8librados9IoCtxImpl12aio_setxattrERK8object_tPNS_17AioCompletionImplEPKcRN4ceph6buffer4listE
librados.so.2:_ZN8librados9IoCtxImpl12hit_set_listEjPNS_17AioCompletionImplEPNSt7__cxx114listISt4pairIllESaIS6_EEE
librados.so.2:_ZN8librados9IoCtxImpl12last_versionEv
librados.so.2:_ZN8librados9IoCtxImpl12operate_readERK8object_tP15ObjectOperationPN4ceph6buffer4listEi
librados.so.2:_ZN8librados9IoCtxImpl12tmap_to_omapERK8object_tb
librados.so.2:_ZN8librados9IoCtxImpl13aio_getxattrsERK8object_tPNS_17AioCompletionImplERSt3mapINSt7__cxx1112basic_stringIcSt11char_traitsIcESaIcEEEN4ceph6buffer4listESt4lessISC_ESaISt4pairIKSC_SF_EEE
librados.so.2:_ZN8librados9IoCtxImpl13aio_writesameERK8object_tPNS_17AioCompletionImplERKN4ceph6buffer4listEmm
librados.so.2:_ZN8librados9IoCtxImpl13set_snap_readE8snapid_t
librados.so.2:_ZN8librados9IoCtxImpl13snap_get_nameEmPNSt7__cxx1112basic_stringIcSt11char_traitsIcESaIcEEE
librados.so.2:_ZN8librados9IoCtxImpl14C_aio_stat_Ack6finishEi
librados.so.2:_ZN8librados9IoCtxImpl14C_aio_stat_AckC1EPNS_17AioCompletionImplEPl
librados.so.2:_ZN8librados9IoCtxImpl14C_aio_stat_AckC2EPNS_17AioCompletionImplEPl
librados.so.2:_ZN8librados9IoCtxImpl14aio_write_fullERK8object_tPNS_17AioCompletionImplERKN4ceph6buffer4listE
librados.so.2:_ZN8librados9IoCtxImpl14set_alloc_hintERK8object_tmmj
librados.so.2:_ZN8librados9IoCtxImpl14snap_get_stampEmPl
librados.so.2:_ZN8librados9IoCtxImpl15C_aio_stat2_Ack6finishEi
librados.so.2:_ZN8librados9IoCtxImpl15C_aio_stat2_AckC1EPNS_17AioCompletionImplEP8timespec
librados.so.2:_ZN8librados9IoCtxImpl15C_aio_stat2_AckC2EPNS_17AioCompletionImplEP8timespec
librados.so.2:_ZN8librados9IoCtxImpl15aio_sparse_readE8object_tPNS_17AioCompletionImplEPSt3mapImmSt4lessImESaISt4pairIKmmEEEPN4ceph6buffer4listEmmm
librados.so.2:_ZN8librados9IoCtxImpl15queue_aio_writeEPNS_17AioCompletionImplE
librados.so.2:_ZN8librados9IoCtxImpl16aio_operate_readERK8object_tP15ObjectOperationPNS_17AioCompletionImplEiPN4ceph6buffer4listE
librados.so.2:_ZN8librados9IoCtxImpl16flush_aio_writesEv
librados.so.2:_ZN8librados9IoCtxImpl16pool_change_auidEy
librados.so.2:_ZN8librados9IoCtxImpl17object_list_sliceE9hobject_tS1_mmPS1_S2_
librados.so.2:_ZN8librados9IoCtxImpl18complete_aio_writeEPNS_17AioCompletionImplE
librados.so.2:_ZN8librados9IoCtxImpl18prepare_assert_opsEP15ObjectOperation
librados.so.2:_ZN8librados9IoCtxImpl18set_assert_versionEm
librados.so.2:_ZN8librados9IoCtxImpl18set_notify_timeoutEj
librados.so.2:_ZN8librados9IoCtxImpl19set_sync_op_versionEm
librados.so.2:_ZN8librados9IoCtxImpl20get_cached_pool_nameB5cxx11Ev
librados.so.2:_ZN8librados9IoCtxImpl22flush_aio_writes_asyncEPNS_17AioCompletionImplE
librados.so.2:_ZN8librados9IoCtxImpl22pool_change_auid_asyncEyPNS_23PoolAsyncCompletionImplE
librados.so.2:_ZN8librados9IoCtxImpl22set_assert_src_versionERK8object_tm
librados.so.2:_ZN8librados9IoCtxImpl22set_snap_write_contextE8snapid_tRSt6vectorIS1_SaIS1_EE
librados.so.2:_ZN8librados9IoCtxImpl23selfmanaged_snap_createEPm
librados.so.2:_ZN8librados9IoCtxImpl23selfmanaged_snap_removeEm
librados.so.2:_ZN8librados9IoCtxImpl24get_inconsistent_objectsERK4pg_tRKNS_11object_id_tEmPNS_17AioCompletionImplEPSt6vectorINS_18inconsistent_obj_tESaISA_EEPj
librados.so.2:_ZN8librados9IoCtxImpl24get_object_hash_positionERKNSt7__cxx1112basic_stringIcSt11char_traitsIcESaIcEEEPj
librados.so.2:_ZN8librados9IoCtxImpl25get_inconsistent_snapsetsERK4pg_tRKNS_11object_id_tEmPNS_17AioCompletionImplEPSt6vectorINS_22inconsistent_snapset_tESaISA_EEPj
librados.so.2:_ZN8librados9IoCtxImpl27get_object_pg_hash_positionERKNSt7__cxx1112basic_stringIcSt11char_traitsIcESaIcEEEPj
librados.so.2:_ZN8librados9IoCtxImpl32selfmanaged_snap_rollback_objectERK8object_tR11SnapContextm
librados.so.2:_ZN8librados9IoCtxImpl4execERK8object_tPKcS5_RN4ceph6buffer4listES9_
librados.so.2:_ZN8librados9IoCtxImpl4listEPN8Objecter11ListContextEi
librados.so.2:_ZN8librados9IoCtxImpl4readERK8object_tRN4ceph6buffer4listEmm
librados.so.2:_ZN8librados9IoCtxImpl4statERK8object_tPmPl
librados.so.2:_ZN8librados9IoCtxImpl5nlistEPN8Objecter12NListContextEi
librados.so.2:_ZN8librados9IoCtxImpl5stat2ERK8object_tPmP8timespec
librados.so.2:_ZN8librados9IoCtxImpl5truncERK8object_tm
librados.so.2:_ZN8librados9IoCtxImpl5watchERK8object_tPmPNS_8WatchCtxEPNS_9WatchCtx2Eb
librados.so.2:_ZN8librados9IoCtxImpl5watchERK8object_tPmPNS_8WatchCtxEPNS_9WatchCtx2Ejb
librados.so.2:_ZN8librados9IoCtxImpl5writeERK8object_tRN4ceph6buffer4listEmm
librados.so.2:_ZN8librados9IoCtxImpl6appendERK8object_tRN4ceph6buffer4listEm
librados.so.2:_ZN8librados9IoCtxImpl6createERK8object_tb
librados.so.2:_ZN8librados9IoCtxImpl6mapextERK8object_tmmRSt3mapImmSt4lessImESaISt4pairIKmmEEE
librados.so.2:_ZN8librados9IoCtxImpl6notifyERK8object_tRN4ceph6buffer4listEmPS6_PPcPm
librados.so.2:_ZN8librados9IoCtxImpl6removeERK8object_t
librados.so.2:_ZN8librados9IoCtxImpl6removeERK8object_ti
librados.so.2:_ZN8librados9IoCtxImpl7operateERK8object_tP15ObjectOperationPNSt6chrono10time_pointIN4ceph11time_detail10real_clockENS6_8durationImSt5ratioILl1ELl1000000000EEEEEEi
librados.so.2:_ZN8librados9IoCtxImpl7rmxattrERK8object_tPKc
librados.so.2:_ZN8librados9IoCtxImpl7unwatchEm
librados.so.2:_ZN8librados9IoCtxImpl8aio_execERK8object_tPNS_17AioCompletionImplEPKcS7_RN4ceph6buffer4listEPSA_
librados.so.2:_ZN8librados9IoCtxImpl8aio_execERK8object_tPNS_17AioCompletionImplEPKcS7_RN4ceph6buffer4listEPcm
librados.so.2:_ZN8librados9IoCtxImpl8aio_readE8object_tPNS_17AioCompletionImplEPN4ceph6buffer4listEmmm
librados.so.2:_ZN8librados9IoCtxImpl8aio_readE8object_tPNS_17AioCompletionImplEPcmmm
librados.so.2:_ZN8librados9IoCtxImpl8aio_statERK8object_tPNS_17AioCompletionImplEPmPl
librados.so.2:_ZN8librados9IoCtxImpl8getxattrERK8object_tPKcRN4ceph6buffer4listE
librados.so.2:_ZN8librados9IoCtxImpl8rollbackERK8object_tPKc
librados.so.2:_ZN8librados9IoCtxImpl8setxattrERK8object_tPKcRN4ceph6buffer4listE
librados.so.2:_ZN8librados9IoCtxImpl8tmap_getERK8object_tRN4ceph6buffer4listE
librados.so.2:_ZN8librados9IoCtxImpl8tmap_putERK8object_tRN4ceph6buffer4listE
librados.so.2:_ZN8librados9IoCtxImpl9C_aio_Ack6finishEi
librados.so.2:_ZN8librados9IoCtxImpl9C_aio_AckC1EPNS_17AioCompletionImplE
librados.so.2:_ZN8librados9IoCtxImpl9C_aio_AckC2EPNS_17AioCompletionImplE
librados.so.2:_ZN8librados9IoCtxImpl9aio_stat2ERK8object_tPNS_17AioCompletionImplEPmP8timespec
librados.so.2:_ZN8librados9IoCtxImpl9aio_watchERK8object_tPNS_17AioCompletionImplEPmPNS_8WatchCtxEPNS_9WatchCtx2Eb
librados.so.2:_ZN8librados9IoCtxImpl9aio_watchERK8object_tPNS_17AioCompletionImplEPmPNS_8WatchCtxEPNS_9WatchCtx2Ejb
librados.so.2:_ZN8librados9IoCtxImpl9aio_writeERK8object_tPNS_17AioCompletionImplERKN4ceph6buffer4listEmm
librados.so.2:_ZN8librados9IoCtxImpl9cache_pinERK8object_t
librados.so.2:_ZN8librados9IoCtxImpl9getxattrsERK8object_tRSt3mapINSt7__cxx1112basic_stringIcSt11char_traitsIcESaIcEEEN4ceph6buffer4listESt4lessISA_ESaISt4pairIKSA_SD_EEE
librados.so.2:_ZN8librados9IoCtxImpl9list_seekEPN8Objecter11ListContextEj
librados.so.2:_ZN8librados9IoCtxImpl9snap_listEPSt6vectorImSaImEE
librados.so.2:_ZN8librados9IoCtxImpl9writesameERK8object_tRN4ceph6buffer4listEmm
librados.so.2:_ZN8librados9IoCtxImplC1EPNS_11RadosClientEP8Objecterl8snapid_t
librados.so.2:_ZN8librados9IoCtxImplC1Ev
librados.so.2:_ZN8librados9IoCtxImplC2EPNS_11RadosClientEP8Objecterl8snapid_t
librados.so.2:_ZN8librados9IoCtxImplC2Ev
librados.so.2:_ZN8librados9WatchCtx2D0Ev
librados.so.2:_ZN8librados9WatchCtx2D1Ev
librados.so.2:_ZN8librados9WatchCtx2D2Ev
librados.so.2:_ZN8libradoslsERSoRKNS_10ListObjectE
librados.so.2:_ZN8libradoslsERSoRKNS_14PlacementGroupE
librados.so.2:_ZNK4ceph6buffer13end_of_buffer4whatEv
librados.so.2:_ZNK4ceph6buffer15malformed_input4whatEv
librados.so.2:_ZNK4ceph6buffer3ptr10raw_lengthEv
librados.so.2:_ZNK4ceph6buffer3ptr13can_zero_copyEv
librados.so.2:_ZNK4ceph6buffer3ptr14at_buffer_tailEv
librados.so.2:_ZNK4ceph6buffer3ptr15zero_copy_to_fdEiPl
librados.so.2:_ZNK4ceph6buffer3ptr18unused_tail_lengthEv
librados.so.2:_ZNK4ceph6buffer3ptr3cmpERKS1_
librados.so.2:_ZNK4ceph6buffer3ptr5c_strEv
librados.so.2:_ZNK4ceph6buffer3ptr7is_zeroEv
librados.so.2:_ZNK4ceph6buffer3ptr8copy_outEjjPc
librados.so.2:_ZNK4ceph6buffer3ptr8raw_nrefEv
librados.so.2:_ZNK4ceph6buffer3ptr9end_c_strEv
librados.so.2:_ZNK4ceph6buffer3ptr9raw_c_strEv
librados.so.2:_ZNK4ceph6buffer3ptrixEj
librados.so.2:_ZNK4ceph6buffer4list10is_alignedEj
librados.so.2:_ZNK4ceph6buffer4list11prepare_iovEPSt6vectorI5iovecSaIS3_EE
librados.so.2:_ZNK4ceph6buffer4list12write_streamERSo
librados.so.2:_ZNK4ceph6buffer4list13can_zero_copyEv
librados.so.2:_ZNK4ceph6buffer4list13is_contiguousEv
librados.so.2:_ZNK4ceph6buffer4list14contents_equalERKS1_
librados.so.2:_ZNK4ceph6buffer4list15is_n_page_sizedEv
librados.so.2:_ZNK4ceph6buffer4list15is_page_alignedEv
librados.so.2:_ZNK4ceph6buffer4list16is_n_align_sizedEj
librados.so.2:_ZNK4ceph6buffer4list18is_provided_bufferEPKc
librados.so.2:_ZNK4ceph6buffer4list18write_fd_zero_copyEi
librados.so.2:_ZNK4ceph6buffer4list26is_aligned_size_and_memoryEjj
librados.so.2:_ZNK4ceph6buffer4list4copyEjjPc
librados.so.2:_ZNK4ceph6buffer4list4copyEjjRNSt7__cxx1112basic_stringIcSt11char_traitsIcESaIcEEE
librados.so.2:_ZNK4ceph6buffer4list4copyEjjRS1_
librados.so.2:_ZNK4ceph6buffer4list5writeEiiRSo
librados.so.2:_ZNK4ceph6buffer4list6crc32cEj
librados.so.2:_ZNK4ceph6buffer4list6to_strB5cxx11Ev
librados.so.2:_ZNK4ceph6buffer4list7hexdumpERSob
librados.so.2:_ZNK4ceph6buffer4list7is_zeroEv
librados.so.2:_ZNK4ceph6buffer4list8write_fdEi
librados.so.2:_ZNK4ceph6buffer4list8write_fdEim
librados.so.2:_ZNK4ceph6buffer4listixEj
librados.so.2:_ZNK4ceph6buffer5error4whatEv
librados.so.2:_ZNK4ceph6buffer9bad_alloc4whatEv
librados.so.2:_ZNK8librados10ListObject10get_nspaceB5cxx11Ev
librados.so.2:_ZNK8librados10ListObject11get_locatorB5cxx11Ev
librados.so.2:_ZNK8librados10ListObject7get_oidB5cxx11Ev
librados.so.2:_ZNK8librados14ObjectIterator20get_pg_hash_positionEv
librados.so.2:_ZNK8librados14ObjectIteratordeB5cxx11Ev
librados.so.2:_ZNK8librados14ObjectIteratoreqERKS0_
librados.so.2:_ZNK8librados14ObjectIteratorneERKS0_
librados.so.2:_ZNK8librados14ObjectIteratorptB5cxx11Ev
librados.so.2:_ZNK8librados15NObjectIterator20get_pg_hash_positionEv
librados.so.2:_ZNK8librados15NObjectIteratordeEv
librados.so.2:_ZNK8librados15NObjectIteratoreqERKS0_
librados.so.2:_ZNK8librados15NObjectIteratorneERKS0_
librados.so.2:_ZNK8librados15NObjectIteratorptEv
librados.so.2:_ZNK8librados19NObjectIteratorImpl20get_pg_hash_positionEv
librados.so.2:_ZNK8librados19NObjectIteratorImpldeEv
librados.so.2:_ZNK8librados19NObjectIteratorImpleqERKS0_
librados.so.2:_ZNK8librados19NObjectIteratorImplneERKS0_
librados.so.2:_ZNK8librados19NObjectIteratorImplptEv
librados.so.2:_ZNK8librados5IoCtx11objects_endEv
librados.so.2:_ZNK8librados5IoCtx12nobjects_endEv
librados.so.2:_ZNK8librados5IoCtx13get_pool_nameB5cxx11Ev
librados.so.2:_ZNK8librados5IoCtx15get_instance_idEv
librados.so.2:_ZNK8librados5Rados14conf_parse_envEPKc
librados.so.2:_ZNK8librados5Rados14conf_read_fileEPKc
librados.so.2:_ZNK8librados5Rados15conf_parse_argvEiPPKc
librados.so.2:_ZNK8librados5Rados25conf_parse_argv_remainderEiPPKcS3_
librados.so.2:rados_aio_append
librados.so.2:rados_aio_cancel
librados.so.2:rados_aio_create_completion
librados.so.2:rados_aio_exec
librados.so.2:rados_aio_flush
librados.so.2:rados_aio_flush_async
librados.so.2:rados_aio_get_return_value
librados.so.2:rados_aio_get_version
librados.so.2:rados_aio_getxattr
librados.so.2:rados_aio_getxattrs
librados.so.2:rados_aio_is_complete
librados.so.2:rados_aio_is_complete_and_cb
librados.so.2:rados_aio_is_safe
librados.so.2:rados_aio_is_safe_and_cb
librados.so.2:rados_aio_notify
librados.so.2:rados_aio_read
librados.so.2:rados_aio_read_op_operate
librados.so.2:rados_aio_release
librados.so.2:rados_aio_remove
librados.so.2:rados_aio_rmxattr
librados.so.2:rados_aio_setxattr
librados.so.2:rados_aio_stat
librados.so.2:rados_aio_unlock
librados.so.2:rados_aio_unwatch
librados.so.2:rados_aio_wait_for_complete
librados.so.2:rados_aio_wait_for_complete_and_cb
librados.so.2:rados_aio_wait_for_safe
librados.so.2:rados_aio_wait_for_safe_and_cb
librados.so.2:rados_aio_watch
librados.so.2:rados_aio_watch2
librados.so.2:rados_aio_watch_flush
librados.so.2:rados_aio_write
librados.so.2:rados_aio_write_full
librados.so.2:rados_aio_write_op_operate
librados.so.2:rados_aio_writesame
librados.so.2:rados_append
librados.so.2:rados_blacklist_add
librados.so.2:rados_break_lock
librados.so.2:rados_buffer_free
librados.so.2:rados_cache_pin
librados.so.2:rados_cache_unpin
librados.so.2:rados_cct
librados.so.2:rados_clone_range
librados.so.2:rados_cluster_fsid
librados.so.2:rados_cluster_stat
librados.so.2:rados_conf_get
librados.so.2:rados_conf_parse_argv
librados.so.2:rados_conf_parse_argv_remainder
librados.so.2:rados_conf_parse_env
librados.so.2:rados_conf_read_file
librados.so.2:rados_conf_set
librados.so.2:rados_connect
librados.so.2:rados_create
librados.so.2:rados_create2
librados.so.2:rados_create_read_op
librados.so.2:rados_create_with_context
librados.so.2:rados_create_write_op
librados.so.2:rados_exec
librados.so.2:rados_get_instance_id
librados.so.2:rados_get_last_version
librados.so.2:rados_getxattr
librados.so.2:rados_getxattrs
librados.so.2:rados_getxattrs_end
librados.so.2:rados_getxattrs_next
librados.so.2:rados_inconsistent_pg_list
librados.so.2:rados_ioctx_cct
librados.so.2:rados_ioctx_create
librados.so.2:rados_ioctx_create2
librados.so.2:rados_ioctx_destroy
librados.so.2:rados_ioctx_get_cluster
librados.so.2:rados_ioctx_get_id
librados.so.2:rados_ioctx_get_pool_name
librados.so.2:rados_ioctx_locator_set_key
librados.so.2:rados_ioctx_pool_get_auid
librados.so.2:rados_ioctx_pool_required_alignment
librados.so.2:rados_ioctx_pool_required_alignment2
librados.so.2:rados_ioctx_pool_requires_alignment
librados.so.2:rados_ioctx_pool_requires_alignment2
librados.so.2:rados_ioctx_pool_set_auid
librados.so.2:rados_ioctx_pool_stat
librados.so.2:rados_ioctx_selfmanaged_snap_create
librados.so.2:rados_ioctx_selfmanaged_snap_remove
librados.so.2:rados_ioctx_selfmanaged_snap_rollback
librados.so.2:rados_ioctx_selfmanaged_snap_set_write_ctx
librados.so.2:rados_ioctx_set_namespace
librados.so.2:rados_ioctx_snap_create
librados.so.2:rados_ioctx_snap_get_name
librados.so.2:rados_ioctx_snap_get_stamp
librados.so.2:rados_ioctx_snap_list
librados.so.2:rados_ioctx_snap_lookup
librados.so.2:rados_ioctx_snap_remove
librados.so.2:rados_ioctx_snap_rollback
librados.so.2:rados_ioctx_snap_set_read
librados.so.2:rados_list_lockers
librados.so.2:rados_lock_exclusive
librados.so.2:rados_lock_shared
librados.so.2:rados_mgr_command
librados.so.2:rados_mon_command
librados.so.2:rados_mon_command_target
librados.so.2:rados_monitor_log
librados.so.2:rados_nobjects_list_close
librados.so.2:rados_nobjects_list_get_pg_hash_position
librados.so.2:rados_nobjects_list_next
librados.so.2:rados_nobjects_list_open
librados.so.2:rados_nobjects_list_seek
librados.so.2:rados_notify
librados.so.2:rados_notify2
librados.so.2:rados_notify_ack
librados.so.2:rados_object_list
librados.so.2:rados_object_list_begin
librados.so.2:rados_object_list_cursor_cmp
librados.so.2:rados_object_list_cursor_free
librados.so.2:rados_object_list_end
librados.so.2:rados_object_list_free
librados.so.2:rados_object_list_is_end
librados.so.2:rados_object_list_slice
librados.so.2:rados_objects_list_close
librados.so.2:rados_objects_list_get_pg_hash_position
librados.so.2:rados_objects_list_next
librados.so.2:rados_objects_list_open
librados.so.2:rados_objects_list_seek
librados.so.2:rados_omap_get_end
librados.so.2:rados_omap_get_next
librados.so.2:rados_osd_command
librados.so.2:rados_pg_command
librados.so.2:rados_ping_monitor
librados.so.2:rados_pool_create
librados.so.2:rados_pool_create_with_all
librados.so.2:rados_pool_create_with_auid
librados.so.2:rados_pool_create_with_crush_rule
librados.so.2:rados_pool_delete
librados.so.2:rados_pool_get_base_tier
librados.so.2:rados_pool_list
librados.so.2:rados_pool_lookup
librados.so.2:rados_pool_reverse_lookup
librados.so.2:rados_read
librados.so.2:rados_read_op_assert_exists
librados.so.2:rados_read_op_assert_version
librados.so.2:rados_read_op_cmpxattr
librados.so.2:rados_read_op_exec
librados.so.2:rados_read_op_exec_user_buf
librados.so.2:rados_read_op_getxattrs
librados.so.2:rados_read_op_omap_cmp
librados.so.2:rados_read_op_omap_get_keys
librados.so.2:rados_read_op_omap_get_vals
librados.so.2:rados_read_op_omap_get_vals_by_keys
librados.so.2:rados_read_op_operate
librados.so.2:rados_read_op_read
librados.so.2:rados_read_op_set_flags
librados.so.2:rados_read_op_stat
librados.so.2:rados_release_read_op
librados.so.2:rados_release_write_op
librados.so.2:rados_remove
librados.so.2:rados_rmxattr
librados.so.2:rados_rollback
librados.so.2:rados_set_alloc_hint
librados.so.2:rados_set_alloc_hint2
librados.so.2:rados_setxattr
librados.so.2:rados_shutdown
librados.so.2:rados_stat
librados.so.2:rados_tmap_get
librados.so.2:rados_tmap_put
librados.so.2:rados_tmap_to_omap
librados.so.2:rados_tmap_update
librados.so.2:rados_trunc
librados.so.2:rados_unlock
librados.so.2:rados_unwatch
librados.so.2:rados_unwatch2
librados.so.2:rados_version
librados.so.2:rados_wait_for_latest_osdmap
librados.so.2:rados_watch
librados.so.2:rados_watch2
librados.so.2:rados_watch3
librados.so.2:rados_watch_check
librados.so.2:rados_watch_flush
librados.so.2:rados_write
librados.so.2:rados_write_full
librados.so.2:rados_write_op_append
librados.so.2:rados_write_op_assert_exists
librados.so.2:rados_write_op_assert_version
librados.so.2:rados_write_op_cmpxattr
librados.so.2:rados_write_op_create
librados.so.2:rados_write_op_exec
librados.so.2:rados_write_op_omap_clear
librados.so.2:rados_write_op_omap_cmp
librados.so.2:rados_write_op_omap_rm_keys
librados.so.2:rados_write_op_omap_set
librados.so.2:rados_write_op_operate
librados.so.2:rados_write_op_operate2
librados.so.2:rados_write_op_remove
librados.so.2:rados_write_op_rmxattr
librados.so.2:rados_write_op_set_alloc_hint
librados.so.2:rados_write_op_set_alloc_hint2
librados.so.2:rados_write_op_set_flags
librados.so.2:rados_write_op_setxattr
librados.so.2:rados_write_op_truncate
librados.so.2:rados_write_op_write
librados.so.2:rados_write_op_write_full
librados.so.2:rados_write_op_writesame
librados.so.2:rados_write_op_zero
librados.so.2:rados_writesame
libradosstriper.so.1:_Z10env_to_vecRSt6vectorIPKcSaIS1_EES1_
libradosstriper.so.1:_Z10get_randommm
libradosstriper.so.1:_Z11argv_to_veciPPKcRSt6vectorIS0_SaIS0_EE
libradosstriper.so.1:_Z11ceph_gettidv
libradosstriper.so.1:_Z11cmdmap_dumpRKSt3mapINSt7__cxx1112basic_stringIcSt11char_traitsIcESaIcEEEN5boost7variantIS5_JbldSt6vectorIS5_SaIS5_EES8_IlSaIlEEEEESt4lessIS5_ESaISt4pairIKS5_SD_EEEPN4ceph9FormatterE
libradosstriper.so.1:_Z11cmp_bitwiseRK10ghobject_tS1_
libradosstriper.so.1:_Z11cmp_bitwiseRK9hobject_tS1_
libradosstriper.so.1:_Z11get_str_mapRKNSt7__cxx1112basic_stringIcSt11char_traitsIcESaIcEEEPSt3mapIS4_S4_St4lessIS4_ESaISt4pairIS5_S4_EEEPKc
libradosstriper.so.1:_Z11get_str_setRKNSt7__cxx1112basic_stringIcSt11char_traitsIcESaIcEEEPKcRSt3setIS4_St4lessIS4_ESaIS4_EE
libradosstriper.so.1:_Z11get_str_setRKNSt7__cxx1112basic_stringIcSt11char_traitsIcESaIcEEERSt3setIS4_St4lessIS4_ESaIS4_EE
libradosstriper.so.1:_Z11get_str_vecRKNSt7__cxx1112basic_stringIcSt11char_traitsIcESaIcEEEPKcRSt6vectorIS4_SaIS4_EE
libradosstriper.so.1:_Z11get_str_vecRKNSt7__cxx1112basic_stringIcSt11char_traitsIcESaIcEEERSt6vectorIS4_SaIS4_EE
libradosstriper.so.1:_Z11vec_to_argvPKcRSt6vectorIS0_SaIS0_EEPiPPS0_
libradosstriper.so.1:_Z12cpp_strerrorB5cxx11i
libradosstriper.so.1:_Z12dump_bit_strmPN4ceph9FormatterESt8functionIFPKcmEEb
libradosstriper.so.1:_Z12get_str_listRKNSt7__cxx1112basic_stringIcSt11char_traitsIcESaIcEEEPKcRNS_4listIS4_SaIS4_EEE
libradosstriper.so.1:_Z12get_str_listRKNSt7__cxx1112basic_stringIcSt11char_traitsIcESaIcEEERNS_4listIS4_SaIS4_EEE
libradosstriper.so.1:_Z13block_signalsPKiP10__sigset_t
libradosstriper.so.1:_Z13ceph_str_hashiPKcj
libradosstriper.so.1:_Z13print_bit_strmRSoSt8functionIFPKcmEEb
libradosstriper.so.1:_Z13strict_strtodPKcPNSt7__cxx1112basic_stringIcSt11char_traitsIcESaIcEEE
libradosstriper.so.1:_Z13strict_strtofPKcPNSt7__cxx1112basic_stringIcSt11char_traitsIcESaIcEEE
libradosstriper.so.1:_Z13strict_strtolPKciPNSt7__cxx1112basic_stringIcSt11char_traitsIcESaIcEEE
libradosstriper.so.1:_Z13string_to_vecRSt6vectorINSt7__cxx1112basic_stringIcSt11char_traitsIcESaIcEEESaIS5_EES5_
libradosstriper.so.1:_Z14ceph_clock_nowP11CephContext
libradosstriper.so.1:_Z14cmp_nibblewiseRK10ghobject_tS1_
libradosstriper.so.1:_Z14cmp_nibblewiseRK9hobject_tS1_
libradosstriper.so.1:_Z14common_preinitRK18CephInitParameters18code_environment_tiPKc
libradosstriper.so.1:_Z14decode_messageP11CephContextiR15ceph_msg_headerR15ceph_msg_footerRN4ceph6buffer4listES8_S8_
libradosstriper.so.1:_Z14decode_messageP11CephContextiRN4ceph6buffer4list8iteratorE
libradosstriper.so.1:_Z14dout_emergencyPKc
libradosstriper.so.1:_Z14dout_emergencyRKNSt7__cxx1112basic_stringIcSt11char_traitsIcESaIcEEE
libradosstriper.so.1:_Z14encode_messageP7MessagemRN4ceph6buffer4listE
libradosstriper.so.1:_Z14handle_bad_getP11CephContextNSt7__cxx1112basic_stringIcSt11char_traitsIcESaIcEEEPKc
libradosstriper.so.1:_Z14lockdep_lockedPKcib
libradosstriper.so.1:_Z14restore_sigsetPK10__sigset_t
libradosstriper.so.1:_Z14split_dashdashRKSt6vectorIPKcSaIS1_EERS3_S6_
libradosstriper.so.1:_Z14strict_strtollPKciPNSt7__cxx1112basic_stringIcSt11char_traitsIcESaIcEEE
libradosstriper.so.1:_Z15ceph_ioprio_setiii
libradosstriper.so.1:_Z15get_str_map_keyRKSt3mapINSt7__cxx1112basic_stringIcSt11char_traitsIcESaIcEEES5_St4lessIS5_ESaISt4pairIKS5_S5_EEERS9_PS9_
libradosstriper.so.1:_Z15pg_state_stringB5cxx11i
libradosstriper.so.1:_Z15pg_string_stateRKNSt7__cxx1112basic_stringIcSt11char_traitsIcESaIcEEE
libradosstriper.so.1:_Z16ceph_cap_op_namei
libradosstriper.so.1:_Z16ceph_mds_op_namei
libradosstriper.so.1:_Z16ceph_osd_op_namei
libradosstriper.so.1:_Z16cmdmap_from_jsonSt6vectorINSt7__cxx1112basic_stringIcSt11char_traitsIcESaIcEEESaIS5_EEPSt3mapIS5_N5boost7variantIS5_JbldS7_S_IlSaIlEEEEESt4lessIS5_ESaISt4pairIKS5_SD_EEERNS0_18basic_stringstreamIcS3_S4_EE
libradosstriper.so.1:_Z16dump_cmd_to_jsonPN4ceph9FormatterERKNSt7__cxx1112basic_stringIcSt11char_traitsIcESaIcEEE
libradosstriper.so.1:_Z16get_json_str_mapRKNSt7__cxx1112basic_stringIcSt11char_traitsIcESaIcEEERSoPSt3mapIS4_S4_St4lessIS4_ESaISt4pairIS5_S4_EEEb
libradosstriper.so.1:_Z16get_random_bytesPci
libradosstriper.so.1:_Z16lockdep_registerPKc
libradosstriper.so.1:_Z16pg_vector_stringB5cxx11RKSt6vectorIiSaIiEE
libradosstriper.so.1:_Z16strict_sistrtollPKcPNSt7__cxx1112basic_stringIcSt11char_traitsIcESaIcEEE
libradosstriper.so.1:_Z17ceph_choose_crc32v
libradosstriper.so.1:_Z17ceph_pool_op_namei
libradosstriper.so.1:_Z17ceph_snap_op_namei
libradosstriper.so.1:_Z17get_str_map_valueRKSt3mapINSt7__cxx1112basic_stringIcSt11char_traitsIcESaIcEEES5_St4lessIS5_ESaISt4pairIKS5_S5_EEERS9_PS9_
libradosstriper.so.1:_Z17lockdep_will_lockPKcib
libradosstriper.so.1:_Z17parse_ip_port_vecPKcRSt6vectorI13entity_addr_tSaIS2_EE
libradosstriper.so.1:_Z18ceph_argparse_flagRSt6vectorIPKcSaIS1_EERN9__gnu_cxx17__normal_iteratorIPS1_S3_EEz
libradosstriper.so.1:_Z18ceph_clock_gettimeP11CephContext
libradosstriper.so.1:_Z18ceph_lease_op_namei
libradosstriper.so.1:_Z18ceph_osd_flag_namej
libradosstriper.so.1:_Z18ceph_str_hash_namei
libradosstriper.so.1:_Z18cmddesc_get_prefixRKNSt7__cxx1112basic_stringIcSt11char_traitsIcESaIcEEE
libradosstriper.so.1:_Z18common_init_finishP11CephContext
libradosstriper.so.1:_Z18git_version_to_strv
libradosstriper.so.1:_Z18lockdep_dump_locksv
libradosstriper.so.1:_Z18lockdep_unregisteri
libradosstriper.so.1:_Z18signal_mask_to_strB5cxx11v
libradosstriper.so.1:_Z19ceph_arg_value_typePKcPbS1_
libradosstriper.so.1:_Z19ceph_mds_state_namei
libradosstriper.so.1:_Z19ceph_osd_state_namei
libradosstriper.so.1:_Z19ceph_str_hash_linuxPKcj
libradosstriper.so.1:_Z19ceph_str_hash_validi
libradosstriper.so.1:_Z19ceph_version_to_strv
libradosstriper.so.1:_Z19cephx_decode_ticketP11CephContextP8KeyStorejR15CephXTicketBlobR22CephXServiceTicketInfo
libradosstriper.so.1:_Z19clog_type_to_stringB5cxx119clog_type
libradosstriper.so.1:_Z19lockdep_get_free_idv
libradosstriper.so.1:_Z19lockdep_will_unlockPKci
libradosstriper.so.1:_Z19string_to_clog_typeRKNSt7__cxx1112basic_stringIcSt11char_traitsIcESaIcEEE
libradosstriper.so.1:_Z19unblock_all_signalsP10__sigset_t
libradosstriper.so.1:_Z20ceph_osd_flag_stringB5cxx11j
libradosstriper.so.1:_Z20ceph_session_op_namei
libradosstriper.so.1:_Z20dump_cmddesc_to_jsonPN4ceph9FormatterERKNSt7__cxx1112basic_stringIcSt11char_traitsIcESaIcEEES9_S9_S9_S9_S9_m
libradosstriper.so.1:_Z20generic_client_usagev
libradosstriper.so.1:_Z20generic_server_usagev
libradosstriper.so.1:_Z20get_process_name_cppB5cxx11v
libradosstriper.so.1:_Z20get_rand_socket_pathv
libradosstriper.so.1:_Z21ceph_argparse_withargRSt6vectorIPKcSaIS1_EERN9__gnu_cxx17__normal_iteratorIPS1_S3_EEPNSt7__cxx1112basic_stringIcSt11char_traitsIcESaIcEEERSoz
libradosstriper.so.1:_Z21ceph_argparse_withargRSt6vectorIPKcSaIS1_EERN9__gnu_cxx17__normal_iteratorIPS1_S3_EEPNSt7__cxx1112basic_stringIcSt11char_traitsIcESaIcEEEz
libradosstriper.so.1:_Z21ceph_entity_type_namei
libradosstriper.so.1:_Z21ceph_osd_op_flag_namej
libradosstriper.so.1:_Z21ceph_watch_event_namei
libradosstriper.so.1:_Z21cmd_vartype_stringifyRKN5boost7variantINSt7__cxx1112basic_stringIcSt11char_traitsIcESaIcEEEJbldSt6vectorIS6_SaIS6_EES7_IlSaIlEEEEE
libradosstriper.so.1:_Z21intrusive_ptr_add_refP16RefCountedObject
libradosstriper.so.1:_Z21intrusive_ptr_releaseP16RefCountedObject
libradosstriper.so.1:_Z21pretty_version_to_strB5cxx11v
libradosstriper.so.1:_Z22ceph_osd_watch_op_namei
libradosstriper.so.1:_Z22ceph_str_hash_rjenkinsPKcj
libradosstriper.so.1:_Z22string_to_syslog_levelNSt7__cxx1112basic_stringIcSt11char_traitsIcESaIcEEE
libradosstriper.so.1:_Z23ceph_osd_op_flag_stringB5cxx11j
libradosstriper.so.1:_Z23cephx_verify_authorizerP11CephContextP8KeyStoreRN4ceph6buffer4list8iteratorER22CephXServiceTicketInfoRS5_
libradosstriper.so.1:_Z23get_auth_client_handlerP11CephContextiP15RotatingKeyRing
libradosstriper.so.1:_Z23get_conf_str_map_helperRKNSt7__cxx1112basic_stringIcSt11char_traitsIcESaIcEEERNS_19basic_ostringstreamIcS2_S3_EEPSt3mapIS4_S4_St4lessIS4_ESaISt4pairIS5_S4_EEES6_
libradosstriper.so.1:_Z23str_to_ceph_entity_typePKc
libradosstriper.so.1:_Z24ceph_argparse_early_argsRSt6vectorIPKcSaIS1_EEjiPNSt7__cxx1112basic_stringIcSt11char_traitsIcESaIcEEESB_
libradosstriper.so.1:_Z24ceph_resolve_file_searchRKNSt7__cxx1112basic_stringIcSt11char_traitsIcESaIcEEERS4_
libradosstriper.so.1:_Z24get_auth_session_handlerP11CephContexti9CryptoKeym
libradosstriper.so.1:_Z24parse_log_client_optionsP11CephContextRSt3mapINSt7__cxx1112basic_stringIcSt11char_traitsIcESaIcEEES7_St4lessIS7_ESaISt4pairIKS7_S7_EEESF_SF_SF_SF_SF_SF_R6uuid_dRS7_
libradosstriper.so.1:_Z25ceph_argparse_binary_flagRSt6vectorIPKcSaIS1_EERN9__gnu_cxx17__normal_iteratorIPS1_S3_EEPiPSoz
libradosstriper.so.1:_Z25ceph_argparse_double_dashRSt6vectorIPKcSaIS1_EERN9__gnu_cxx17__normal_iteratorIPS1_S3_EE
libradosstriper.so.1:_Z25clog_type_to_syslog_level9clog_type
libradosstriper.so.1:_Z25dump_cmd_and_help_to_jsonPN4ceph9FormatterERKNSt7__cxx1112basic_stringIcSt11char_traitsIcESaIcEEES9_S9_
libradosstriper.so.1:_Z25get_mdsmap_compat_set_allv
libradosstriper.so.1:_Z25string_to_syslog_facilityNSt7__cxx1112basic_stringIcSt11char_traitsIcESaIcEEE
libradosstriper.so.1:_Z26get_mdsmap_compat_set_basev
libradosstriper.so.1:_Z27ceph_ioprio_string_to_classRKNSt7__cxx1112basic_stringIcSt11char_traitsIcESaIcEEE
libradosstriper.so.1:_Z27complain_about_parse_errorsP11CephContextPSt5dequeINSt7__cxx1112basic_stringIcSt11char_traitsIcESaIcEEESaIS7_EE
libradosstriper.so.1:_Z29ceph_osd_alloc_hint_flag_namei
libradosstriper.so.1:_Z29get_mdsmap_compat_set_defaultv
libradosstriper.so.1:_Z29lockdep_register_ceph_contextP11CephContext
libradosstriper.so.1:_Z31ceph_osd_alloc_hint_flag_stringB5cxx11j
libradosstriper.so.1:_Z31cephx_build_service_ticket_blobP11CephContextR20CephXSessionAuthInfoR15CephXTicketBlob
libradosstriper.so.1:_Z31lockdep_unregister_ceph_contextP11CephContext
libradosstriper.so.1:_Z32cephx_build_service_ticket_replyP11CephContextR9CryptoKeySt6vectorI20CephXSessionAuthInfoSaIS4_EEbS2_RN4ceph6buffer4listE
libradosstriper.so.1:_Z34cephx_calc_client_server_challengeP11CephContextR9CryptoKeymmPmRNSt7__cxx1112basic_stringIcSt11char_traitsIcESaIcEEE
libradosstriper.so.1:_Z4dumpRK15ceph_dir_layoutPN4ceph9FormatterE
libradosstriper.so.1:_Z4dumpRK16ceph_file_layoutPN4ceph9FormatterE
libradosstriper.so.1:_Z4trimRKNSt7__cxx1112basic_stringIcSt11char_traitsIcESaIcEEE
libradosstriper.so.1:_Z7hex2strPKciPci
libradosstriper.so.1:_Z7hexdumpNSt7__cxx1112basic_stringIcSt11char_traitsIcESaIcEEEPKci
libradosstriper.so.1:_Z8validatePN11md_config_t29option_rbd_default_features_tEPNSt7__cxx1112basic_stringIcSt11char_traitsIcESaIcEEES8_
libradosstriper.so.1:_ZN10ECSubWrite23generate_test_instancesERNSt7__cxx114listIPS_SaIS2_EEE
libradosstriper.so.1:_ZN10ECSubWrite6decodeERN4ceph6buffer4list8iteratorE
libradosstriper.so.1:_ZN10EntityName22get_valid_types_as_strB5cxx11Ev
libradosstriper.so.1:_ZN10EntityName3setERKNSt7__cxx1112basic_stringIcSt11char_traitsIcESaIcEEES7_
libradosstriper.so.1:_ZN10EntityName3setEjRKNSt7__cxx1112basic_stringIcSt11char_traitsIcESaIcEEE
libradosstriper.so.1:_ZN10EntityName6set_idERKNSt7__cxx1112basic_stringIcSt11char_traitsIcESaIcEEE
libradosstriper.so.1:_ZN10EntityName8from_strERKNSt7__cxx1112basic_stringIcSt11char_traitsIcESaIcEEE
libradosstriper.so.1:_ZN10EntityName8set_nameE13entity_name_t
libradosstriper.so.1:_ZN10EntityName8set_typeEPKc
libradosstriper.so.1:_ZN10EntityName8set_typeEj
libradosstriper.so.1:_ZN10EntityNameC1Ev
libradosstriper.so.1:_ZN10EntityNameC2Ev
libradosstriper.so.1:_ZN10Filesystem6decodeERN4ceph6buffer4list8iteratorE
libradosstriper.so.1:_ZN10LogChannel13update_configERSt3mapINSt7__cxx1112basic_stringIcSt11char_traitsIcESaIcEEES6_St4lessIS6_ESaISt4pairIKS6_S6_EEESE_SE_SE_SE_SE_SE_R6uuid_dRS6_
libradosstriper.so.1:_ZN10LogChannel6do_logE9clog_typeRKNSt7__cxx1112basic_stringIcSt11char_traitsIcESaIcEEE
libradosstriper.so.1:_ZN10LogChannel6do_logE9clog_typeRNSt7__cxx1118basic_stringstreamIcSt11char_traitsIcESaIcEEE
libradosstriper.so.1:_ZN10LogChannelC1EP11CephContextP9LogClientRKNSt7__cxx1112basic_stringIcSt11char_traitsIcESaIcEEE
libradosstriper.so.1:_ZN10LogChannelC1EP11CephContextP9LogClientRKNSt7__cxx1112basic_stringIcSt11char_traitsIcESaIcEEESB_SB_
libradosstriper.so.1:_ZN10LogChannelC2EP11CephContextP9LogClientRKNSt7__cxx1112basic_stringIcSt11char_traitsIcESaIcEEE
libradosstriper.so.1:_ZN10LogChannelC2EP11CephContextP9LogClientRKNSt7__cxx1112basic_stringIcSt11char_traitsIcESaIcEEESB_SB_
libradosstriper.so.1:_ZN10LogSummary23generate_test_instancesERNSt7__cxx114listIPS_SaIS2_EEE
libradosstriper.so.1:_ZN10LogSummary6decodeERN4ceph6buffer4list8iteratorE
libradosstriper.so.1:_ZN10ghobject_t23generate_test_instancesERNSt7__cxx114listIPS_SaIS2_EEE
libradosstriper.so.1:_ZN10ghobject_t5parseERKNSt7__cxx1112basic_stringIcSt11char_traitsIcESaIcEEE
libradosstriper.so.1:_ZN10ghobject_t6decodeERN11json_spirit10Value_implINS0_13Config_vectorINSt7__cxx1112basic_stringIcSt11char_traitsIcESaIcEEEEEEE
libradosstriper.so.1:_ZN10ghobject_t6decodeERN4ceph6buffer4list8iteratorE
libradosstriper.so.1:_ZN10mds_load_t23generate_test_instancesERNSt7__cxx114listIPS_SaIS2_EEE
libradosstriper.so.1:_ZN10mds_load_t6decodeERK7utime_tRN4ceph6buffer4list8iteratorE
libradosstriper.so.1:_ZN10mon_info_t6decodeERN4ceph6buffer4list8iteratorE
libradosstriper.so.1:_ZN10osd_info_t23generate_test_instancesERNSt7__cxx114listIPS_SaIS2_EEE
libradosstriper.so.1:_ZN10osd_info_t6decodeERN4ceph6buffer4list8iteratorE
libradosstriper.so.1:_ZN10osd_stat_t23generate_test_instancesERNSt7__cxx114listIPS_SaIS2_EEE
libradosstriper.so.1:_ZN10osd_stat_t6decodeERN4ceph6buffer4list8iteratorE
libradosstriper.so.1:_ZN10pg_query_t23generate_test_instancesERNSt7__cxx114listIPS_SaIS2_EEE
libradosstriper.so.1:_ZN10pg_query_t6decodeERN4ceph6buffer4list8iteratorE
libradosstriper.so.1:_ZN10pg_shard_t6decodeERN4ceph6buffer4list8iteratorE
libradosstriper.so.1:_ZN11AdminSocket15bind_and_listenERKNSt7__cxx1112basic_stringIcSt11char_traitsIcESaIcEEEPi
libradosstriper.so.1:_ZN11AdminSocket16register_commandENSt7__cxx1112basic_stringIcSt11char_traitsIcESaIcEEES5_P15AdminSocketHookS5_
libradosstriper.so.1:_ZN11AdminSocket18unregister_commandENSt7__cxx1112basic_stringIcSt11char_traitsIcESaIcEEE
libradosstriper.so.1:_ZN11AdminSocket20create_shutdown_pipeB5cxx11EPiS0_
libradosstriper.so.1:_ZN11AdminSocket21destroy_shutdown_pipeB5cxx11Ev
libradosstriper.so.1:_ZN11AdminSocket4initERKNSt7__cxx1112basic_stringIcSt11char_traitsIcESaIcEEE
libradosstriper.so.1:_ZN11AdminSocket5chownEjj
libradosstriper.so.1:_ZN11AdminSocket5entryEv
libradosstriper.so.1:_ZN11AdminSocket8shutdownEv
libradosstriper.so.1:_ZN11AdminSocket9do_acceptEv
libradosstriper.so.1:_ZN11AdminSocketC1EP11CephContext
libradosstriper.so.1:_ZN11AdminSocketC2EP11CephContext
libradosstriper.so.1:_ZN11AdminSocketD0Ev
libradosstriper.so.1:_ZN11AdminSocketD1Ev
libradosstriper.so.1:_ZN11AdminSocketD2Ev
libradosstriper.so.1:_ZN11CephContext10do_commandENSt7__cxx1112basic_stringIcSt11char_traitsIcESaIcEEERSt3mapIS5_N5boost7variantIS5_JbldSt6vectorIS5_SaIS5_EES9_IlSaIlEEEEESt4lessIS5_ESaISt4pairIKS5_SE_EEES5_PN4ceph6buffer4listE
libradosstriper.so.1:_ZN11CephContext11init_cryptoEv
libradosstriper.so.1:_ZN11CephContext11reopen_logsEv
libradosstriper.so.1:_ZN11CephContext14set_init_flagsEi
libradosstriper.so.1:_ZN11CephContext16get_admin_socketEv
libradosstriper.so.1:_ZN11CephContext18get_crypto_handlerEi
libradosstriper.so.1:_ZN11CephContext19enable_perf_counterEv
libradosstriper.so.1:_ZN11CephContext19join_service_threadEv
libradosstriper.so.1:_ZN11CephContext19refresh_perf_valuesEv
libradosstriper.so.1:_ZN11CephContext20disable_perf_counterEv
libradosstriper.so.1:_ZN11CephContext20start_service_threadEv
libradosstriper.so.1:_ZN11CephContext27get_perfcounters_collectionEv
libradosstriper.so.1:_ZN11CephContext34check_experimental_feature_enabledERKNSt7__cxx1112basic_stringIcSt11char_traitsIcESaIcEEE
libradosstriper.so.1:_ZN11CephContext34check_experimental_feature_enabledERKNSt7__cxx1112basic_stringIcSt11char_traitsIcESaIcEEEPSo
libradosstriper.so.1:_ZN11CephContext3putEv
libradosstriper.so.1:_ZN11CephContextC1Eji
libradosstriper.so.1:_ZN11CephContextC2Eji
libradosstriper.so.1:_ZN11CephContextD1Ev
libradosstriper.so.1:_ZN11CephContextD2Ev
libradosstriper.so.1:_ZN11EpollDriver10event_waitERSt6vectorI14FiredFileEventSaIS1_EEP7timeval
libradosstriper.so.1:_ZN11EpollDriver13resize_eventsEi
libradosstriper.so.1:_ZN11EpollDriver4initEP11EventCenteri
libradosstriper.so.1:_ZN11EpollDriver9add_eventEiii
libradosstriper.so.1:_ZN11EpollDriver9del_eventEiii
libradosstriper.so.1:_ZN11EventCenter13_event_prefixEPSo
libradosstriper.so.1:_ZN11EventCenter14process_eventsEi
libradosstriper.so.1:_ZN11EventCenter17create_file_eventEiiP13EventCallback
libradosstriper.so.1:_ZN11EventCenter17create_time_eventEmP13EventCallback
libradosstriper.so.1:_ZN11EventCenter17delete_file_eventEii
libradosstriper.so.1:_ZN11EventCenter17delete_time_eventEm
libradosstriper.so.1:_ZN11EventCenter19process_time_eventsEv
libradosstriper.so.1:_ZN11EventCenter23dispatch_event_externalEP13EventCallback
libradosstriper.so.1:_ZN11EventCenter4initEij
libradosstriper.so.1:_ZN11EventCenter6PollerC1EPS_RKNSt7__cxx1112basic_stringIcSt11char_traitsIcESaIcEEE
libradosstriper.so.1:_ZN11EventCenter6PollerC2EPS_RKNSt7__cxx1112basic_stringIcSt11char_traitsIcESaIcEEE
libradosstriper.so.1:_ZN11EventCenter6PollerD0Ev
libradosstriper.so.1:_ZN11EventCenter6PollerD1Ev
libradosstriper.so.1:_ZN11EventCenter6PollerD2Ev
libradosstriper.so.1:_ZN11EventCenter6wakeupEv
libradosstriper.so.1:_ZN11EventCenter9set_ownerEv
libradosstriper.so.1:_ZN11EventCenterD1Ev
libradosstriper.so.1:_ZN11EventCenterD2Ev
libradosstriper.so.1:_ZN11LogEntryKey23generate_test_instancesERNSt7__cxx114listIPS_SaIS2_EEE
libradosstriper.so.1:_ZN11LogEntryKey6decodeERN4ceph6buffer4list8iteratorE
libradosstriper.so.1:_ZN11PosixWorker10initializeEv
libradosstriper.so.1:_ZN11PosixWorker6listenER13entity_addr_tRK13SocketOptionsP12ServerSocket
libradosstriper.so.1:_ZN11PosixWorker7connectERK13entity_addr_tRK13SocketOptionsP15ConnectedSocket
libradosstriper.so.1:_ZN11PushReplyOp23generate_test_instancesERNSt7__cxx114listIPS_SaIS2_EEE
libradosstriper.so.1:_ZN11PushReplyOp6decodeERN4ceph6buffer4list8iteratorE
libradosstriper.so.1:_ZN11SnapContext23generate_test_instancesERNSt7__cxx114listIPS_SaIS2_EEE
libradosstriper.so.1:_ZN11frag_info_t23generate_test_instancesERNSt7__cxx114listIPS_SaIS2_EEE
libradosstriper.so.1:_ZN11frag_info_t6decodeERN4ceph6buffer4list8iteratorE
libradosstriper.so.1:_ZN11json_spirit13read_or_throwERKNSt7__cxx1112basic_stringIcSt11char_traitsIcESaIcEEERNS_10Value_implINS_10Config_mapIS5_EEEE
libradosstriper.so.1:_ZN11json_spirit13read_or_throwERKNSt7__cxx1112basic_stringIcSt11char_traitsIcESaIcEEERNS_10Value_implINS_13Config_vectorIS5_EEEE
libradosstriper.so.1:_ZN11json_spirit13read_or_throwERN9__gnu_cxx17__normal_iteratorIPKcNSt7__cxx1112basic_stringIcSt11char_traitsIcESaIcEEEEESA_RNS_10Value_implINS_10Config_mapIS9_EEEE
libradosstriper.so.1:_ZN11json_spirit13read_or_throwERN9__gnu_cxx17__normal_iteratorIPKcNSt7__cxx1112basic_stringIcSt11char_traitsIcESaIcEEEEESA_RNS_10Value_implINS_13Config_vectorIS9_EEEE
libradosstriper.so.1:_ZN11json_spirit13read_or_throwERSiRNS_10Value_implINS_10Config_mapINSt7__cxx1112basic_stringIcSt11char_traitsIcESaIcEEEEEEE
libradosstriper.so.1:_ZN11json_spirit13read_or_throwERSiRNS_10Value_implINS_13Config_vectorINSt7__cxx1112basic_stringIcSt11char_traitsIcESaIcEEEEEEE
libradosstriper.so.1:_ZN11json_spirit19unicode_str_to_utf8INSt7__cxx1112basic_stringIcSt11char_traitsIcESaIcEEEN9__gnu_cxx17__normal_iteratorIPKcS6_EEEET_RT0_
libradosstriper.so.1:_ZN11json_spirit4readERKNSt7__cxx1112basic_stringIcSt11char_traitsIcESaIcEEERNS_10Value_implINS_10Config_mapIS5_EEEE
libradosstriper.so.1:_ZN11json_spirit4readERKNSt7__cxx1112basic_stringIcSt11char_traitsIcESaIcEEERNS_10Value_implINS_13Config_vectorIS5_EEEE
libradosstriper.so.1:_ZN11json_spirit4readERN9__gnu_cxx17__normal_iteratorIPKcNSt7__cxx1112basic_stringIcSt11char_traitsIcESaIcEEEEESA_RNS_10Value_implINS_10Config_mapIS9_EEEE
libradosstriper.so.1:_ZN11json_spirit4readERN9__gnu_cxx17__normal_iteratorIPKcNSt7__cxx1112basic_stringIcSt11char_traitsIcESaIcEEEEESA_RNS_10Value_implINS_13Config_vectorIS9_EEEE
libradosstriper.so.1:_ZN11json_spirit4readERSiRNS_10Value_implINS_10Config_mapINSt7__cxx1112basic_stringIcSt11char_traitsIcESaIcEEEEEEE
libradosstriper.so.1:_ZN11json_spirit4readERSiRNS_10Value_implINS_13Config_vectorINSt7__cxx1112basic_stringIcSt11char_traitsIcESaIcEEEEEEE
libradosstriper.so.1:_ZN11md_config_t10injectargsERKNSt7__cxx1112basic_stringIcSt11char_traitsIcESaIcEEEPSo
libradosstriper.so.1:_ZN11md_config_t10parse_argvERSt6vectorIPKcSaIS2_EE
libradosstriper.so.1:_ZN11md_config_t11init_subsysEv
libradosstriper.so.1:_ZN11md_config_t11set_val_rawEPKcPKNS_13config_optionE
libradosstriper.so.1:_ZN11md_config_t11show_configEPN4ceph9FormatterE
libradosstriper.so.1:_ZN11md_config_t11show_configERSo
libradosstriper.so.1:_ZN11md_config_t12_show_configEPSoPN4ceph9FormatterE
libradosstriper.so.1:_ZN11md_config_t12add_observerEP15md_config_obs_t
libradosstriper.so.1:_ZN11md_config_t12parse_optionERSt6vectorIPKcSaIS2_EERN9__gnu_cxx17__normal_iteratorIPS2_S4_EEPSo
libradosstriper.so.1:_ZN11md_config_t12set_val_implERKNSt7__cxx1112basic_stringIcSt11char_traitsIcESaIcEEEPKNS_13config_optionEPS5_
libradosstriper.so.1:_ZN11md_config_t13apply_changesEPSo
libradosstriper.so.1:_ZN11md_config_t14_apply_changesEPSo
libradosstriper.so.1:_ZN11md_config_t14set_val_or_dieEPKcS1_
libradosstriper.so.1:_ZN11md_config_t15_internal_fieldERKNSt7__cxx1112basic_stringIcSt11char_traitsIcESaIcEEE
libradosstriper.so.1:_ZN11md_config_t15expand_all_metaEv
libradosstriper.so.1:_ZN11md_config_t15remove_observerEP15md_config_obs_t
libradosstriper.so.1:_ZN11md_config_t16parse_injectargsERSt6vectorIPKcSaIS2_EEPSo
libradosstriper.so.1:_ZN11md_config_t18call_all_observersEv
libradosstriper.so.1:_ZN11md_config_t18parse_config_filesEPKcPSoi
libradosstriper.so.1:_ZN11md_config_t23parse_config_files_implERKNSt7__cxx114listINS0_12basic_stringIcSt11char_traitsIcESaIcEEESaIS6_EEEPSo
libradosstriper.so.1:_ZN11md_config_t25validate_default_settingsEv
libradosstriper.so.1:_ZN11md_config_t27complain_about_parse_errorsEP11CephContext
libradosstriper.so.1:_ZN11md_config_t4diffEPKS_PSt3mapINSt7__cxx1112basic_stringIcSt11char_traitsIcESaIcEEESt4pairIS8_S8_ESt4lessIS8_ESaIS9_IKS8_SA_EEEPSt3setIS8_SC_SaIS8_EE
libradosstriper.so.1:_ZN11md_config_t7set_valEPKcS1_bb
libradosstriper.so.1:_ZN11md_config_t9parse_envEv
libradosstriper.so.1:_ZN11md_config_tC1Ev
libradosstriper.so.1:_ZN11md_config_tC2Ev
libradosstriper.so.1:_ZN11md_config_tD1Ev
libradosstriper.so.1:_ZN11md_config_tD2Ev
libradosstriper.so.1:_ZN11nest_info_t23generate_test_instancesERNSt7__cxx114listIPS_SaIS2_EEE
libradosstriper.so.1:_ZN11nest_info_t6decodeERN4ceph6buffer4list8iteratorE
libradosstriper.so.1:_ZN11old_inode_t23generate_test_instancesERNSt7__cxx114listIPS_SaIS2_EEE
libradosstriper.so.1:_ZN11old_inode_t6decodeERN4ceph6buffer4list8iteratorE
libradosstriper.so.1:_ZN11old_rstat_t23generate_test_instancesERNSt7__cxx114listIPS_SaIS2_EEE
libradosstriper.so.1:_ZN11old_rstat_t6decodeERN4ceph6buffer4list8iteratorE
libradosstriper.so.1:_ZN11osd_reqid_t23generate_test_instancesERNSt7__cxx114listIPS_SaIS2_EEE
libradosstriper.so.1:_ZN11osd_xinfo_t23generate_test_instancesERNSt7__cxx114listIPS_SaIS2_EEE
libradosstriper.so.1:_ZN11osd_xinfo_t6decodeERN4ceph6buffer4list8iteratorE
libradosstriper.so.1:_ZN11pg_create_t23generate_test_instancesERNSt7__cxx114listIPS_SaIS2_EEE
libradosstriper.so.1:_ZN11pg_create_t6decodeERN4ceph6buffer4list8iteratorE
libradosstriper.so.1:_ZN11pg_notify_t23generate_test_instancesERNSt7__cxx114listIPS_SaIS2_EEE
libradosstriper.so.1:_ZN11pg_notify_t6decodeERN4ceph6buffer4list8iteratorE
libradosstriper.so.1:_ZN11pool_opts_t11is_opt_nameERKNSt7__cxx1112basic_stringIcSt11char_traitsIcESaIcEEE
libradosstriper.so.1:_ZN11pool_opts_t12get_opt_descERKNSt7__cxx1112basic_stringIcSt11char_traitsIcESaIcEEE
libradosstriper.so.1:_ZN11pool_opts_t5unsetENS_5key_tE
libradosstriper.so.1:_ZN11pool_opts_t6decodeERN4ceph6buffer4list8iteratorE
libradosstriper.so.1:_ZN11pool_stat_t23generate_test_instancesERNSt7__cxx114listIPS_SaIS2_EEE
libradosstriper.so.1:_ZN11pool_stat_t6decodeERN4ceph6buffer4list8iteratorE
libradosstriper.so.1:_ZN11pow2_hist_t23generate_test_instancesERNSt7__cxx114listIPS_SaIS2_EEE
libradosstriper.so.1:_ZN11pow2_hist_t5decayEi
libradosstriper.so.1:_ZN11pow2_hist_t6decodeERN4ceph6buffer4list8iteratorE
libradosstriper.so.1:_ZN12CrushWrapper11insert_itemEP11CephContextifNSt7__cxx1112basic_stringIcSt11char_traitsIcESaIcEEERKSt3mapIS7_S7_St4lessIS7_ESaISt4pairIKS7_S7_EEE
libradosstriper.so.1:_ZN12CrushWrapper11link_bucketEP11CephContextiRKSt3mapINSt7__cxx1112basic_stringIcSt11char_traitsIcESaIcEEES8_St4lessIS8_ESaISt4pairIKS8_S8_EEE
libradosstriper.so.1:_ZN12CrushWrapper11move_bucketEP11CephContextiRKSt3mapINSt7__cxx1112basic_stringIcSt11char_traitsIcESaIcEEES8_St4lessIS8_ESaISt4pairIKS8_S8_EEE
libradosstriper.so.1:_ZN12CrushWrapper11remove_itemEP11CephContextib
libradosstriper.so.1:_ZN12CrushWrapper11remove_ruleEi
libradosstriper.so.1:_ZN12CrushWrapper11rename_itemERKNSt7__cxx1112basic_stringIcSt11char_traitsIcESaIcEEES7_PSo
libradosstriper.so.1:_ZN12CrushWrapper11update_itemEP11CephContextifNSt7__cxx1112basic_stringIcSt11char_traitsIcESaIcEEERKSt3mapIS7_S7_St4lessIS7_ESaISt4pairIKS7_S7_EEE
libradosstriper.so.1:_ZN12CrushWrapper12get_childrenEiPNSt7__cxx114listIiSaIiEEE
libradosstriper.so.1:_ZN12CrushWrapper13parse_loc_mapERKSt6vectorINSt7__cxx1112basic_stringIcSt11char_traitsIcESaIcEEESaIS6_EEPSt3mapIS6_S6_St4lessIS6_ESaISt4pairIKS6_S6_EEE
libradosstriper.so.1:_ZN12CrushWrapper13rename_bucketERKNSt7__cxx1112basic_stringIcSt11char_traitsIcESaIcEEES7_PSo
libradosstriper.so.1:_ZN12CrushWrapper14check_item_locEP11CephContextiRKSt3mapINSt7__cxx1112basic_stringIcSt11char_traitsIcESaIcEEES8_St4lessIS8_ESaISt4pairIKS8_S8_EEEPi
libradosstriper.so.1:_ZN12CrushWrapper17_bucket_is_in_useEP11CephContexti
libradosstriper.so.1:_ZN12CrushWrapper17get_full_locationB5cxx11Ei
libradosstriper.so.1:_ZN12CrushWrapper17remove_item_underEP11CephContextiib
libradosstriper.so.1:_ZN12CrushWrapper18_remove_item_underEP11CephContextiib
libradosstriper.so.1:_ZN12CrushWrapper18add_simple_rulesetENSt7__cxx1112basic_stringIcSt11char_traitsIcESaIcEEES5_S5_S5_iPSo
libradosstriper.so.1:_ZN12CrushWrapper18adjust_item_weightEP11CephContextii
libradosstriper.so.1:_ZN12CrushWrapper18is_valid_crush_locEP11CephContextRKSt3mapINSt7__cxx1112basic_stringIcSt11char_traitsIcESaIcEEES8_St4lessIS8_ESaISt4pairIKS8_S8_EEE
libradosstriper.so.1:_ZN12CrushWrapper18parse_loc_multimapERKSt6vectorINSt7__cxx1112basic_stringIcSt11char_traitsIcESaIcEEESaIS6_EEPSt8multimapIS6_S6_St4lessIS6_ESaISt4pairIKS6_S6_EEE
libradosstriper.so.1:_ZN12CrushWrapper19create_or_move_itemEP11CephContextifNSt7__cxx1112basic_stringIcSt11char_traitsIcESaIcEEERKSt3mapIS7_S7_St4lessIS7_ESaISt4pairIKS7_S7_EEE
libradosstriper.so.1:_ZN12CrushWrapper19decode_crush_bucketEPP12crush_bucketRN4ceph6buffer4list8iteratorE
libradosstriper.so.1:_ZN12CrushWrapper19is_valid_crush_nameERKNSt7__cxx1112basic_stringIcSt11char_traitsIcESaIcEEE
libradosstriper.so.1:_ZN12CrushWrapper20get_immediate_parentB5cxx11EiPi
libradosstriper.so.1:_ZN12CrushWrapper20get_parent_hierarchyB5cxx11Ei
libradosstriper.so.1:_ZN12CrushWrapper21add_simple_ruleset_atENSt7__cxx1112basic_stringIcSt11char_traitsIcESaIcEEES5_S5_S5_iiPSo
libradosstriper.so.1:_ZN12CrushWrapper21adjust_subtree_weightEP11CephContextii
libradosstriper.so.1:_ZN12CrushWrapper22get_item_weight_in_locEiRKSt3mapINSt7__cxx1112basic_stringIcSt11char_traitsIcESaIcEEES6_St4lessIS6_ESaISt4pairIKS6_S6_EEE
libradosstriper.so.1:_ZN12CrushWrapper23generate_test_instancesERNSt7__cxx114listIPS_SaIS2_EEE
libradosstriper.so.1:_ZN12CrushWrapper23get_immediate_parent_idEiPi
libradosstriper.so.1:_ZN12CrushWrapper23get_rule_weight_osd_mapEjPSt3mapIifSt4lessIiESaISt4pairIKifEEE
libradosstriper.so.1:_ZN12CrushWrapper25adjust_item_weight_in_locEP11CephContextiiRKSt3mapINSt7__cxx1112basic_stringIcSt11char_traitsIcESaIcEEES8_St4lessIS8_ESaISt4pairIKS8_S8_EEE
libradosstriper.so.1:_ZN12CrushWrapper25get_full_location_orderedEiRSt6vectorISt4pairINSt7__cxx1112basic_stringIcSt11char_traitsIcESaIcEEES7_ESaIS8_EE
libradosstriper.so.1:_ZN12CrushWrapper27_maybe_remove_last_instanceEP11CephContextib
libradosstriper.so.1:_ZN12CrushWrapper28get_common_ancestor_distanceEP11CephContextiRKSt8multimapINSt7__cxx1112basic_stringIcSt11char_traitsIcESaIcEEES8_St4lessIS8_ESaISt4pairIKS8_S8_EEE
libradosstriper.so.1:_ZN12CrushWrapper45get_osd_pool_default_crush_replicated_rulesetEP11CephContext
libradosstriper.so.1:_ZN12CrushWrapper46_get_osd_pool_default_crush_replicated_rulesetEP11CephContextb
libradosstriper.so.1:_ZN12CrushWrapper6decodeERN4ceph6buffer4list8iteratorE
libradosstriper.so.1:_ZN12CrushWrapper8reweightEP11CephContext
libradosstriper.so.1:_ZN12DecayCounter23generate_test_instancesERNSt7__cxx114listIPS_SaIS2_EEE
libradosstriper.so.1:_ZN12DecayCounter5decayE7utime_tRK9DecayRate
libradosstriper.so.1:_ZN12DecayCounter6decodeERK7utime_tRN4ceph6buffer4list8iteratorE
libradosstriper.so.1:_ZN12NetworkStack10add_threadEj
libradosstriper.so.1:_ZN12NetworkStack10get_workerEv
libradosstriper.so.1:_ZN12NetworkStack13create_workerEP11CephContextRKNSt7__cxx1112basic_stringIcSt11char_traitsIcESaIcEEEj
libradosstriper.so.1:_ZN12NetworkStack4stopEv
libradosstriper.so.1:_ZN12NetworkStack5drainEv
libradosstriper.so.1:_ZN12NetworkStack5startEv
libradosstriper.so.1:_ZN12NetworkStack6createEP11CephContextRKNSt7__cxx1112basic_stringIcSt11char_traitsIcESaIcEEE
libradosstriper.so.1:_ZN12NetworkStackC1EP11CephContextRKNSt7__cxx1112basic_stringIcSt11char_traitsIcESaIcEEE
libradosstriper.so.1:_ZN12NetworkStackC2EP11CephContextRKNSt7__cxx1112basic_stringIcSt11char_traitsIcESaIcEEE
libradosstriper.so.1:_ZN12PerfCounters14dump_formattedEPN4ceph9FormatterEbRKNSt7__cxx1112basic_stringIcSt11char_traitsIcESaIcEEE
libradosstriper.so.1:_ZN12PerfCounters3decEim
libradosstriper.so.1:_ZN12PerfCounters3incEim
libradosstriper.so.1:_ZN12PerfCounters3setEim
libradosstriper.so.1:_ZN12PerfCounters4tincEi7utime_t
libradosstriper.so.1:_ZN12PerfCounters4tincEiNSt6chrono8durationImSt5ratioILl1ELl1000000000EEEE
libradosstriper.so.1:_ZN12PerfCounters4tsetEi7utime_t
libradosstriper.so.1:_ZN12PerfCounters5resetEv
libradosstriper.so.1:_ZN12PerfCountersC1EP11CephContextRKNSt7__cxx1112basic_stringIcSt11char_traitsIcESaIcEEEii
libradosstriper.so.1:_ZN12PerfCountersC2EP11CephContextRKNSt7__cxx1112basic_stringIcSt11char_traitsIcESaIcEEEii
libradosstriper.so.1:_ZN12PerfCountersD1Ev
libradosstriper.so.1:_ZN12PerfCountersD2Ev
libradosstriper.so.1:_ZN12bloom_filter23generate_test_instancesERNSt7__cxx114listIPS_SaIS2_EEE
libradosstriper.so.1:_ZN12bloom_filter6decodeERN4ceph6buffer4list8iteratorE
libradosstriper.so.1:_ZN12pg_history_t23generate_test_instancesERNSt7__cxx114listIPS_SaIS2_EEE
libradosstriper.so.1:_ZN12pg_history_t6decodeERN4ceph6buffer4list8iteratorE
libradosstriper.so.1:_ZN12quota_info_t23generate_test_instancesERNSt7__cxx114listIPS_SaIS2_EEE
libradosstriper.so.1:_ZN12watch_info_t23generate_test_instancesERNSt7__cxx114listIPS_SaIS2_EEE
libradosstriper.so.1:_ZN12watch_info_t6decodeERN4ceph6buffer4list8iteratorE
libradosstriper.so.1:_ZN13CrushLocation15init_on_startupEv
libradosstriper.so.1:_ZN13CrushLocation16update_from_confEv
libradosstriper.so.1:_ZN13CrushLocation16update_from_hookEv
libradosstriper.so.1:_ZN13CrushLocation6_parseERKNSt7__cxx1112basic_stringIcSt11char_traitsIcESaIcEEE
libradosstriper.so.1:_ZN13CryptoHandler6createEi
libradosstriper.so.1:_ZN13DispatchQueue12pre_dispatchEP7Message
libradosstriper.so.1:_ZN13DispatchQueue13discard_localEv
libradosstriper.so.1:_ZN13DispatchQueue13discard_queueEm
libradosstriper.so.1:_ZN13DispatchQueue13fast_dispatchEP7Message
libradosstriper.so.1:_ZN13DispatchQueue13post_dispatchEP7Messagem
libradosstriper.so.1:_ZN13DispatchQueue14local_deliveryEP7Messagei
libradosstriper.so.1:_ZN13DispatchQueue15fast_preprocessEP7Message
libradosstriper.so.1:_ZN13DispatchQueue18run_local_deliveryEv
libradosstriper.so.1:_ZN13DispatchQueue25dispatch_throttle_releaseEm
libradosstriper.so.1:_ZN13DispatchQueue4waitEv
libradosstriper.so.1:_ZN13DispatchQueue5entryEv
libradosstriper.so.1:_ZN13DispatchQueue5startEv
libradosstriper.so.1:_ZN13DispatchQueue7enqueueEP7Messageim
libradosstriper.so.1:_ZN13DispatchQueue8shutdownEv
libradosstriper.so.1:_ZN13LogClientTempC1E9clog_typeR10LogChannel
libradosstriper.so.1:_ZN13LogClientTempC1ERKS_
libradosstriper.so.1:_ZN13LogClientTempC2E9clog_typeR10LogChannel
libradosstriper.so.1:_ZN13LogClientTempC2ERKS_
libradosstriper.so.1:_ZN13LogClientTempD1Ev
libradosstriper.so.1:_ZN13LogClientTempD2Ev
libradosstriper.so.1:_ZN13OSDSuperblock23generate_test_instancesERNSt7__cxx114listIPS_SaIS2_EEE
libradosstriper.so.1:_ZN13OSDSuperblock6decodeERN4ceph6buffer4list8iteratorE
libradosstriper.so.1:_ZN13ObjectModDesc23generate_test_instancesERNSt7__cxx114listIPS_SaIS2_EEE
libradosstriper.so.1:_ZN13ObjectModDesc6decodeERN4ceph6buffer4list8iteratorE
libradosstriper.so.1:_ZN13SnapRealmInfo23generate_test_instancesERNSt7__cxx114listIPS_SaIS2_EEE
libradosstriper.so.1:_ZN13SnapRealmInfo6decodeERN4ceph6buffer4list8iteratorE
libradosstriper.so.1:_ZN13entity_addr_t23generate_test_instancesERNSt7__cxx114listIPS_SaIS2_EEE
libradosstriper.so.1:_ZN13entity_addr_t5parseEPKcPS1_
libradosstriper.so.1:_ZN13entity_inst_t23generate_test_instancesERNSt7__cxx114listIPS_SaIS2_EEE
libradosstriper.so.1:_ZN13entity_name_t23generate_test_instancesERNSt7__cxx114listIPS_SaIS2_EEE
libradosstriper.so.1:_ZN13file_layout_t11from_legacyERK16ceph_file_layout
libradosstriper.so.1:_ZN13file_layout_t23generate_test_instancesERNSt7__cxx114listIPS_SaIS2_EEE
libradosstriper.so.1:_ZN13file_layout_t6decodeERN4ceph6buffer4list8iteratorE
libradosstriper.so.1:_ZN13inline_data_t6decodeERN4ceph6buffer4list8iteratorE
libradosstriper.so.1:_ZN13object_info_t14copy_user_bitsERKS_
libradosstriper.so.1:_ZN13object_info_t23generate_test_instancesERNSt7__cxx114listIPS_SaIS2_EEE
libradosstriper.so.1:_ZN13object_info_t27legacy_object_locator_to_psERK8object_tRK16object_locator_t
libradosstriper.so.1:_ZN13object_info_t6decodeERN4ceph6buffer4list8iteratorE
libradosstriper.so.1:_ZN13pg_interval_t15is_new_intervalEiiRKSt6vectorIiSaIiEES4_iiS4_S4_St10shared_ptrIK6OSDMapES8_4pg_t
libradosstriper.so.1:_ZN13pg_interval_t15is_new_intervalEiiRKSt6vectorIiSaIiEES4_iiS4_S4_iiiijjbb4pg_t
libradosstriper.so.1:_ZN13pg_interval_t18check_new_intervalEiiRKSt6vectorIiSaIiEES4_iiS4_S4_jjSt10shared_ptrIK6OSDMapES8_4pg_tP24IsPGRecoverablePredicatePSt3mapIjS_St4lessIjESaISt4pairIKjS_EEEPSo
libradosstriper.so.1:_ZN13pg_interval_t23generate_test_instancesERNSt7__cxx114listIPS_SaIS2_EEE
libradosstriper.so.1:_ZN13pg_interval_t6decodeERN4ceph6buffer4list8iteratorE
libradosstriper.so.1:_ZN13string_snap_t23generate_test_instancesERNSt7__cxx114listIPS_SaIS2_EEE
libradosstriper.so.1:_ZN13string_snap_t6decodeERN4ceph6buffer4list8iteratorE
libradosstriper.so.1:_ZN14AsyncMessenger10add_acceptEP6Worker15ConnectedSocketR13entity_addr_t
libradosstriper.so.1:_ZN14AsyncMessenger12_finish_bindERK13entity_addr_tS2_
libradosstriper.so.1:_ZN14AsyncMessenger12learned_addrERK13entity_addr_t
libradosstriper.so.1:_ZN14AsyncMessenger13_send_messageEP7MessageRK13entity_inst_t
libradosstriper.so.1:_ZN14AsyncMessenger14create_connectERK13entity_addr_ti
libradosstriper.so.1:_ZN14AsyncMessenger14get_connectionERK13entity_inst_t
libradosstriper.so.1:_ZN14AsyncMessenger14send_keepaliveEP10Connection
libradosstriper.so.1:_ZN14AsyncMessenger14submit_messageEP7MessageN5boost13intrusive_ptrI15AsyncConnectionEERK13entity_addr_ti
libradosstriper.so.1:_ZN14AsyncMessenger17set_addr_unknownsERK13entity_addr_t
libradosstriper.so.1:_ZN14AsyncMessenger20shutdown_connectionsEb
libradosstriper.so.1:_ZN14AsyncMessenger23get_loopback_connectionEv
libradosstriper.so.1:_ZN14AsyncMessenger4bindERK13entity_addr_t
libradosstriper.so.1:_ZN14AsyncMessenger4waitEv
libradosstriper.so.1:_ZN14AsyncMessenger5readyEv
libradosstriper.so.1:_ZN14AsyncMessenger5startEv
libradosstriper.so.1:_ZN14AsyncMessenger6rebindERKSt3setIiSt4lessIiESaIiEE
libradosstriper.so.1:_ZN14AsyncMessenger8shutdownEv
libradosstriper.so.1:_ZN14AsyncMessenger9mark_downERK13entity_addr_t
libradosstriper.so.1:_ZN14AsyncMessenger9reap_deadEv
libradosstriper.so.1:_ZN14AsyncMessengerC1EP11CephContext13entity_name_tNSt7__cxx1112basic_stringIcSt11char_traitsIcESaIcEEEm
libradosstriper.so.1:_ZN14AsyncMessengerC2EP11CephContext13entity_name_tNSt7__cxx1112basic_stringIcSt11char_traitsIcESaIcEEEm
libradosstriper.so.1:_ZN14AsyncMessengerD0Ev
libradosstriper.so.1:_ZN14AsyncMessengerD1Ev
libradosstriper.so.1:_ZN14AsyncMessengerD2Ev
libradosstriper.so.1:_ZN14AuthMethodList17is_supported_authEi
libradosstriper.so.1:_ZN14AuthMethodList21remove_supported_authEi
libradosstriper.so.1:_ZN14AuthMethodList4pickERKSt3setIjSt4lessIjESaIjEE
libradosstriper.so.1:_ZN14AuthMethodListC1EP11CephContextNSt7__cxx1112basic_stringIcSt11char_traitsIcESaIcEEE
libradosstriper.so.1:_ZN14AuthMethodListC2EP11CephContextNSt7__cxx1112basic_stringIcSt11char_traitsIcESaIcEEE
libradosstriper.so.1:_ZN14ECSubReadReply23generate_test_instancesERNSt7__cxx114listIPS_SaIS2_EEE
libradosstriper.so.1:_ZN14ECSubReadReply6decodeERN4ceph6buffer4list8iteratorE
libradosstriper.so.1:_ZN14PipeConnection10clear_pipeEP4Pipe
libradosstriper.so.1:_ZN14PipeConnection10reset_pipeEP4Pipe
libradosstriper.so.1:_ZN14PipeConnection12is_connectedEv
libradosstriper.so.1:_ZN14PipeConnection12send_messageEP7Message
libradosstriper.so.1:_ZN14PipeConnection12try_get_pipeEPP4Pipe
libradosstriper.so.1:_ZN14PipeConnection14send_keepaliveEv
libradosstriper.so.1:_ZN14PipeConnection15mark_disposableEv
libradosstriper.so.1:_ZN14PipeConnection8get_pipeEv
libradosstriper.so.1:_ZN14PipeConnection9mark_downEv
libradosstriper.so.1:_ZN14PipeConnectionD0Ev
libradosstriper.so.1:_ZN14PipeConnectionD1Ev
libradosstriper.so.1:_ZN14PipeConnectionD2Ev
libradosstriper.so.1:_ZN14SimpleThrottle12wait_for_retEv
libradosstriper.so.1:_ZN14SimpleThrottle6end_opEi
libradosstriper.so.1:_ZN14SimpleThrottle8start_opEv
libradosstriper.so.1:_ZN14SimpleThrottleC1Emb
libradosstriper.so.1:_ZN14SimpleThrottleC2Emb
libradosstriper.so.1:_ZN14SimpleThrottleD1Ev
libradosstriper.so.1:_ZN14SimpleThrottleD2Ev
libradosstriper.so.1:_ZN14pg_log_entry_t20decode_with_checksumERN4ceph6buffer4list8iteratorE
libradosstriper.so.1:_ZN14pg_log_entry_t23generate_test_instancesERNSt7__cxx114listIPS_SaIS2_EEE
libradosstriper.so.1:_ZN14pg_log_entry_t6decodeERN4ceph6buffer4list8iteratorE
libradosstriper.so.1:_ZN14scrub_ls_arg_t6decodeERN4ceph6buffer4list8iteratorE
libradosstriper.so.1:_ZN14session_info_t23generate_test_instancesERNSt7__cxx114listIPS_SaIS2_EEE
libradosstriper.so.1:_ZN14session_info_t6decodeERN4ceph6buffer4list8iteratorE
libradosstriper.so.1:_ZN15AsyncConnection10handle_ackEm
libradosstriper.so.1:_ZN15AsyncConnection10read_untilEjPc
libradosstriper.so.1:_ZN15AsyncConnection11wakeup_fromEm
libradosstriper.so.1:_ZN15AsyncConnection12_conn_prefixEPSo
libradosstriper.so.1:_ZN15AsyncConnection12handle_writeEv
libradosstriper.so.1:_ZN15AsyncConnection12inject_delayEv
libradosstriper.so.1:_ZN15AsyncConnection12requeue_sentEv
libradosstriper.so.1:_ZN15AsyncConnection12send_messageEP7Message
libradosstriper.so.1:_ZN15AsyncConnection13write_messageEP7MessageRN4ceph6buffer4listEb
libradosstriper.so.1:_ZN15AsyncConnection14send_keepaliveEv
libradosstriper.so.1:_ZN15AsyncConnection15DelayedDelivery10do_requestEi
libradosstriper.so.1:_ZN15AsyncConnection15DelayedDelivery5flushEv
libradosstriper.so.1:_ZN15AsyncConnection16reset_recv_stateEv
libradosstriper.so.1:_ZN15AsyncConnection17discard_out_queueEv
libradosstriper.so.1:_ZN15AsyncConnection17randomize_out_seqEv
libradosstriper.so.1:_ZN15AsyncConnection17was_session_resetEv
libradosstriper.so.1:_ZN15AsyncConnection18handle_connect_msgER16ceph_msg_connectRN4ceph6buffer4listES5_
libradosstriper.so.1:_ZN15AsyncConnection19_process_connectionEv
libradosstriper.so.1:_ZN15AsyncConnection20handle_connect_replyER16ceph_msg_connectR22ceph_msg_connect_reply
libradosstriper.so.1:_ZN15AsyncConnection20prepare_send_messageEmP7MessageRN4ceph6buffer4listE
libradosstriper.so.1:_ZN15AsyncConnection22discard_requeued_up_toEm
libradosstriper.so.1:_ZN15AsyncConnection24_append_keepalive_or_ackEbP7utime_t
libradosstriper.so.1:_ZN15AsyncConnection24maybe_start_delay_threadEv
libradosstriper.so.1:_ZN15AsyncConnection4tickEm
libradosstriper.so.1:_ZN15AsyncConnection5_stopEv
libradosstriper.so.1:_ZN15AsyncConnection5faultEv
libradosstriper.so.1:_ZN15AsyncConnection6acceptE15ConnectedSocketR13entity_addr_t
libradosstriper.so.1:_ZN15AsyncConnection7processEv
libradosstriper.so.1:_ZN15AsyncConnection8_connectEv
libradosstriper.so.1:_ZN15AsyncConnection9_try_sendEb
libradosstriper.so.1:_ZN15AsyncConnection9mark_downEv
libradosstriper.so.1:_ZN15AsyncConnection9read_bulkEPcj
libradosstriper.so.1:_ZN15AsyncConnectionC1EP11CephContextP14AsyncMessengerP13DispatchQueueP6Worker
libradosstriper.so.1:_ZN15AsyncConnectionC2EP11CephContextP14AsyncMessengerP13DispatchQueueP6Worker
libradosstriper.so.1:_ZN15AsyncConnectionD0Ev
libradosstriper.so.1:_ZN15AsyncConnectionD1Ev
libradosstriper.so.1:_ZN15AsyncConnectionD2Ev
libradosstriper.so.1:_ZN15BackoffThrottle10set_paramsEdddddmPSo
libradosstriper.so.1:_ZN15BackoffThrottle11get_currentEv
libradosstriper.so.1:_ZN15BackoffThrottle3getEm
libradosstriper.so.1:_ZN15BackoffThrottle3putEm
libradosstriper.so.1:_ZN15BackoffThrottle4takeEm
libradosstriper.so.1:_ZN15BackoffThrottle7get_maxEv
libradosstriper.so.1:_ZN15CephXAuthorizer12verify_replyERN4ceph6buffer4list8iteratorE
libradosstriper.so.1:_ZN15ECSubWriteReply23generate_test_instancesERNSt7__cxx114listIPS_SaIS2_EEE
libradosstriper.so.1:_ZN15ECSubWriteReply6decodeERN4ceph6buffer4list8iteratorE
libradosstriper.so.1:_ZN15ObjectOperation11add_handlerEP7Context
libradosstriper.so.1:_ZN15ObjectOperation8scrub_lsERKN8librados11object_id_tEmPSt6vectorINS0_18inconsistent_obj_tESaIS5_EEPjPi
libradosstriper.so.1:_ZN15ObjectOperation8scrub_lsERKN8librados11object_id_tEmPSt6vectorINS0_22inconsistent_snapset_tESaIS5_EEPjPi
libradosstriper.so.1:_ZN15OrderedThrottle12wait_for_retEv
libradosstriper.so.1:_ZN15OrderedThrottle20complete_pending_opsEv
libradosstriper.so.1:_ZN15OrderedThrottle6end_opEi
libradosstriper.so.1:_ZN15OrderedThrottle8start_opEP7Context
libradosstriper.so.1:_ZN15OrderedThrottle9finish_opEmi
libradosstriper.so.1:_ZN15OrderedThrottleC1Emb
libradosstriper.so.1:_ZN15OrderedThrottleC2Emb
libradosstriper.so.1:_ZN15RotatingKeyRing11get_keyringEv
libradosstriper.so.1:_ZN15RotatingKeyRing11set_secretsER15RotatingSecrets
libradosstriper.so.1:_ZN15SimpleMessenger10queue_reapEP4Pipe
libradosstriper.so.1:_ZN15SimpleMessenger12connect_rankERK13entity_addr_tiP14PipeConnectionP7Message
libradosstriper.so.1:_ZN15SimpleMessenger12is_connectedEP10Connection
libradosstriper.so.1:_ZN15SimpleMessenger12learned_addrERK13entity_addr_t
libradosstriper.so.1:_ZN15SimpleMessenger12reaper_entryEv
libradosstriper.so.1:_ZN15SimpleMessenger13_send_messageEP7MessageP10Connection
libradosstriper.so.1:_ZN15SimpleMessenger13_send_messageEP7MessageRK13entity_inst_t
libradosstriper.so.1:_ZN15SimpleMessenger13mark_down_allEv
libradosstriper.so.1:_ZN15SimpleMessenger14get_authorizerEib
libradosstriper.so.1:_ZN15SimpleMessenger14get_connectionERK13entity_inst_t
libradosstriper.so.1:_ZN15SimpleMessenger14send_keepaliveEP10Connection
libradosstriper.so.1:_ZN15SimpleMessenger14submit_messageEP7MessageP14PipeConnectionRK13entity_addr_tib
libradosstriper.so.1:_ZN15SimpleMessenger15add_accept_pipeEi
libradosstriper.so.1:_ZN15SimpleMessenger15mark_disposableEP10Connection
libradosstriper.so.1:_ZN15SimpleMessenger17get_proto_versionEib
libradosstriper.so.1:_ZN15SimpleMessenger17set_addr_unknownsERK13entity_addr_t
libradosstriper.so.1:_ZN15SimpleMessenger17verify_authorizerEP10ConnectioniiRN4ceph6buffer4listES5_RbR9CryptoKey
libradosstriper.so.1:_ZN15SimpleMessenger21init_local_connectionEv
libradosstriper.so.1:_ZN15SimpleMessenger23get_loopback_connectionEv
libradosstriper.so.1:_ZN15SimpleMessenger4bindERK13entity_addr_t
libradosstriper.so.1:_ZN15SimpleMessenger4waitEv
libradosstriper.so.1:_ZN15SimpleMessenger5readyEv
libradosstriper.so.1:_ZN15SimpleMessenger5startEv
libradosstriper.so.1:_ZN15SimpleMessenger6reaperEv
libradosstriper.so.1:_ZN15SimpleMessenger6rebindERKSt3setIiSt4lessIiESaIiEE
libradosstriper.so.1:_ZN15SimpleMessenger8shutdownEv
libradosstriper.so.1:_ZN15SimpleMessenger9mark_downEP10Connection
libradosstriper.so.1:_ZN15SimpleMessenger9mark_downERK13entity_addr_t
libradosstriper.so.1:_ZN15SimpleMessengerC1EP11CephContext13entity_name_tNSt7__cxx1112basic_stringIcSt11char_traitsIcESaIcEEEm
libradosstriper.so.1:_ZN15SimpleMessengerC2EP11CephContext13entity_name_tNSt7__cxx1112basic_stringIcSt11char_traitsIcESaIcEEEm
libradosstriper.so.1:_ZN15SimpleMessengerD0Ev
libradosstriper.so.1:_ZN15SimpleMessengerD1Ev
libradosstriper.so.1:_ZN15SimpleMessengerD2Ev
libradosstriper.so.1:_ZN15cap_reconnect_t10decode_oldERN4ceph6buffer4list8iteratorE
libradosstriper.so.1:_ZN15cap_reconnect_t23generate_test_instancesERNSt7__cxx114listIPS_SaIS2_EEE
libradosstriper.so.1:_ZN15cap_reconnect_t6decodeERN4ceph6buffer4list8iteratorE
libradosstriper.so.1:_ZN15libradosstriper12RadosStriper10aio_appendERKNSt7__cxx1112basic_stringIcSt11char_traitsIcESaIcEEEPN8librados13AioCompletionERKN4ceph6buffer4listEm
libradosstriper.so.1:_ZN15libradosstriper12RadosStriper10aio_removeERKNSt7__cxx1112basic_stringIcSt11char_traitsIcESaIcEEEPN8librados13AioCompletionE
libradosstriper.so.1:_ZN15libradosstriper12RadosStriper10aio_removeERKNSt7__cxx1112basic_stringIcSt11char_traitsIcESaIcEEEPN8librados13AioCompletionEi
libradosstriper.so.1:_ZN15libradosstriper12RadosStriper10write_fullERKNSt7__cxx1112basic_stringIcSt11char_traitsIcESaIcEEERKN4ceph6buffer4listE
libradosstriper.so.1:_ZN15libradosstriper12RadosStriper14aio_write_fullERKNSt7__cxx1112basic_stringIcSt11char_traitsIcESaIcEEEPN8librados13AioCompletionERKN4ceph6buffer4listE
libradosstriper.so.1:_ZN15libradosstriper12RadosStriper14striper_createERN8librados5IoCtxEPS0_
libradosstriper.so.1:_ZN15libradosstriper12RadosStriper18to_rados_striper_tERS0_PPv
libradosstriper.so.1:_ZN15libradosstriper12RadosStriper27multi_aio_create_completionEPvPFvS1_S1_ES3_
libradosstriper.so.1:_ZN15libradosstriper12RadosStriper27multi_aio_create_completionEv
libradosstriper.so.1:_ZN15libradosstriper12RadosStriper29set_object_layout_object_sizeEj
libradosstriper.so.1:_ZN15libradosstriper12RadosStriper29set_object_layout_stripe_unitEj
libradosstriper.so.1:_ZN15libradosstriper12RadosStriper30set_object_layout_stripe_countEj
libradosstriper.so.1:_ZN15libradosstriper12RadosStriper4readERKNSt7__cxx1112basic_stringIcSt11char_traitsIcESaIcEEEPN4ceph6buffer4listEmm
libradosstriper.so.1:_ZN15libradosstriper12RadosStriper4statERKNSt7__cxx1112basic_stringIcSt11char_traitsIcESaIcEEEPmPl
libradosstriper.so.1:_ZN15libradosstriper12RadosStriper5stat2ERKNSt7__cxx1112basic_stringIcSt11char_traitsIcESaIcEEEPmP8timespec
libradosstriper.so.1:_ZN15libradosstriper12RadosStriper5truncERKNSt7__cxx1112basic_stringIcSt11char_traitsIcESaIcEEEm
libradosstriper.so.1:_ZN15libradosstriper12RadosStriper5writeERKNSt7__cxx1112basic_stringIcSt11char_traitsIcESaIcEEERKN4ceph6buffer4listEmm
libradosstriper.so.1:_ZN15libradosstriper12RadosStriper6appendERKNSt7__cxx1112basic_stringIcSt11char_traitsIcESaIcEEERKN4ceph6buffer4listEm
libradosstriper.so.1:_ZN15libradosstriper12RadosStriper6removeERKNSt7__cxx1112basic_stringIcSt11char_traitsIcESaIcEEE
libradosstriper.so.1:_ZN15libradosstriper12RadosStriper6removeERKNSt7__cxx1112basic_stringIcSt11char_traitsIcESaIcEEEi
libradosstriper.so.1:_ZN15libradosstriper12RadosStriper7rmxattrERKNSt7__cxx1112basic_stringIcSt11char_traitsIcESaIcEEEPKc
libradosstriper.so.1:_ZN15libradosstriper12RadosStriper8aio_readERKNSt7__cxx1112basic_stringIcSt11char_traitsIcESaIcEEEPN8librados13AioCompletionEPN4ceph6buffer4listEmm
libradosstriper.so.1:_ZN15libradosstriper12RadosStriper8aio_statERKNSt7__cxx1112basic_stringIcSt11char_traitsIcESaIcEEEPN8librados13AioCompletionEPmPl
libradosstriper.so.1:_ZN15libradosstriper12RadosStriper8getxattrERKNSt7__cxx1112basic_stringIcSt11char_traitsIcESaIcEEEPKcRN4ceph6buffer4listE
libradosstriper.so.1:_ZN15libradosstriper12RadosStriper8setxattrERKNSt7__cxx1112basic_stringIcSt11char_traitsIcESaIcEEEPKcRN4ceph6buffer4listE
libradosstriper.so.1:_ZN15libradosstriper12RadosStriper9aio_flushEv
libradosstriper.so.1:_ZN15libradosstriper12RadosStriper9aio_stat2ERKNSt7__cxx1112basic_stringIcSt11char_traitsIcESaIcEEEPN8librados13AioCompletionEPmP8timespec
libradosstriper.so.1:_ZN15libradosstriper12RadosStriper9aio_writeERKNSt7__cxx1112basic_stringIcSt11char_traitsIcESaIcEEEPN8librados13AioCompletionERKN4ceph6buffer4listEmm
libradosstriper.so.1:_ZN15libradosstriper12RadosStriper9getxattrsERKNSt7__cxx1112basic_stringIcSt11char_traitsIcESaIcEEERSt3mapIS6_N4ceph6buffer4listESt4lessIS6_ESaISt4pairIS7_SC_EEE
libradosstriper.so.1:_ZN15libradosstriper12RadosStriperC1ERKS0_
libradosstriper.so.1:_ZN15libradosstriper12RadosStriperC1Ev
libradosstriper.so.1:_ZN15libradosstriper12RadosStriperC2ERKS0_
libradosstriper.so.1:_ZN15libradosstriper12RadosStriperC2Ev
libradosstriper.so.1:_ZN15libradosstriper12RadosStriperD1Ev
libradosstriper.so.1:_ZN15libradosstriper12RadosStriperD2Ev
libradosstriper.so.1:_ZN15libradosstriper12RadosStriperaSERKS0_
libradosstriper.so.1:_ZN15libradosstriper16RadosStriperImpl10aio_appendERKNSt7__cxx1112basic_stringIcSt11char_traitsIcESaIcEEEPN8librados17AioCompletionImplERKN4ceph6buffer4listEm
libradosstriper.so.1:_ZN15libradosstriper16RadosStriperImpl10aio_removeERKNSt7__cxx1112basic_stringIcSt11char_traitsIcESaIcEEEPN8librados17AioCompletionImplEi
libradosstriper.so.1:_ZN15libradosstriper16RadosStriperImpl10write_fullERKNSt7__cxx1112basic_stringIcSt11char_traitsIcESaIcEEERKN4ceph6buffer4listE
libradosstriper.so.1:_ZN15libradosstriper16RadosStriperImpl11getObjectIdB5cxx11ERK8object_ty
libradosstriper.so.1:_ZN15libradosstriper16RadosStriperImpl12aio_truncateERKNSt7__cxx1112basic_stringIcSt11char_traitsIcESaIcEEEPNS_22MultiAioCompletionImplEmmR16ceph_file_layout
libradosstriper.so.1:_ZN15libradosstriper16RadosStriperImpl12unlockObjectERKNSt7__cxx1112basic_stringIcSt11char_traitsIcESaIcEEES8_
libradosstriper.so.1:_ZN15libradosstriper16RadosStriperImpl14CompletionData8completeEi
libradosstriper.so.1:_ZN15libradosstriper16RadosStriperImpl14CompletionDataC1EPS0_RKNSt7__cxx1112basic_stringIcSt11char_traitsIcESaIcEEESA_PN8librados17AioCompletionImplEi
libradosstriper.so.1:_ZN15libradosstriper16RadosStriperImpl14CompletionDataC2EPS0_RKNSt7__cxx1112basic_stringIcSt11char_traitsIcESaIcEEESA_PN8librados17AioCompletionImplEi
libradosstriper.so.1:_ZN15libradosstriper16RadosStriperImpl14CompletionDataD0Ev
libradosstriper.so.1:_ZN15libradosstriper16RadosStriperImpl14CompletionDataD1Ev
libradosstriper.so.1:_ZN15libradosstriper16RadosStriperImpl14CompletionDataD2Ev
libradosstriper.so.1:_ZN15libradosstriper16RadosStriperImpl14aio_write_fullERKNSt7__cxx1112basic_stringIcSt11char_traitsIcESaIcEEEPN8librados17AioCompletionImplERKN4ceph6buffer4listE
libradosstriper.so.1:_ZN15libradosstriper16RadosStriperImpl16aio_unlockObjectERKNSt7__cxx1112basic_stringIcSt11char_traitsIcESaIcEEES8_PN8librados13AioCompletionE
libradosstriper.so.1:_ZN15libradosstriper16RadosStriperImpl18ReadCompletionData13complete_readEi
libradosstriper.so.1:_ZN15libradosstriper16RadosStriperImpl18ReadCompletionData15complete_unlockEi
libradosstriper.so.1:_ZN15libradosstriper16RadosStriperImpl18ReadCompletionDataC1EPS0_RKNSt7__cxx1112basic_stringIcSt11char_traitsIcESaIcEEESA_PN8librados17AioCompletionImplEPN4ceph6buffer4listEPSt6vectorI12ObjectExtentSaISJ_EEPSI_ISG_SaISG_EEi
libradosstriper.so.1:_ZN15libradosstriper16RadosStriperImpl18ReadCompletionDataC2EPS0_RKNSt7__cxx1112basic_stringIcSt11char_traitsIcESaIcEEESA_PN8librados17AioCompletionImplEPN4ceph6buffer4listEPSt6vectorI12ObjectExtentSaISJ_EEPSI_ISG_SaISG_EEi
libradosstriper.so.1:_ZN15libradosstriper16RadosStriperImpl18ReadCompletionDataD0Ev
libradosstriper.so.1:_ZN15libradosstriper16RadosStriperImpl18ReadCompletionDataD1Ev
libradosstriper.so.1:_ZN15libradosstriper16RadosStriperImpl18ReadCompletionDataD2Ev
libradosstriper.so.1:_ZN15libradosstriper16RadosStriperImpl18extract_sizet_attrERSt3mapINSt7__cxx1112basic_stringIcSt11char_traitsIcESaIcEEEN4ceph6buffer4listESt4lessIS7_ESaISt4pairIKS7_SA_EEERSE_Pm
libradosstriper.so.1:_ZN15libradosstriper16RadosStriperImpl18internal_aio_writeERKNSt7__cxx1112basic_stringIcSt11char_traitsIcESaIcEEEPNS_22MultiAioCompletionImplERKN4ceph6buffer4listEmmRK16ceph_file_layout
libradosstriper.so.1:_ZN15libradosstriper16RadosStriperImpl19WriteCompletionData14complete_writeEi
libradosstriper.so.1:_ZN15libradosstriper16RadosStriperImpl19WriteCompletionData15complete_unlockEi
libradosstriper.so.1:_ZN15libradosstriper16RadosStriperImpl19WriteCompletionData4safeEi
libradosstriper.so.1:_ZN15libradosstriper16RadosStriperImpl19WriteCompletionDataC1EPS0_RKNSt7__cxx1112basic_stringIcSt11char_traitsIcESaIcEEESA_PN8librados17AioCompletionImplEi
libradosstriper.so.1:_ZN15libradosstriper16RadosStriperImpl19WriteCompletionDataC2EPS0_RKNSt7__cxx1112basic_stringIcSt11char_traitsIcESaIcEEESA_PN8librados17AioCompletionImplEi
libradosstriper.so.1:_ZN15libradosstriper16RadosStriperImpl19WriteCompletionDataD0Ev
libradosstriper.so.1:_ZN15libradosstriper16RadosStriperImpl19WriteCompletionDataD1Ev
libradosstriper.so.1:_ZN15libradosstriper16RadosStriperImpl19WriteCompletionDataD2Ev
libradosstriper.so.1:_ZN15libradosstriper16RadosStriperImpl19extract_uint32_attrERSt3mapINSt7__cxx1112basic_stringIcSt11char_traitsIcESaIcEEEN4ceph6buffer4listESt4lessIS7_ESaISt4pairIKS7_SA_EEERSE_P9ceph_le32
libradosstriper.so.1:_ZN15libradosstriper16RadosStriperImpl19internal_aio_removeERKNSt7__cxx1112basic_stringIcSt11char_traitsIcESaIcEEEPNS_22MultiAioCompletionImplEi
libradosstriper.so.1:_ZN15libradosstriper16RadosStriperImpl20RemoveCompletionDataC1EPS0_RKNSt7__cxx1112basic_stringIcSt11char_traitsIcESaIcEEESA_PN8librados17AioCompletionImplEi
libradosstriper.so.1:_ZN15libradosstriper16RadosStriperImpl20RemoveCompletionDataC2EPS0_RKNSt7__cxx1112basic_stringIcSt11char_traitsIcESaIcEEESA_PN8librados17AioCompletionImplEi
libradosstriper.so.1:_ZN15libradosstriper16RadosStriperImpl20write_in_open_objectERKNSt7__cxx1112basic_stringIcSt11char_traitsIcESaIcEEERK16ceph_file_layoutS8_RKN4ceph6buffer4listEmm
libradosstriper.so.1:_ZN15libradosstriper16RadosStriperImpl22TruncateCompletionDataC1EPS0_RKNSt7__cxx1112basic_stringIcSt11char_traitsIcESaIcEEEm
libradosstriper.so.1:_ZN15libradosstriper16RadosStriperImpl22TruncateCompletionDataC2EPS0_RKNSt7__cxx1112basic_stringIcSt11char_traitsIcESaIcEEEm
libradosstriper.so.1:_ZN15libradosstriper16RadosStriperImpl22TruncateCompletionDataD0Ev
libradosstriper.so.1:_ZN15libradosstriper16RadosStriperImpl22TruncateCompletionDataD1Ev
libradosstriper.so.1:_ZN15libradosstriper16RadosStriperImpl22TruncateCompletionDataD2Ev
libradosstriper.so.1:_ZN15libradosstriper16RadosStriperImpl24aio_write_in_open_objectERKNSt7__cxx1112basic_stringIcSt11char_traitsIcESaIcEEEPN8librados17AioCompletionImplERK16ceph_file_layoutS8_RKN4ceph6buffer4listEmm
libradosstriper.so.1:_ZN15libradosstriper16RadosStriperImpl24openStripedObjectForReadERKNSt7__cxx1112basic_stringIcSt11char_traitsIcESaIcEEEP16ceph_file_layoutPmPS6_
libradosstriper.so.1:_ZN15libradosstriper16RadosStriperImpl25openStripedObjectForWriteERKNSt7__cxx1112basic_stringIcSt11char_traitsIcESaIcEEEP16ceph_file_layoutPmPS6_b
libradosstriper.so.1:_ZN15libradosstriper16RadosStriperImpl25setObjectLayoutObjectSizeEj
libradosstriper.so.1:_ZN15libradosstriper16RadosStriperImpl25setObjectLayoutStripeUnitEj
libradosstriper.so.1:_ZN15libradosstriper16RadosStriperImpl26createAndOpenStripedObjectERKNSt7__cxx1112basic_stringIcSt11char_traitsIcESaIcEEEP16ceph_file_layoutmPS6_b
libradosstriper.so.1:_ZN15libradosstriper16RadosStriperImpl26setObjectLayoutStripeCountEj
libradosstriper.so.1:_ZN15libradosstriper16RadosStriperImpl28internal_get_layout_and_sizeERKNSt7__cxx1112basic_stringIcSt11char_traitsIcESaIcEEEP16ceph_file_layoutPm
libradosstriper.so.1:_ZN15libradosstriper16RadosStriperImpl4growERKNSt7__cxx1112basic_stringIcSt11char_traitsIcESaIcEEEmmR16ceph_file_layout
libradosstriper.so.1:_ZN15libradosstriper16RadosStriperImpl4readERKNSt7__cxx1112basic_stringIcSt11char_traitsIcESaIcEEEPN4ceph6buffer4listEmm
libradosstriper.so.1:_ZN15libradosstriper16RadosStriperImpl4statERKNSt7__cxx1112basic_stringIcSt11char_traitsIcESaIcEEEPmPl
libradosstriper.so.1:_ZN15libradosstriper16RadosStriperImpl5stat2ERKNSt7__cxx1112basic_stringIcSt11char_traitsIcESaIcEEEPmP8timespec
libradosstriper.so.1:_ZN15libradosstriper16RadosStriperImpl5truncERKNSt7__cxx1112basic_stringIcSt11char_traitsIcESaIcEEEm
libradosstriper.so.1:_ZN15libradosstriper16RadosStriperImpl5writeERKNSt7__cxx1112basic_stringIcSt11char_traitsIcESaIcEEERKN4ceph6buffer4listEmm
libradosstriper.so.1:_ZN15libradosstriper16RadosStriperImpl6appendERKNSt7__cxx1112basic_stringIcSt11char_traitsIcESaIcEEERKN4ceph6buffer4listEm
libradosstriper.so.1:_ZN15libradosstriper16RadosStriperImpl6removeERKNSt7__cxx1112basic_stringIcSt11char_traitsIcESaIcEEEi
libradosstriper.so.1:_ZN15libradosstriper16RadosStriperImpl7getUUIDB5cxx11Ev
libradosstriper.so.1:_ZN15libradosstriper16RadosStriperImpl7rmxattrERK8object_tPKc
libradosstriper.so.1:_ZN15libradosstriper16RadosStriperImpl8aio_readERKNSt7__cxx1112basic_stringIcSt11char_traitsIcESaIcEEEPN8librados17AioCompletionImplEPN4ceph6buffer4listEmm
libradosstriper.so.1:_ZN15libradosstriper16RadosStriperImpl8aio_readERKNSt7__cxx1112basic_stringIcSt11char_traitsIcESaIcEEEPN8librados17AioCompletionImplEPcmm
libradosstriper.so.1:_ZN15libradosstriper16RadosStriperImpl8aio_statERKNSt7__cxx1112basic_stringIcSt11char_traitsIcESaIcEEEPN8librados17AioCompletionImplEPmPl
libradosstriper.so.1:_ZN15libradosstriper16RadosStriperImpl8getxattrERK8object_tPKcRN4ceph6buffer4listE
libradosstriper.so.1:_ZN15libradosstriper16RadosStriperImpl8setxattrERK8object_tPKcRN4ceph6buffer4listE
libradosstriper.so.1:_ZN15libradosstriper16RadosStriperImpl8truncateERKNSt7__cxx1112basic_stringIcSt11char_traitsIcESaIcEEEmmR16ceph_file_layout
libradosstriper.so.1:_ZN15libradosstriper16RadosStriperImpl9aio_flushEv
libradosstriper.so.1:_ZN15libradosstriper16RadosStriperImpl9aio_stat2ERKNSt7__cxx1112basic_stringIcSt11char_traitsIcESaIcEEEPN8librados17AioCompletionImplEPmP8timespec
libradosstriper.so.1:_ZN15libradosstriper16RadosStriperImpl9aio_writeERKNSt7__cxx1112basic_stringIcSt11char_traitsIcESaIcEEEPN8librados17AioCompletionImplERKN4ceph6buffer4listEmm
libradosstriper.so.1:_ZN15libradosstriper16RadosStriperImpl9getxattrsERK8object_tRSt3mapINSt7__cxx1112basic_stringIcSt11char_traitsIcESaIcEEEN4ceph6buffer4listESt4lessISA_ESaISt4pairIKSA_SD_EEE
libradosstriper.so.1:_ZN15libradosstriper16RadosStriperImplC1ERN8librados5IoCtxEPNS1_9IoCtxImplE
libradosstriper.so.1:_ZN15libradosstriper16RadosStriperImplC2ERN8librados5IoCtxEPNS1_9IoCtxImplE
libradosstriper.so.1:_ZN15libradosstriper18MultiAioCompletion11is_completeEv
libradosstriper.so.1:_ZN15libradosstriper18MultiAioCompletion13wait_for_safeEv
libradosstriper.so.1:_ZN15libradosstriper18MultiAioCompletion14is_safe_and_cbEv
libradosstriper.so.1:_ZN15libradosstriper18MultiAioCompletion16get_return_valueEv
libradosstriper.so.1:_ZN15libradosstriper18MultiAioCompletion17set_safe_callbackEPvPFvS1_S1_E
libradosstriper.so.1:_ZN15libradosstriper18MultiAioCompletion17wait_for_completeEv
libradosstriper.so.1:_ZN15libradosstriper18MultiAioCompletion18is_complete_and_cbEv
libradosstriper.so.1:_ZN15libradosstriper18MultiAioCompletion20wait_for_safe_and_cbEv
libradosstriper.so.1:_ZN15libradosstriper18MultiAioCompletion21set_complete_callbackEPvPFvS1_S1_E
libradosstriper.so.1:_ZN15libradosstriper18MultiAioCompletion24wait_for_complete_and_cbEv
libradosstriper.so.1:_ZN15libradosstriper18MultiAioCompletion7is_safeEv
libradosstriper.so.1:_ZN15libradosstriper18MultiAioCompletion7releaseEv
libradosstriper.so.1:_ZN15libradosstriper18MultiAioCompletionD1Ev
libradosstriper.so.1:_ZN15libradosstriper18MultiAioCompletionD2Ev
libradosstriper.so.1:_ZN15libradosstriper22MultiAioCompletionImpl12safe_requestEl
libradosstriper.so.1:_ZN15libradosstriper22MultiAioCompletionImpl16complete_requestEl
libradosstriper.so.1:_ZN15libradosstriper22MultiAioCompletionImpl22finish_adding_requestsEv
libradosstriper.so.1:_ZN15osd_peer_stat_t23generate_test_instancesERNSt7__cxx114listIPS_SaIS2_EEE
libradosstriper.so.1:_ZN15osd_peer_stat_t6decodeERN4ceph6buffer4list8iteratorE
libradosstriper.so.1:_ZN16entity_addrvec_t23generate_test_instancesERNSt7__cxx114listIPS_SaIS2_EEE
libradosstriper.so.1:_ZN16entity_addrvec_t6decodeERN4ceph6buffer4list8iteratorE
libradosstriper.so.1:_ZN16inode_load_vec_t23generate_test_instancesERNSt7__cxx114listIPS_SaIS2_EEE
libradosstriper.so.1:_ZN16inode_load_vec_t4dumpEPN4ceph9FormatterE
libradosstriper.so.1:_ZN16inode_load_vec_t6decodeERK7utime_tRN4ceph6buffer4list8iteratorE
libradosstriper.so.1:_ZN16object_locator_t23generate_test_instancesERNSt7__cxx114listIPS_SaIS2_EEE
libradosstriper.so.1:_ZN16object_locator_t6decodeERN4ceph6buffer4list8iteratorE
libradosstriper.so.1:_ZN16pool_snap_info_t23generate_test_instancesERNSt7__cxx114listIPS_SaIS2_EEE
libradosstriper.so.1:_ZN16pool_snap_info_t6decodeERN4ceph6buffer4list8iteratorE
libradosstriper.so.1:_ZN17AdminSocketClient10do_requestENSt7__cxx1112basic_stringIcSt11char_traitsIcESaIcEEEPS5_
libradosstriper.so.1:_ZN17AdminSocketClient4pingB5cxx11EPb
libradosstriper.so.1:_ZN17AdminSocketClientC1ERKNSt7__cxx1112basic_stringIcSt11char_traitsIcESaIcEEE
libradosstriper.so.1:_ZN17AdminSocketClientC2ERKNSt7__cxx1112basic_stringIcSt11char_traitsIcESaIcEEE
libradosstriper.so.1:_ZN17C_OrderedThrottle6finishEi
libradosstriper.so.1:_ZN17PosixNetworkStackC1EP11CephContextRKNSt7__cxx1112basic_stringIcSt11char_traitsIcESaIcEEE
libradosstriper.so.1:_ZN17PosixNetworkStackC2EP11CephContextRKNSt7__cxx1112basic_stringIcSt11char_traitsIcESaIcEEE
libradosstriper.so.1:_ZN17inode_backtrace_t23generate_test_instancesERNSt7__cxx114listIPS_SaIS2_EEE
libradosstriper.so.1:_ZN17inode_backtrace_t6decodeERN4ceph6buffer4list8iteratorE
libradosstriper.so.1:_ZN17object_id_wrapper6decodeERN4ceph6buffer4list8iteratorE
libradosstriper.so.1:_ZN17object_stat_sum_t23generate_test_instancesERNSt7__cxx114listIPS_SaIS2_EEE
libradosstriper.so.1:_ZN17object_stat_sum_t3addERKS_
libradosstriper.so.1:_ZN17object_stat_sum_t3subERKS_
libradosstriper.so.1:_ZN17object_stat_sum_t6decodeERN4ceph6buffer4list8iteratorE
libradosstriper.so.1:_ZN17osd_shard_wrapper6decodeERN4ceph6buffer4list8iteratorE
libradosstriper.so.1:_ZN17pg_hit_set_info_t23generate_test_instancesERNSt7__cxx114listIPS_SaIS2_EEE
libradosstriper.so.1:_ZN17pg_hit_set_info_t6decodeERN4ceph6buffer4list8iteratorE
libradosstriper.so.1:_ZN17scrub_ls_result_t6decodeERN4ceph6buffer4list8iteratorE
libradosstriper.so.1:_ZN18AuthSessionHandler32print_auth_session_handler_statsEv
libradosstriper.so.1:_ZN18CephInitParametersC1Ej
libradosstriper.so.1:_ZN18CephInitParametersC2Ej
libradosstriper.so.1:_ZN18CephXTicketHandler27verify_service_ticket_replyER9CryptoKeyRN4ceph6buffer4list8iteratorE
libradosstriper.so.1:_ZN18CephXTicketHandler8have_keyEv
libradosstriper.so.1:_ZN18CephXTicketManager16validate_ticketsEjRjS0_
libradosstriper.so.1:_ZN18CephXTicketManager17invalidate_ticketEj
libradosstriper.so.1:_ZN18CephXTicketManager17set_have_need_keyEjRjS0_
libradosstriper.so.1:_ZN18CephXTicketManager27verify_service_ticket_replyER9CryptoKeyRN4ceph6buffer4list8iteratorE
libradosstriper.so.1:_ZN18CephXTicketManager8have_keyEj
libradosstriper.so.1:_ZN18CephxClientHandler12need_ticketsEv
libradosstriper.so.1:_ZN18CephxClientHandler15handle_responseEiRN4ceph6buffer4list8iteratorE
libradosstriper.so.1:_ZN18CephxClientHandler16validate_ticketsEv
libradosstriper.so.1:_ZN18CephxClientHandler21prepare_build_requestEv
libradosstriper.so.1:_ZN18MDSCacheObjectInfo23generate_test_instancesERNSt7__cxx114listIPS_SaIS2_EEE
libradosstriper.so.1:_ZN18MDSCacheObjectInfo6decodeERN4ceph6buffer4list8iteratorE
libradosstriper.so.1:_ZN18ObjectRecoveryInfo23generate_test_instancesERNSt7__cxx114listIPS_SaIS2_EEE
libradosstriper.so.1:_ZN18ObjectRecoveryInfo6decodeERN4ceph6buffer4list8iteratorEl
libradosstriper.so.1:_ZN18dirfrag_load_vec_t23generate_test_instancesERNSt7__cxx114listIPS_SaIS2_EEE
libradosstriper.so.1:_ZN18object_copy_data_t14decode_classicERN4ceph6buffer4list8iteratorE
libradosstriper.so.1:_ZN18object_copy_data_t23generate_test_instancesERNSt7__cxx114listIPS_SaIS2_EEE
libradosstriper.so.1:_ZN18object_copy_data_t6decodeERN4ceph6buffer4list8iteratorE
libradosstriper.so.1:_ZN18request_redirect_t23generate_test_instancesERNSt7__cxx114listIPS_SaIS2_EEE
libradosstriper.so.1:_ZN18request_redirect_t6decodeERN4ceph6buffer4list8iteratorE
libradosstriper.so.1:_ZN18shard_info_wrapper10set_objectERKN8ScrubMap6objectE
libradosstriper.so.1:_ZN18shard_info_wrapper6decodeERN4ceph6buffer4list8iteratorE
libradosstriper.so.1:_ZN19CephxSessionHandler12sign_messageEP7Message
libradosstriper.so.1:_ZN19CephxSessionHandler15_calc_signatureEP7MessagePm
libradosstriper.so.1:_ZN19CephxSessionHandler23check_message_signatureEP7Message
libradosstriper.so.1:_ZN19PerfCountersBuilder11add_u64_avgEiPKcS1_S1_
libradosstriper.so.1:_ZN19PerfCountersBuilder12add_time_avgEiPKcS1_S1_
libradosstriper.so.1:_ZN19PerfCountersBuilder15add_u64_counterEiPKcS1_S1_
libradosstriper.so.1:_ZN19PerfCountersBuilder20create_perf_countersEv
libradosstriper.so.1:_ZN19PerfCountersBuilder7add_u64EiPKcS1_S1_
libradosstriper.so.1:_ZN19PerfCountersBuilder8add_implEiPKcS1_S1_i
libradosstriper.so.1:_ZN19PerfCountersBuilder8add_timeEiPKcS1_S1_
libradosstriper.so.1:_ZN19PerfCountersBuilderC1EP11CephContextRKNSt7__cxx1112basic_stringIcSt11char_traitsIcESaIcEEEii
libradosstriper.so.1:_ZN19PerfCountersBuilderC2EP11CephContextRKNSt7__cxx1112basic_stringIcSt11char_traitsIcESaIcEEEii
libradosstriper.so.1:_ZN19PerfCountersBuilderD1Ev
libradosstriper.so.1:_ZN19PerfCountersBuilderD2Ev
libradosstriper.so.1:_ZN19inode_backpointer_t10decode_oldERN4ceph6buffer4list8iteratorE
libradosstriper.so.1:_ZN19inode_backpointer_t23generate_test_instancesERNSt7__cxx114listIPS_SaIS2_EEE
libradosstriper.so.1:_ZN19inode_backpointer_t6decodeERN4ceph6buffer4list8iteratorE
libradosstriper.so.1:_ZN19mds_table_pending_t23generate_test_instancesERNSt7__cxx114listIPS_SaIS2_EEE
libradosstriper.so.1:_ZN19mds_table_pending_t6decodeERN4ceph6buffer4list8iteratorE
libradosstriper.so.1:_ZN20PrebufferedStreambuf8overflowEi
libradosstriper.so.1:_ZN20PrebufferedStreambuf9underflowEv
libradosstriper.so.1:_ZN20PrebufferedStreambufC1EPcm
libradosstriper.so.1:_ZN20PrebufferedStreambufC2EPcm
libradosstriper.so.1:_ZN20object_copy_cursor_t23generate_test_instancesERNSt7__cxx114listIPS_SaIS2_EEE
libradosstriper.so.1:_ZN20object_copy_cursor_t6decodeERN4ceph6buffer4list8iteratorE
libradosstriper.so.1:_ZN20pg_hit_set_history_t23generate_test_instancesERNSt7__cxx114listIPS_SaIS2_EEE
libradosstriper.so.1:_ZN20pg_hit_set_history_t6decodeERN4ceph6buffer4list8iteratorE
libradosstriper.so.1:_ZN21PosixServerSocketImpl6acceptEP15ConnectedSocketRK13SocketOptionsP13entity_addr_tP6Worker
libradosstriper.so.1:_ZN22ObjectRecoveryProgress23generate_test_instancesERNSt7__cxx114listIPS_SaIS2_EEE
libradosstriper.so.1:_ZN22ObjectRecoveryProgress6decodeERN4ceph6buffer4list8iteratorE
libradosstriper.so.1:_ZN22PerfCountersCollection14dump_formattedEPN4ceph9FormatterEbRKNSt7__cxx1112basic_stringIcSt11char_traitsIcESaIcEEESA_
libradosstriper.so.1:_ZN22PerfCountersCollection3addEP12PerfCounters
libradosstriper.so.1:_ZN22PerfCountersCollection5clearEv
libradosstriper.so.1:_ZN22PerfCountersCollection5resetERKNSt7__cxx1112basic_stringIcSt11char_traitsIcESaIcEEE
libradosstriper.so.1:_ZN22PerfCountersCollection6removeEP12PerfCounters
libradosstriper.so.1:_ZN22PerfCountersCollectionC1EP11CephContext
libradosstriper.so.1:_ZN22PerfCountersCollectionC2EP11CephContext
libradosstriper.so.1:_ZN22PerfCountersCollectionD1Ev
libradosstriper.so.1:_ZN22PerfCountersCollectionD2Ev
libradosstriper.so.1:_ZN23objectstore_perf_stat_t23generate_test_instancesERNSt7__cxx114listIPS_SaIS2_EEE
libradosstriper.so.1:_ZN23objectstore_perf_stat_t6decodeERN4ceph6buffer4list8iteratorE
libradosstriper.so.1:_ZN24client_writeable_range_t23generate_test_instancesERNSt7__cxx114listIPS_SaIS2_EEE
libradosstriper.so.1:_ZN24client_writeable_range_t6decodeERN4ceph6buffer4list8iteratorE
libradosstriper.so.1:_ZN24inconsistent_obj_wrapper16set_auth_missingERK9hobject_tRKSt3mapI10pg_shard_tP8ScrubMapSt4lessIS4_ESaISt4pairIKS4_S6_EEERS3_IS4_18shard_info_wrapperS8_SaIS9_ISA_SG_EEERiSL_
libradosstriper.so.1:_ZN24inconsistent_obj_wrapper6decodeERN4ceph6buffer4list8iteratorE
libradosstriper.so.1:_ZN24inconsistent_obj_wrapper9add_shardERK10pg_shard_tRK18shard_info_wrapper
libradosstriper.so.1:_ZN24inconsistent_obj_wrapperC1ERK9hobject_t
libradosstriper.so.1:_ZN24inconsistent_obj_wrapperC2ERK9hobject_t
libradosstriper.so.1:_ZN24object_stat_collection_t23generate_test_instancesERNSt7__cxx114listIPS_SaIS2_EEE
libradosstriper.so.1:_ZN24object_stat_collection_t6decodeERN4ceph6buffer4list8iteratorE
libradosstriper.so.1:_ZN25compressible_bloom_filter23generate_test_instancesERNSt7__cxx114listIPS_SaIS2_EEE
libradosstriper.so.1:_ZN25compressible_bloom_filter6decodeERN4ceph6buffer4list8iteratorE
libradosstriper.so.1:_ZN28inconsistent_snapset_wrapper12set_headlessEv
libradosstriper.so.1:_ZN28inconsistent_snapset_wrapper17set_clone_missingE8snapid_t
libradosstriper.so.1:_ZN28inconsistent_snapset_wrapper17set_head_mismatchEv
libradosstriper.so.1:_ZN28inconsistent_snapset_wrapper17set_size_mismatchEv
libradosstriper.so.1:_ZN28inconsistent_snapset_wrapper19set_oi_attr_missingEv
libradosstriper.so.1:_ZN28inconsistent_snapset_wrapper19set_ss_attr_missingEv
libradosstriper.so.1:_ZN28inconsistent_snapset_wrapper20set_snapset_mismatchEv
libradosstriper.so.1:_ZN28inconsistent_snapset_wrapper21set_oi_attr_corruptedEv
libradosstriper.so.1:_ZN28inconsistent_snapset_wrapper21set_ss_attr_corruptedEv
libradosstriper.so.1:_ZN28inconsistent_snapset_wrapper6decodeERN4ceph6buffer4list8iteratorE
libradosstriper.so.1:_ZN28inconsistent_snapset_wrapper9set_cloneE8snapid_t
libradosstriper.so.1:_ZN28inconsistent_snapset_wrapperC1ERK9hobject_t
libradosstriper.so.1:_ZN28inconsistent_snapset_wrapperC2ERK9hobject_t
libradosstriper.so.1:_ZN4Pipe10do_sendmsgEP6msghdrjb
libradosstriper.so.1:_ZN4Pipe10handle_ackEm
libradosstriper.so.1:_ZN4Pipe11join_readerEv
libradosstriper.so.1:_ZN4Pipe12read_messageEPP7MessageP18AuthSessionHandler
libradosstriper.so.1:_ZN4Pipe12requeue_sentEv
libradosstriper.so.1:_ZN4Pipe12start_readerEv
libradosstriper.so.1:_ZN4Pipe12start_writerEv
libradosstriper.so.1:_ZN4Pipe13buffered_recvEPcmi
libradosstriper.so.1:_ZN4Pipe13register_pipeEv
libradosstriper.so.1:_ZN4Pipe13stop_and_waitEv
libradosstriper.so.1:_ZN4Pipe13tcp_read_waitEv
libradosstriper.so.1:_ZN4Pipe13write_messageERK15ceph_msg_headerRK15ceph_msg_footerRN4ceph6buffer4listE
libradosstriper.so.1:_ZN4Pipe15DelayedDelivery21stop_fast_dispatchingEv
libradosstriper.so.1:_ZN4Pipe15DelayedDelivery5entryEv
libradosstriper.so.1:_ZN4Pipe15DelayedDelivery5flushEv
libradosstriper.so.1:_ZN4Pipe15DelayedDelivery7discardEv
libradosstriper.so.1:_ZN4Pipe15restore_sigpipeEv
libradosstriper.so.1:_ZN4Pipe15unregister_pipeEv
libradosstriper.so.1:_ZN4Pipe15write_keepaliveEv
libradosstriper.so.1:_ZN4Pipe16suppress_sigpipeEv
libradosstriper.so.1:_ZN4Pipe16write_keepalive2EcRK7utime_t
libradosstriper.so.1:_ZN4Pipe17discard_out_queueEv
libradosstriper.so.1:_ZN4Pipe17randomize_out_seqEv
libradosstriper.so.1:_ZN4Pipe17unlock_maybe_reapEv
libradosstriper.so.1:_ZN4Pipe17was_session_resetEv
libradosstriper.so.1:_ZN4Pipe18set_socket_optionsEv
libradosstriper.so.1:_ZN4Pipe20tcp_read_nonblockingEPcj
libradosstriper.so.1:_ZN4Pipe22discard_requeued_up_toEm
libradosstriper.so.1:_ZN4Pipe24maybe_start_delay_threadEv
libradosstriper.so.1:_ZN4Pipe4joinEv
libradosstriper.so.1:_ZN4Pipe4stopEv
libradosstriper.so.1:_ZN4Pipe5faultEb
libradosstriper.so.1:_ZN4Pipe6acceptEv
libradosstriper.so.1:_ZN4Pipe6readerEv
libradosstriper.so.1:_ZN4Pipe6writerEv
libradosstriper.so.1:_ZN4Pipe7connectEv
libradosstriper.so.1:_ZN4Pipe7do_recvEPcmi
libradosstriper.so.1:_ZN4Pipe8tcp_readEPcj
libradosstriper.so.1:_ZN4Pipe9tcp_writeEPKcj
libradosstriper.so.1:_ZN4Pipe9write_ackEm
libradosstriper.so.1:_ZN4PipeC1EP15SimpleMessengeriP14PipeConnection
libradosstriper.so.1:_ZN4PipeC2EP15SimpleMessengeriP14PipeConnection
libradosstriper.so.1:_ZN4PipeD0Ev
libradosstriper.so.1:_ZN4PipeD1Ev
libradosstriper.so.1:_ZN4PipeD2Ev
libradosstriper.so.1:_ZN4ceph10NetHandler12set_nonblockEi
libradosstriper.so.1:_ZN4ceph10NetHandler12set_priorityEii
libradosstriper.so.1:_ZN4ceph10NetHandler13create_socketEib
libradosstriper.so.1:_ZN4ceph10NetHandler15generic_connectERK13entity_addr_tb
libradosstriper.so.1:_ZN4ceph10NetHandler16nonblock_connectERK13entity_addr_t
libradosstriper.so.1:_ZN4ceph10NetHandler17set_close_on_execEi
libradosstriper.so.1:_ZN4ceph10NetHandler18set_socket_optionsEibi
libradosstriper.so.1:_ZN4ceph10NetHandler7connectERK13entity_addr_t
libradosstriper.so.1:_ZN4ceph10NetHandler9reconnectERK13entity_addr_ti
libradosstriper.so.1:_ZN4ceph11DNSResolver13resolve_cnameEP11CephContextRKNSt7__cxx1112basic_stringIcSt11char_traitsIcESaIcEEEPS8_Pb
libradosstriper.so.1:_ZN4ceph11DNSResolver15resolve_ip_addrEP11CephContextPP11__res_stateRKNSt7__cxx1112basic_stringIcSt11char_traitsIcESaIcEEEP13entity_addr_t
libradosstriper.so.1:_ZN4ceph11DNSResolver15resolve_ip_addrEP11CephContextRKNSt7__cxx1112basic_stringIcSt11char_traitsIcESaIcEEEP13entity_addr_t
libradosstriper.so.1:_ZN4ceph11DNSResolver17resolve_srv_hostsEP11CephContextRKNSt7__cxx1112basic_stringIcSt11char_traitsIcESaIcEEENS0_12SRV_ProtocolEPSt3mapIS8_13entity_addr_tSt4lessIS8_ESaISt4pairIS9_SD_EEE
libradosstriper.so.1:_ZN4ceph11DNSResolver17resolve_srv_hostsEP11CephContextRKNSt7__cxx1112basic_stringIcSt11char_traitsIcESaIcEEENS0_12SRV_ProtocolESA_PSt3mapIS8_13entity_addr_tSt4lessIS8_ESaISt4pairIS9_SD_EEE
libradosstriper.so.1:_ZN4ceph11DNSResolver9get_stateEP11CephContextPP11__res_state
libradosstriper.so.1:_ZN4ceph11DNSResolver9put_stateEP11__res_state
libradosstriper.so.1:_ZN4ceph11DNSResolverD1Ev
libradosstriper.so.1:_ZN4ceph11DNSResolverD2Ev
libradosstriper.so.1:_ZN4ceph11time_detail10real_clock16to_ceph_timespecERKNSt6chrono10time_pointIS1_NS2_8durationImSt5ratioILl1ELl1000000000EEEEEE
libradosstriper.so.1:_ZN4ceph11time_detail10real_clock16to_ceph_timespecERKNSt6chrono10time_pointIS1_NS2_8durationImSt5ratioILl1ELl1000000000EEEEEER13ceph_timespec
libradosstriper.so.1:_ZN4ceph11time_detail10real_clock18from_ceph_timespecERK13ceph_timespec
libradosstriper.so.1:_ZN4ceph11time_detail10real_clock3nowEPK11CephContext
libradosstriper.so.1:_ZN4ceph11time_detail17coarse_real_clock16to_ceph_timespecERKNSt6chrono10time_pointIS1_NS2_8durationImSt5ratioILl1ELl1000000000EEEEEE
libradosstriper.so.1:_ZN4ceph11time_detail17coarse_real_clock16to_ceph_timespecERKNSt6chrono10time_pointIS1_NS2_8durationImSt5ratioILl1ELl1000000000EEEEEER13ceph_timespec
libradosstriper.so.1:_ZN4ceph11time_detail17coarse_real_clock18from_ceph_timespecERK13ceph_timespec
libradosstriper.so.1:_ZN4ceph11time_detail17coarse_real_clock3nowEPK11CephContext
libradosstriper.so.1:_ZN4ceph12HeartbeatMap10add_workerERKNSt7__cxx1112basic_stringIcSt11char_traitsIcESaIcEEEm
libradosstriper.so.1:_ZN4ceph12HeartbeatMap10is_healthyEv
libradosstriper.so.1:_ZN4ceph12HeartbeatMap13clear_timeoutEPNS_18heartbeat_handle_dE
libradosstriper.so.1:_ZN4ceph12HeartbeatMap13remove_workerEPKNS_18heartbeat_handle_dE
libradosstriper.so.1:_ZN4ceph12HeartbeatMap13reset_timeoutEPNS_18heartbeat_handle_dEll
libradosstriper.so.1:_ZN4ceph12HeartbeatMap16check_touch_fileEv
libradosstriper.so.1:_ZN4ceph12HeartbeatMap6_checkEPKNS_18heartbeat_handle_dEPKcl
libradosstriper.so.1:_ZN4ceph12HeartbeatMapC1EP11CephContext
libradosstriper.so.1:_ZN4ceph12HeartbeatMapC2EP11CephContext
libradosstriper.so.1:_ZN4ceph12HeartbeatMapD1Ev
libradosstriper.so.1:_ZN4ceph12HeartbeatMapD2Ev
libradosstriper.so.1:_ZN4ceph12XMLFormatter10dump_floatEPKcd
libradosstriper.so.1:_ZN4ceph12XMLFormatter11dump_streamEPKc
libradosstriper.so.1:_ZN4ceph12XMLFormatter11dump_stringEPKcRKNSt7__cxx1112basic_stringIcSt11char_traitsIcESaIcEEE
libradosstriper.so.1:_ZN4ceph12XMLFormatter12print_spacesEv
libradosstriper.so.1:_ZN4ceph12XMLFormatter13close_sectionEv
libradosstriper.so.1:_ZN4ceph12XMLFormatter13dump_unsignedEPKcm
libradosstriper.so.1:_ZN4ceph12XMLFormatter13get_attrs_strEPKNS_14FormatterAttrsERNSt7__cxx1112basic_stringIcSt11char_traitsIcESaIcEEE
libradosstriper.so.1:_ZN4ceph12XMLFormatter13output_footerEv
libradosstriper.so.1:_ZN4ceph12XMLFormatter13output_headerEv
libradosstriper.so.1:_ZN4ceph12XMLFormatter14dump_format_vaEPKcS2_bS2_P13__va_list_tag
libradosstriper.so.1:_ZN4ceph12XMLFormatter14escape_xml_strB5cxx11EPKc
libradosstriper.so.1:_ZN4ceph12XMLFormatter14write_raw_dataEPKc
libradosstriper.so.1:_ZN4ceph12XMLFormatter18open_array_sectionEPKc
libradosstriper.so.1:_ZN4ceph12XMLFormatter18open_section_in_nsEPKcS2_PKNS_14FormatterAttrsE
libradosstriper.so.1:_ZN4ceph12XMLFormatter19open_object_sectionEPKc
libradosstriper.so.1:_ZN4ceph12XMLFormatter21finish_pending_stringEv
libradosstriper.so.1:_ZN4ceph12XMLFormatter22dump_string_with_attrsEPKcRKNSt7__cxx1112basic_stringIcSt11char_traitsIcESaIcEEERKNS_14FormatterAttrsE
libradosstriper.so.1:_ZN4ceph12XMLFormatter24open_array_section_in_nsEPKcS2_
libradosstriper.so.1:_ZN4ceph12XMLFormatter25open_object_section_in_nsEPKcS2_
libradosstriper.so.1:_ZN4ceph12XMLFormatter29open_array_section_with_attrsEPKcRKNS_14FormatterAttrsE
libradosstriper.so.1:_ZN4ceph12XMLFormatter30open_object_section_with_attrsEPKcRKNS_14FormatterAttrsE
libradosstriper.so.1:_ZN4ceph12XMLFormatter5flushERSo
libradosstriper.so.1:_ZN4ceph12XMLFormatter5resetEv
libradosstriper.so.1:_ZN4ceph12XMLFormatter8dump_intEPKcl
libradosstriper.so.1:_ZN4ceph12XMLFormatterC1Ebb
libradosstriper.so.1:_ZN4ceph12XMLFormatterC2Ebb
libradosstriper.so.1:_ZN4ceph12_get_bits_ofEi
libradosstriper.so.1:_ZN4ceph13HTMLFormatter10dump_floatEPKcd
libradosstriper.so.1:_ZN4ceph13HTMLFormatter10set_statusEiPKc
libradosstriper.so.1:_ZN4ceph13HTMLFormatter11dump_streamEPKc
libradosstriper.so.1:_ZN4ceph13HTMLFormatter11dump_stringEPKcRKNSt7__cxx1112basic_stringIcSt11char_traitsIcESaIcEEE
libradosstriper.so.1:_ZN4ceph13HTMLFormatter13dump_unsignedEPKcm
libradosstriper.so.1:_ZN4ceph13HTMLFormatter13output_headerEv
libradosstriper.so.1:_ZN4ceph13HTMLFormatter14dump_format_vaEPKcS2_bS2_P13__va_list_tag
libradosstriper.so.1:_ZN4ceph13HTMLFormatter22dump_string_with_attrsEPKcRKNSt7__cxx1112basic_stringIcSt11char_traitsIcESaIcEEERKNS_14FormatterAttrsE
libradosstriper.so.1:_ZN4ceph13HTMLFormatter5resetEv
libradosstriper.so.1:_ZN4ceph13HTMLFormatter8dump_intEPKcl
libradosstriper.so.1:_ZN4ceph13HTMLFormatterC1Eb
libradosstriper.so.1:_ZN4ceph13HTMLFormatterC2Eb
libradosstriper.so.1:_ZN4ceph13HTMLFormatterD0Ev
libradosstriper.so.1:_ZN4ceph13HTMLFormatterD1Ev
libradosstriper.so.1:_ZN4ceph13HTMLFormatterD2Ev
libradosstriper.so.1:_ZN4ceph13JSONFormatter10dump_floatEPKcd
libradosstriper.so.1:_ZN4ceph13JSONFormatter10print_nameEPKc
libradosstriper.so.1:_ZN4ceph13JSONFormatter11dump_streamEPKc
libradosstriper.so.1:_ZN4ceph13JSONFormatter11dump_stringEPKcRKNSt7__cxx1112basic_stringIcSt11char_traitsIcESaIcEEE
libradosstriper.so.1:_ZN4ceph13JSONFormatter11print_commaERNS0_28json_formatter_stack_entry_dE
libradosstriper.so.1:_ZN4ceph13JSONFormatter12open_sectionEPKcb
libradosstriper.so.1:_ZN4ceph13JSONFormatter13close_sectionEv
libradosstriper.so.1:_ZN4ceph13JSONFormatter13dump_unsignedEPKcm
libradosstriper.so.1:_ZN4ceph13JSONFormatter14dump_format_vaEPKcS2_bS2_P13__va_list_tag
libradosstriper.so.1:_ZN4ceph13JSONFormatter14write_raw_dataEPKc
libradosstriper.so.1:_ZN4ceph13JSONFormatter18open_array_sectionEPKc
libradosstriper.so.1:_ZN4ceph13JSONFormatter19open_object_sectionEPKc
libradosstriper.so.1:_ZN4ceph13JSONFormatter19print_quoted_stringERKNSt7__cxx1112basic_stringIcSt11char_traitsIcESaIcEEE
libradosstriper.so.1:_ZN4ceph13JSONFormatter21finish_pending_stringEv
libradosstriper.so.1:_ZN4ceph13JSONFormatter24open_array_section_in_nsEPKcS2_
libradosstriper.so.1:_ZN4ceph13JSONFormatter25open_object_section_in_nsEPKcS2_
libradosstriper.so.1:_ZN4ceph13JSONFormatter5flushERSo
libradosstriper.so.1:_ZN4ceph13JSONFormatter5resetEv
libradosstriper.so.1:_ZN4ceph13JSONFormatter8dump_intEPKcl
libradosstriper.so.1:_ZN4ceph13JSONFormatterC1Eb
libradosstriper.so.1:_ZN4ceph13JSONFormatterC2Eb
libradosstriper.so.1:_ZN4ceph14FormatterAttrsC1EPKcz
libradosstriper.so.1:_ZN4ceph14FormatterAttrsC2EPKcz
libradosstriper.so.1:_ZN4ceph14PluginRegistry13get_with_loadERKNSt7__cxx1112basic_stringIcSt11char_traitsIcESaIcEEES8_
libradosstriper.so.1:_ZN4ceph14PluginRegistry3addERKNSt7__cxx1112basic_stringIcSt11char_traitsIcESaIcEEES8_PNS_6PluginE
libradosstriper.so.1:_ZN4ceph14PluginRegistry3getERKNSt7__cxx1112basic_stringIcSt11char_traitsIcESaIcEEES8_
libradosstriper.so.1:_ZN4ceph14PluginRegistry4loadERKNSt7__cxx1112basic_stringIcSt11char_traitsIcESaIcEEES8_
libradosstriper.so.1:_ZN4ceph14PluginRegistry6removeERKNSt7__cxx1112basic_stringIcSt11char_traitsIcESaIcEEES8_
libradosstriper.so.1:_ZN4ceph14PluginRegistryC1EP11CephContext
libradosstriper.so.1:_ZN4ceph14PluginRegistryC2EP11CephContext
libradosstriper.so.1:_ZN4ceph14PluginRegistryD1Ev
libradosstriper.so.1:_ZN4ceph14PluginRegistryD2Ev
libradosstriper.so.1:_ZN4ceph14ResolvHWrapper12__res_nqueryEP11__res_statePKciiPhi
libradosstriper.so.1:_ZN4ceph14ResolvHWrapper13__res_nsearchEP11__res_statePKciiPhi
libradosstriper.so.1:_ZN4ceph14TableFormatter10dump_floatEPKcd
libradosstriper.so.1:_ZN4ceph14TableFormatter11dump_streamEPKc
libradosstriper.so.1:_ZN4ceph14TableFormatter11dump_stringEPKcRKNSt7__cxx1112basic_stringIcSt11char_traitsIcESaIcEEE
libradosstriper.so.1:_ZN4ceph14TableFormatter11m_vec_indexEPKc
libradosstriper.so.1:_ZN4ceph14TableFormatter13close_sectionEv
libradosstriper.so.1:_ZN4ceph14TableFormatter13dump_unsignedEPKcm
libradosstriper.so.1:_ZN4ceph14TableFormatter13get_attrs_strEPKNS_14FormatterAttrsERNSt7__cxx1112basic_stringIcSt11char_traitsIcESaIcEEE
libradosstriper.so.1:_ZN4ceph14TableFormatter14dump_format_vaEPKcS2_bS2_P13__va_list_tag
libradosstriper.so.1:_ZN4ceph14TableFormatter14write_raw_dataEPKc
libradosstriper.so.1:_ZN4ceph14TableFormatter16get_section_nameB5cxx11EPKc
libradosstriper.so.1:_ZN4ceph14TableFormatter18open_array_sectionEPKc
libradosstriper.so.1:_ZN4ceph14TableFormatter18open_section_in_nsEPKcS2_PKNS_14FormatterAttrsE
libradosstriper.so.1:_ZN4ceph14TableFormatter19open_object_sectionEPKc
libradosstriper.so.1:_ZN4ceph14TableFormatter21finish_pending_stringEv
libradosstriper.so.1:_ZN4ceph14TableFormatter22dump_string_with_attrsEPKcRKNSt7__cxx1112basic_stringIcSt11char_traitsIcESaIcEEERKNS_14FormatterAttrsE
libradosstriper.so.1:_ZN4ceph14TableFormatter24open_array_section_in_nsEPKcS2_
libradosstriper.so.1:_ZN4ceph14TableFormatter25open_object_section_in_nsEPKcS2_
libradosstriper.so.1:_ZN4ceph14TableFormatter29open_array_section_with_attrsEPKcRKNS_14FormatterAttrsE
libradosstriper.so.1:_ZN4ceph14TableFormatter30open_object_section_with_attrsEPKcRKNS_14FormatterAttrsE
libradosstriper.so.1:_ZN4ceph14TableFormatter5flushERSo
libradosstriper.so.1:_ZN4ceph14TableFormatter5resetEv
libradosstriper.so.1:_ZN4ceph14TableFormatter8dump_intEPKcl
libradosstriper.so.1:_ZN4ceph14TableFormatterC1Eb
libradosstriper.so.1:_ZN4ceph14TableFormatterC2Eb
libradosstriper.so.1:_ZN4ceph18__ceph_assert_failEPKcS1_iS1_
libradosstriper.so.1:_ZN4ceph18__ceph_assert_warnEPKcS1_iS1_
libradosstriper.so.1:_ZN4ceph19__ceph_assertf_failEPKcS1_iS1_S1_z
libradosstriper.so.1:_ZN4ceph23register_assert_contextEP11CephContext
libradosstriper.so.1:_ZN4ceph6crypto4HMACD1Ev
libradosstriper.so.1:_ZN4ceph6crypto4HMACD2Ev
libradosstriper.so.1:_ZN4ceph6crypto4initEP11CephContext
libradosstriper.so.1:_ZN4ceph6crypto8shutdownEv
libradosstriper.so.1:_ZN4ceph7logging12SubsystemMap13set_log_levelEji
libradosstriper.so.1:_ZN4ceph7logging12SubsystemMap16set_gather_levelEji
libradosstriper.so.1:_ZN4ceph7logging12SubsystemMap3addEjNSt7__cxx1112basic_stringIcSt11char_traitsIcESaIcEEEii
libradosstriper.so.1:_ZN4ceph7logging3Log10reset_segvEv
libradosstriper.so.1:_ZN4ceph7logging3Log11dump_recentEv
libradosstriper.so.1:_ZN4ceph7logging3Log11inject_segvEv
libradosstriper.so.1:_ZN4ceph7logging3Log11set_max_newEi
libradosstriper.so.1:_ZN4ceph7logging3Log12_log_messageEPKcb
libradosstriper.so.1:_ZN4ceph7logging3Log12create_entryEii
libradosstriper.so.1:_ZN4ceph7logging3Log12create_entryEiiPm
libradosstriper.so.1:_ZN4ceph7logging3Log12set_log_fileENSt7__cxx1112basic_stringIcSt11char_traitsIcESaIcEEE
libradosstriper.so.1:_ZN4ceph7logging3Log12stop_graylogEv
libradosstriper.so.1:_ZN4ceph7logging3Log12submit_entryEPNS0_5EntryE
libradosstriper.so.1:_ZN4ceph7logging3Log13start_graylogEv
libradosstriper.so.1:_ZN4ceph7logging3Log14chown_log_fileEjj
libradosstriper.so.1:_ZN4ceph7logging3Log14set_max_recentEi
libradosstriper.so.1:_ZN4ceph7logging3Log15reopen_log_fileEv
libradosstriper.so.1:_ZN4ceph7logging3Log16set_stderr_levelEii
libradosstriper.so.1:_ZN4ceph7logging3Log16set_syslog_levelEii
libradosstriper.so.1:_ZN4ceph7logging3Log17set_flush_on_exitEv
libradosstriper.so.1:_ZN4ceph7logging3Log17set_graylog_levelEii
libradosstriper.so.1:_ZN4ceph7logging3Log18is_inside_log_lockEv
libradosstriper.so.1:_ZN4ceph7logging3Log4stopEv
libradosstriper.so.1:_ZN4ceph7logging3Log5entryEv
libradosstriper.so.1:_ZN4ceph7logging3Log5flushEv
libradosstriper.so.1:_ZN4ceph7logging3Log5startEv
libradosstriper.so.1:_ZN4ceph7logging3Log6_flushEPNS0_10EntryQueueES3_b
libradosstriper.so.1:_ZN4ceph7logging3LogC1EPNS0_12SubsystemMapE
libradosstriper.so.1:_ZN4ceph7logging3LogC2EPNS0_12SubsystemMapE
libradosstriper.so.1:_ZN4ceph7logging3LogD0Ev
libradosstriper.so.1:_ZN4ceph7logging3LogD1Ev
libradosstriper.so.1:_ZN4ceph7logging3LogD2Ev
libradosstriper.so.1:_ZN4ceph7logging7Graylog12set_hostnameERKNSt7__cxx1112basic_stringIcSt11char_traitsIcESaIcEEE
libradosstriper.so.1:_ZN4ceph7logging7Graylog13log_log_entryEPK8LogEntry
libradosstriper.so.1:_ZN4ceph7logging7Graylog15set_destinationERKNSt7__cxx1112basic_stringIcSt11char_traitsIcESaIcEEEi
libradosstriper.so.1:_ZN4ceph7logging7Graylog8set_fsidERK6uuid_d
libradosstriper.so.1:_ZN4ceph7logging7Graylog9log_entryEPKNS0_5EntryE
libradosstriper.so.1:_ZN4ceph7logging7GraylogC1ENSt7__cxx1112basic_stringIcSt11char_traitsIcESaIcEEE
libradosstriper.so.1:_ZN4ceph7logging7GraylogC1EPKNS0_12SubsystemMapENSt7__cxx1112basic_stringIcSt11char_traitsIcESaIcEEE
libradosstriper.so.1:_ZN4ceph7logging7GraylogC2ENSt7__cxx1112basic_stringIcSt11char_traitsIcESaIcEEE
libradosstriper.so.1:_ZN4ceph7logging7GraylogC2EPKNS0_12SubsystemMapENSt7__cxx1112basic_stringIcSt11char_traitsIcESaIcEEE
libradosstriper.so.1:_ZN4ceph7logging7GraylogD0Ev
libradosstriper.so.1:_ZN4ceph7logging7GraylogD1Ev
libradosstriper.so.1:_ZN4ceph7logging7GraylogD2Ev
libradosstriper.so.1:_ZN4ceph9BackTrace5printERSo
libradosstriper.so.1:_ZN4ceph9Formatter11dump_formatEPKcS2_z
libradosstriper.so.1:_ZN4ceph9Formatter14dump_format_nsEPKcS2_S2_z
libradosstriper.so.1:_ZN4ceph9Formatter20dump_format_unquotedEPKcS2_z
libradosstriper.so.1:_ZN4ceph9Formatter5flushERNS_6buffer4listE
libradosstriper.so.1:_ZN4ceph9Formatter6createERKNSt7__cxx1112basic_stringIcSt11char_traitsIcESaIcEEES8_S8_
libradosstriper.so.1:_ZN4ceph9FormatterC1Ev
libradosstriper.so.1:_ZN4ceph9FormatterC2Ev
libradosstriper.so.1:_ZN4ceph9FormatterD0Ev
libradosstriper.so.1:_ZN4ceph9FormatterD1Ev
libradosstriper.so.1:_ZN4ceph9FormatterD2Ev
libradosstriper.so.1:_ZN4cephlsERSoRKNSt6chrono8durationImSt5ratioILl1ELl1000000000EEEE
libradosstriper.so.1:_ZN4pg_t23generate_test_instancesERNSt7__cxx114listIPS_SaIS2_EEE
libradosstriper.so.1:_ZN4pg_t5parseEPKc
libradosstriper.so.1:_ZN5FSMap21assign_standby_replayE9mds_gid_tii
libradosstriper.so.1:_ZN5FSMap23generate_test_instancesERNSt7__cxx114listIPS_SaIS2_EEE
libradosstriper.so.1:_ZN5FSMap4stopB5cxx11E9mds_gid_t
libradosstriper.so.1:_ZN5FSMap5eraseE9mds_gid_tj
libradosstriper.so.1:_ZN5FSMap6decodeERN4ceph6buffer4list8iteratorE
libradosstriper.so.1:_ZN5FSMap6insertERKN6MDSMap10mds_info_tE
libradosstriper.so.1:_ZN5FSMap7damagedE9mds_gid_tj
libradosstriper.so.1:_ZN5FSMap7promoteE9mds_gid_tRKSt10shared_ptrI10FilesystemEi
libradosstriper.so.1:_ZN5FSMap9undamagedEii
libradosstriper.so.1:_ZN5Mutex4LockEb
libradosstriper.so.1:_ZN5Mutex6UnlockEv
libradosstriper.so.1:_ZN5MutexC1ERKNSt7__cxx1112basic_stringIcSt11char_traitsIcESaIcEEEbbbP11CephContext
libradosstriper.so.1:_ZN5MutexC2ERKNSt7__cxx1112basic_stringIcSt11char_traitsIcESaIcEEEbbbP11CephContext
libradosstriper.so.1:_ZN5MutexD1Ev
libradosstriper.so.1:_ZN5MutexD2Ev
libradosstriper.so.1:_ZN5OSDOp27merge_osd_op_vector_in_dataERSt6vectorIS_SaIS_EERN4ceph6buffer4listE
libradosstriper.so.1:_ZN5OSDOp27split_osd_op_vector_in_dataERSt6vectorIS_SaIS_EERN4ceph6buffer4listE
libradosstriper.so.1:_ZN5OSDOp28merge_osd_op_vector_out_dataERSt6vectorIS_SaIS_EERN4ceph6buffer4listE
libradosstriper.so.1:_ZN5OSDOp28split_osd_op_vector_out_dataERSt6vectorIS_SaIS_EERN4ceph6buffer4listE
libradosstriper.so.1:_ZN5boost11this_thread18interruption_pointEv
libradosstriper.so.1:_ZN5boost11this_thread20disable_interruptionC1Ev
libradosstriper.so.1:_ZN5boost11this_thread20disable_interruptionC2Ev
libradosstriper.so.1:_ZN5boost11this_thread20disable_interruptionD1Ev
libradosstriper.so.1:_ZN5boost11this_thread20disable_interruptionD2Ev
libradosstriper.so.1:_ZN5boost11this_thread20interruption_enabledEv
libradosstriper.so.1:_ZN5boost11this_thread20restore_interruptionC1ERNS0_20disable_interruptionE
libradosstriper.so.1:_ZN5boost11this_thread20restore_interruptionC2ERNS0_20disable_interruptionE
libradosstriper.so.1:_ZN5boost11this_thread20restore_interruptionD1Ev
libradosstriper.so.1:_ZN5boost11this_thread20restore_interruptionD2Ev
libradosstriper.so.1:_ZN5boost11this_thread21no_interruption_point6hidden11sleep_untilERK8timespec
libradosstriper.so.1:_ZN5boost11this_thread21no_interruption_point6hidden9sleep_forERK8timespec
libradosstriper.so.1:_ZN5boost11this_thread22interruption_requestedEv
libradosstriper.so.1:_ZN5boost11this_thread5yieldEv
libradosstriper.so.1:_ZN5boost11this_thread6hidden11sleep_untilERK8timespec
libradosstriper.so.1:_ZN5boost11this_thread6hidden9sleep_forERK8timespec
libradosstriper.so.1:_ZN5boost13thread_detail17enter_once_regionERNS_9once_flagE
libradosstriper.so.1:_ZN5boost13thread_detail18commit_once_regionERNS_9once_flagE
libradosstriper.so.1:_ZN5boost13thread_detail20rollback_once_regionERNS_9once_flagE
libradosstriper.so.1:_ZN5boost25notify_all_at_thread_exitERNS_18condition_variableENS_11unique_lockINS_5mutexEEE
libradosstriper.so.1:_ZN5boost6detail12get_tss_dataEPKv
libradosstriper.so.1:_ZN5boost6detail12set_tss_dataEPKvNS_10shared_ptrINS0_20tss_cleanup_functionEEEPvb
libradosstriper.so.1:_ZN5boost6detail13find_tss_dataEPKv
libradosstriper.so.1:_ZN5boost6detail14erase_tss_nodeEPKv
libradosstriper.so.1:_ZN5boost6detail16add_new_tss_nodeEPKvNS_10shared_ptrINS0_20tss_cleanup_functionEEEPv
libradosstriper.so.1:_ZN5boost6detail16thread_data_baseD0Ev
libradosstriper.so.1:_ZN5boost6detail16thread_data_baseD1Ev
libradosstriper.so.1:_ZN5boost6detail16thread_data_baseD2Ev
libradosstriper.so.1:_ZN5boost6detail23get_current_thread_dataEv
libradosstriper.so.1:_ZN5boost6detail23set_current_thread_dataEPNS0_16thread_data_baseE
libradosstriper.so.1:_ZN5boost6detail24add_thread_exit_functionEPNS0_25thread_exit_function_baseE
libradosstriper.so.1:_ZN5boost6detail25make_external_thread_dataEv
libradosstriper.so.1:_ZN5boost6detail25make_ready_at_thread_exitENS_10shared_ptrINS0_17shared_state_baseEEE
libradosstriper.so.1:_ZN5boost6detail31get_or_make_current_thread_dataEv
libradosstriper.so.1:_ZN5boost6random13random_deviceC1ERKNSt7__cxx1112basic_stringIcSt11char_traitsIcESaIcEEE
libradosstriper.so.1:_ZN5boost6random13random_deviceC1Ev
libradosstriper.so.1:_ZN5boost6random13random_deviceC2ERKNSt7__cxx1112basic_stringIcSt11char_traitsIcESaIcEEE
libradosstriper.so.1:_ZN5boost6random13random_deviceC2Ev
libradosstriper.so.1:_ZN5boost6random13random_deviceD1Ev
libradosstriper.so.1:_ZN5boost6random13random_deviceD2Ev
libradosstriper.so.1:_ZN5boost6random13random_deviceclEv
libradosstriper.so.1:_ZN5boost6system15system_categoryEv
libradosstriper.so.1:_ZN5boost6system16generic_categoryEv
libradosstriper.so.1:_ZN5boost6thread13join_noexceptEv
libradosstriper.so.1:_ZN5boost6thread13native_handleEv
libradosstriper.so.1:_ZN5boost6thread20hardware_concurrencyEv
libradosstriper.so.1:_ZN5boost6thread20physical_concurrencyEv
libradosstriper.so.1:_ZN5boost6thread21start_thread_noexceptERKNS_17thread_attributesE
libradosstriper.so.1:_ZN5boost6thread21start_thread_noexceptEv
libradosstriper.so.1:_ZN5boost6thread26do_try_join_until_noexceptERK8timespecRb
libradosstriper.so.1:_ZN5boost6thread6detachEv
libradosstriper.so.1:_ZN5boost6thread9interruptEv
libradosstriper.so.1:_ZN5boost6threadC1Ev
libradosstriper.so.1:_ZN5boost6threadC2Ev
libradosstriper.so.1:_ZN5boost9iostreams10zlib_error5checkEi
libradosstriper.so.1:_ZN5boost9iostreams10zlib_errorC1Ei
libradosstriper.so.1:_ZN5boost9iostreams10zlib_errorC2Ei
libradosstriper.so.1:_ZN5boost9iostreams6detail9zlib_base5afterERPKcRPcb
libradosstriper.so.1:_ZN5boost9iostreams6detail9zlib_base5resetEbb
libradosstriper.so.1:_ZN5boost9iostreams6detail9zlib_base6beforeERPKcS4_RPcS6_
libradosstriper.so.1:_ZN5boost9iostreams6detail9zlib_base7do_initERKNS0_11zlib_paramsEbPFPvS6_jjEPFvS6_S6_ES6_
libradosstriper.so.1:_ZN5boost9iostreams6detail9zlib_base8xdeflateEi
libradosstriper.so.1:_ZN5boost9iostreams6detail9zlib_base8xinflateEi
libradosstriper.so.1:_ZN5boost9iostreams6detail9zlib_baseC1Ev
libradosstriper.so.1:_ZN5boost9iostreams6detail9zlib_baseC2Ev
libradosstriper.so.1:_ZN5boost9iostreams6detail9zlib_baseD1Ev
libradosstriper.so.1:_ZN5boost9iostreams6detail9zlib_baseD2Ev
libradosstriper.so.1:_ZN5rados3cls4lock10aio_unlockEPN8librados5IoCtxERKNSt7__cxx1112basic_stringIcSt11char_traitsIcESaIcEEESC_SC_PNS2_13AioCompletionE
libradosstriper.so.1:_ZN5rados3cls4lock10break_lockEPN8librados20ObjectWriteOperationERKNSt7__cxx1112basic_stringIcSt11char_traitsIcESaIcEEESC_RK13entity_name_t
libradosstriper.so.1:_ZN5rados3cls4lock10break_lockEPN8librados5IoCtxERKNSt7__cxx1112basic_stringIcSt11char_traitsIcESaIcEEESC_SC_RK13entity_name_t
libradosstriper.so.1:_ZN5rados3cls4lock10list_locksEPN8librados5IoCtxERKNSt7__cxx1112basic_stringIcSt11char_traitsIcESaIcEEEPNS5_4listISA_SaISA_EEE
libradosstriper.so.1:_ZN5rados3cls4lock10set_cookieEPN8librados20ObjectWriteOperationERKNSt7__cxx1112basic_stringIcSt11char_traitsIcESaIcEEE11ClsLockTypeSC_SC_SC_
libradosstriper.so.1:_ZN5rados3cls4lock13assert_lockedEPN8librados15ObjectOperationERKNSt7__cxx1112basic_stringIcSt11char_traitsIcESaIcEEE11ClsLockTypeSC_SC_
libradosstriper.so.1:_ZN5rados3cls4lock13get_lock_infoEPN8librados5IoCtxERKNSt7__cxx1112basic_stringIcSt11char_traitsIcESaIcEEESC_PSt3mapINS1_11locker_id_tENS1_13locker_info_tESt4lessISE_ESaISt4pairIKSE_SF_EEEP11ClsLockTypePSA_
libradosstriper.so.1:_ZN5rados3cls4lock19get_lock_info_startEPN8librados19ObjectReadOperationERKNSt7__cxx1112basic_stringIcSt11char_traitsIcESaIcEEE
libradosstriper.so.1:_ZN5rados3cls4lock20get_lock_info_finishEPN4ceph6buffer4list8iteratorEPSt3mapINS1_11locker_id_tENS1_13locker_info_tESt4lessIS8_ESaISt4pairIKS8_S9_EEEP11ClsLockTypePNSt7__cxx1112basic_stringIcSt11char_traitsIcESaIcEEE
libradosstriper.so.1:_ZN5rados3cls4lock4Lock10break_lockEPN8librados20ObjectWriteOperationERK13entity_name_t
libradosstriper.so.1:_ZN5rados3cls4lock4Lock10break_lockEPN8librados5IoCtxERKNSt7__cxx1112basic_stringIcSt11char_traitsIcESaIcEEERK13entity_name_t
libradosstriper.so.1:_ZN5rados3cls4lock4Lock11lock_sharedEPN8librados20ObjectWriteOperationE
libradosstriper.so.1:_ZN5rados3cls4lock4Lock11lock_sharedEPN8librados5IoCtxERKNSt7__cxx1112basic_stringIcSt11char_traitsIcESaIcEEE
libradosstriper.so.1:_ZN5rados3cls4lock4Lock14lock_exclusiveEPN8librados20ObjectWriteOperationE
libradosstriper.so.1:_ZN5rados3cls4lock4Lock14lock_exclusiveEPN8librados5IoCtxERKNSt7__cxx1112basic_stringIcSt11char_traitsIcESaIcEEE
libradosstriper.so.1:_ZN5rados3cls4lock4Lock20assert_locked_sharedEPN8librados15ObjectOperationE
libradosstriper.so.1:_ZN5rados3cls4lock4Lock23assert_locked_exclusiveEPN8librados15ObjectOperationE
libradosstriper.so.1:_ZN5rados3cls4lock4Lock6unlockEPN8librados20ObjectWriteOperationE
libradosstriper.so.1:_ZN5rados3cls4lock4Lock6unlockEPN8librados5IoCtxERKNSt7__cxx1112basic_stringIcSt11char_traitsIcESaIcEEE
libradosstriper.so.1:_ZN5rados3cls4lock4lockEPN8librados20ObjectWriteOperationERKNSt7__cxx1112basic_stringIcSt11char_traitsIcESaIcEEE11ClsLockTypeSC_SC_SC_RK7utime_th
libradosstriper.so.1:_ZN5rados3cls4lock4lockEPN8librados5IoCtxERKNSt7__cxx1112basic_stringIcSt11char_traitsIcESaIcEEESC_11ClsLockTypeSC_SC_SC_RK7utime_th
libradosstriper.so.1:_ZN5rados3cls4lock6unlockEPN8librados20ObjectWriteOperationERKNSt7__cxx1112basic_stringIcSt11char_traitsIcESaIcEEESC_
libradosstriper.so.1:_ZN5rados3cls4lock6unlockEPN8librados5IoCtxERKNSt7__cxx1112basic_stringIcSt11char_traitsIcESaIcEEESC_SC_
libradosstriper.so.1:_ZN5spg_t5parseEPKc
libradosstriper.so.1:_ZN6HitSet23generate_test_instancesERNSt7__cxx114listIPS_SaIS2_EEE
libradosstriper.so.1:_ZN6HitSet6Params11create_implENS_11impl_type_tE
libradosstriper.so.1:_ZN6HitSet6Params23generate_test_instancesERNSt7__cxx114listIPS0_SaIS3_EEE
libradosstriper.so.1:_ZN6HitSet6Params6decodeERN4ceph6buffer4list8iteratorE
libradosstriper.so.1:_ZN6HitSet6ParamsC1ERKS0_
libradosstriper.so.1:_ZN6HitSet6ParamsC2ERKS0_
libradosstriper.so.1:_ZN6HitSet6ParamsaSERKS0_
libradosstriper.so.1:_ZN6HitSet6decodeERN4ceph6buffer4list8iteratorE
libradosstriper.so.1:_ZN6HitSetC1ERKNS_6ParamsE
libradosstriper.so.1:_ZN6HitSetC2ERKNS_6ParamsE
libradosstriper.so.1:_ZN6MDSMap10mds_info_t23generate_test_instancesERNSt7__cxx114listIPS0_SaIS3_EEE
libradosstriper.so.1:_ZN6MDSMap10mds_info_t6decodeERN4ceph6buffer4list8iteratorE
libradosstriper.so.1:_ZN6MDSMap22state_transition_validENS_11DaemonStateES0_
libradosstriper.so.1:_ZN6MDSMap23generate_test_instancesERNSt7__cxx114listIPS_SaIS2_EEE
libradosstriper.so.1:_ZN6MDSMap6decodeERN4ceph6buffer4list8iteratorE
libradosstriper.so.1:_ZN6MonCap13set_allow_allEv
libradosstriper.so.1:_ZN6MonCap23generate_test_instancesERNSt7__cxx114listIPS_SaIS2_EEE
libradosstriper.so.1:_ZN6MonCap5parseERKNSt7__cxx1112basic_stringIcSt11char_traitsIcESaIcEEEPSo
libradosstriper.so.1:_ZN6MonCap6decodeERN4ceph6buffer4list8iteratorE
libradosstriper.so.1:_ZN6MonMap10calc_ranksEv
libradosstriper.so.1:_ZN6MonMap13build_initialEP11CephContextRSo
libradosstriper.so.1:_ZN6MonMap13sanitize_monsERSt3mapINSt7__cxx1112basic_stringIcSt11char_traitsIcESaIcEEE13entity_addr_tSt4lessIS6_ESaISt4pairIKS6_S7_EEE
libradosstriper.so.1:_ZN6MonMap19set_initial_membersEP11CephContextRNSt7__cxx114listINS2_12basic_stringIcSt11char_traitsIcESaIcEEESaIS8_EEES8_RK13entity_addr_tPSt3setISC_St4lessISC_ESaISC_EE
libradosstriper.so.1:_ZN6MonMap20build_from_host_listENSt7__cxx1112basic_stringIcSt11char_traitsIcESaIcEEES5_
libradosstriper.so.1:_ZN6MonMap23generate_test_instancesERNSt7__cxx114listIPS_SaIS2_EEE
libradosstriper.so.1:_ZN6MonMap4readEPKc
libradosstriper.so.1:_ZN6MonMap5writeEPKc
libradosstriper.so.1:_ZN6MonMap6decodeERN4ceph6buffer4list8iteratorE
libradosstriper.so.1:_ZN6OSDMap11Incremental14decode_classicERN4ceph6buffer4list8iteratorE
libradosstriper.so.1:_ZN6OSDMap11Incremental23generate_test_instancesERNSt7__cxx114listIPS0_SaIS3_EEE
libradosstriper.so.1:_ZN6OSDMap11Incremental24propagate_snaps_to_tiersEP11CephContextRKS_
libradosstriper.so.1:_ZN6OSDMap11Incremental6decodeERN4ceph6buffer4list8iteratorE
libradosstriper.so.1:_ZN6OSDMap11clean_tempsEP11CephContextRKS_PNS_11IncrementalE
libradosstriper.so.1:_ZN6OSDMap11post_decodeEv
libradosstriper.so.1:_ZN6OSDMap11set_max_osdEi
libradosstriper.so.1:_ZN6OSDMap12build_simpleEP11CephContextjR6uuid_diii
libradosstriper.so.1:_ZN6OSDMap12calc_pg_rankEiRKSt6vectorIiSaIiEEi
libradosstriper.so.1:_ZN6OSDMap12calc_pg_roleEiRKSt6vectorIiSaIiEEi
libradosstriper.so.1:_ZN6OSDMap13calc_num_osdsEv
libradosstriper.so.1:_ZN6OSDMap14calc_state_setEiRSt3setINSt7__cxx1112basic_stringIcSt11char_traitsIcESaIcEEESt4lessIS6_ESaIS6_EE
libradosstriper.so.1:_ZN6OSDMap14decode_classicERN4ceph6buffer4list8iteratorE
libradosstriper.so.1:_ZN6OSDMap15get_flag_stringB5cxx11Ej
libradosstriper.so.1:_ZN6OSDMap15primary_changedEiRKSt6vectorIiSaIiEEiS4_
libradosstriper.so.1:_ZN6OSDMap17apply_incrementalERKNS_11IncrementalE
libradosstriper.so.1:_ZN6OSDMap18_build_crush_typesER12CrushWrapper
libradosstriper.so.1:_ZN6OSDMap21_calc_up_osd_featuresEv
libradosstriper.so.1:_ZN6OSDMap22build_simple_crush_mapEP11CephContextR12CrushWrapperiPSo
libradosstriper.so.1:_ZN6OSDMap23generate_test_instancesERNSt7__cxx114listIPS_SaIS2_EEE
libradosstriper.so.1:_ZN6OSDMap26dump_erasure_code_profilesERKSt3mapINSt7__cxx1112basic_stringIcSt11char_traitsIcESaIcEEES0_IS6_S6_St4lessIS6_ESaISt4pairIKS6_S6_EEES8_SaIS9_ISA_SD_EEEPN4ceph9FormatterE
libradosstriper.so.1:_ZN6OSDMap27build_simple_crush_rulesetsEP11CephContextR12CrushWrapperRKNSt7__cxx1112basic_stringIcSt11char_traitsIcESaIcEEEPSo
libradosstriper.so.1:_ZN6OSDMap32build_simple_crush_map_from_confEP11CephContextR12CrushWrapperPSo
libradosstriper.so.1:_ZN6OSDMap32get_erasure_code_profile_defaultEP11CephContextRSt3mapINSt7__cxx1112basic_stringIcSt11char_traitsIcESaIcEEES8_St4lessIS8_ESaISt4pairIKS8_S8_EEEPSo
libradosstriper.so.1:_ZN6OSDMap5dedupEPKS_PS_
libradosstriper.so.1:_ZN6OSDMap6decodeERN4ceph6buffer4list8iteratorE
libradosstriper.so.1:_ZN6OSDMap6decodeERN4ceph6buffer4listE
libradosstriper.so.1:_ZN6OSDMap9set_epochEj
libradosstriper.so.1:_ZN6PullOp23generate_test_instancesERNSt7__cxx114listIPS_SaIS2_EEE
libradosstriper.so.1:_ZN6PullOp6decodeERN4ceph6buffer4list8iteratorE
libradosstriper.so.1:_ZN6PushOp23generate_test_instancesERNSt7__cxx114listIPS_SaIS2_EEE
libradosstriper.so.1:_ZN6PushOp6decodeERN4ceph6buffer4list8iteratorE
libradosstriper.so.1:_ZN6Thread10set_ioprioEii
libradosstriper.so.1:_ZN6Thread10try_createEm
libradosstriper.so.1:_ZN6Thread11_entry_funcEPv
libradosstriper.so.1:_ZN6Thread12set_affinityEi
libradosstriper.so.1:_ZN6Thread13entry_wrapperEv
libradosstriper.so.1:_ZN6Thread4joinEPPv
libradosstriper.so.1:_ZN6Thread4killEi
libradosstriper.so.1:_ZN6Thread6createEPKcm
libradosstriper.so.1:_ZN6Thread6detachEv
libradosstriper.so.1:_ZN6ThreadC1Ev
libradosstriper.so.1:_ZN6ThreadC2Ev
libradosstriper.so.1:_ZN6ThreadD0Ev
libradosstriper.so.1:_ZN6ThreadD1Ev
libradosstriper.so.1:_ZN6ThreadD2Ev
libradosstriper.so.1:_ZN6coll_t23generate_test_instancesERNSt7__cxx114listIPS_SaIS2_EEE
libradosstriper.so.1:_ZN6coll_t5parseERKNSt7__cxx1112basic_stringIcSt11char_traitsIcESaIcEEE
libradosstriper.so.1:_ZN6coll_t6decodeERN4ceph6buffer4list8iteratorE
libradosstriper.so.1:_ZN6coll_t8calc_strEv
libradosstriper.so.1:_ZN7KeyRing12create_emptyEv
libradosstriper.so.1:_ZN7KeyRing12set_modifierEPKcS1_R10EntityNameRSt3mapINSt7__cxx1112basic_stringIcSt11char_traitsIcESaIcEEEN4ceph6buffer4listESt4lessISA_ESaISt4pairIKSA_SD_EEE
libradosstriper.so.1:_ZN7KeyRing16decode_plaintextERN4ceph6buffer4list8iteratorE
libradosstriper.so.1:_ZN7KeyRing16encode_formattedENSt7__cxx1112basic_stringIcSt11char_traitsIcESaIcEEEPN4ceph9FormatterERNS6_6buffer4listE
libradosstriper.so.1:_ZN7KeyRing16encode_plaintextERN4ceph6buffer4listE
libradosstriper.so.1:_ZN7KeyRing17from_ceph_contextEP11CephContext
libradosstriper.so.1:_ZN7KeyRing4loadEP11CephContextRKNSt7__cxx1112basic_stringIcSt11char_traitsIcESaIcEEE
libradosstriper.so.1:_ZN7KeyRing5printERSo
libradosstriper.so.1:_ZN7KeyRing6decodeERN4ceph6buffer4list8iteratorE
libradosstriper.so.1:_ZN7KeyRing6importEP11CephContextRS_
libradosstriper.so.1:_ZN7Message6encodeEmi
libradosstriper.so.1:_ZN7SnapSet13from_snap_setERKN8librados10snap_set_tE
libradosstriper.so.1:_ZN7SnapSet23generate_test_instancesERNSt7__cxx114listIPS_SaIS2_EEE
libradosstriper.so.1:_ZN7SnapSet6decodeERN4ceph6buffer4list8iteratorE
libradosstriper.so.1:_ZN7SnapSet6filterERK9pg_pool_t
libradosstriper.so.1:_ZN7Striper14extent_to_fileEP11CephContextP13file_layout_tmmmRSt6vectorISt4pairImmESaIS6_EE
libradosstriper.so.1:_ZN7Striper15file_to_extentsEP11CephContextPKcPK13file_layout_tmmmRSt3mapI8object_tSt6vectorI12ObjectExtentSaISA_EESt4lessIS8_ESaISt4pairIKS8_SC_EEEm
libradosstriper.so.1:_ZN7Striper15file_to_extentsEP11CephContextPKcPK13file_layout_tmmmRSt6vectorI12ObjectExtentSaIS8_EEm
libradosstriper.so.1:_ZN7Striper15get_num_objectsERK13file_layout_tm
libradosstriper.so.1:_ZN7Striper17StripedReadResult15assemble_resultEP11CephContextPcm
libradosstriper.so.1:_ZN7Striper17StripedReadResult15assemble_resultEP11CephContextRN4ceph6buffer4listEb
libradosstriper.so.1:_ZN7Striper17StripedReadResult18add_partial_resultEP11CephContextRN4ceph6buffer4listERKSt6vectorISt4pairImmESaIS9_EE
libradosstriper.so.1:_ZN7Striper17StripedReadResult25add_partial_sparse_resultEP11CephContextRN4ceph6buffer4listERKSt3mapImmSt4lessImESaISt4pairIKmmEEEmRKSt6vectorISA_ImmESaISI_EE
libradosstriper.so.1:_ZN7Striper18assimilate_extentsERSt3mapI8object_tSt6vectorI12ObjectExtentSaIS3_EESt4lessIS1_ESaISt4pairIKS1_S5_EEERS5_
libradosstriper.so.1:_ZN7Striper20object_truncate_sizeEP11CephContextPK13file_layout_tmm
libradosstriper.so.1:_ZN7fnode_t23generate_test_instancesERNSt7__cxx114listIPS_SaIS2_EEE
libradosstriper.so.1:_ZN7fnode_t6decodeERN4ceph6buffer4list8iteratorE
libradosstriper.so.1:_ZN7inode_t23generate_test_instancesERNSt7__cxx114listIPS_SaIS2_EEE
libradosstriper.so.1:_ZN7inode_t6decodeERN4ceph6buffer4list8iteratorE
libradosstriper.so.1:_ZN7mempool13get_pool_nameENS_12pool_index_tE
libradosstriper.so.1:_ZN7mempool14set_debug_modeEb
libradosstriper.so.1:_ZN7mempool4dumpEPN4ceph9FormatterEm
libradosstriper.so.1:_ZN7mempool8get_poolENS_12pool_index_tE
libradosstriper.so.1:_ZN8Accepter15create_selfpipeEPiS0_
libradosstriper.so.1:_ZN8Accepter4bindERK13entity_addr_tRKSt3setIiSt4lessIiESaIiEE
libradosstriper.so.1:_ZN8Accepter4stopEv
libradosstriper.so.1:_ZN8Accepter5entryEv
libradosstriper.so.1:_ZN8Accepter5startEv
libradosstriper.so.1:_ZN8Accepter6rebindERKSt3setIiSt4lessIiESaIiEE
libradosstriper.so.1:_ZN8ConfFile10parse_fileERKNSt7__cxx1112basic_stringIcSt11char_traitsIcESaIcEEEPSt5dequeIS5_SaIS5_EEPSo
libradosstriper.so.1:_ZN8ConfFile12process_lineEiPKcPSt5dequeINSt7__cxx1112basic_stringIcSt11char_traitsIcESaIcEEESaIS8_EE
libradosstriper.so.1:_ZN8ConfFile15trim_whitespaceERNSt7__cxx1112basic_stringIcSt11char_traitsIcESaIcEEEb
libradosstriper.so.1:_ZN8ConfFile16load_from_bufferEPKcmPSt5dequeINSt7__cxx1112basic_stringIcSt11char_traitsIcESaIcEEESaIS8_EEPSo
libradosstriper.so.1:_ZN8ConfFile16parse_bufferlistEPN4ceph6buffer4listEPSt5dequeINSt7__cxx1112basic_stringIcSt11char_traitsIcESaIcEEESaISA_EEPSo
libradosstriper.so.1:_ZN8ConfFile18normalize_key_nameERKNSt7__cxx1112basic_stringIcSt11char_traitsIcESaIcEEE
libradosstriper.so.1:_ZN8ConfFile5clearEv
libradosstriper.so.1:_ZN8ConfFileC1Ev
libradosstriper.so.1:_ZN8ConfFileC2Ev
libradosstriper.so.1:_ZN8ConfFileD1Ev
libradosstriper.so.1:_ZN8ConfFileD2Ev
libradosstriper.so.1:_ZN8ConfLineC1ERKNSt7__cxx1112basic_stringIcSt11char_traitsIcESaIcEEES5_S5_S5_i
libradosstriper.so.1:_ZN8ConfLineC2ERKNSt7__cxx1112basic_stringIcSt11char_traitsIcESaIcEEES5_S5_S5_i
libradosstriper.so.1:_ZN8Finisher14wait_for_emptyEv
libradosstriper.so.1:_ZN8Finisher21finisher_thread_entryEv
libradosstriper.so.1:_ZN8Finisher4stopEv
libradosstriper.so.1:_ZN8Finisher5startEv
libradosstriper.so.1:_ZN8LogEntry13log_to_syslogENSt7__cxx1112basic_stringIcSt11char_traitsIcESaIcEEES5_
libradosstriper.so.1:_ZN8LogEntry23generate_test_instancesERNSt7__cxx114listIPS_SaIS2_EEE
libradosstriper.so.1:_ZN8LogEntry6decodeERN4ceph6buffer4list8iteratorE
libradosstriper.so.1:_ZN8Objecter10OSDSession8get_lockER8object_t
libradosstriper.so.1:_ZN8Objecter10OSDSessionD0Ev
libradosstriper.so.1:_ZN8Objecter10OSDSessionD1Ev
libradosstriper.so.1:_ZN8Objecter10OSDSessionD2Ev
libradosstriper.so.1:_ZN8Objecter10_finish_opEPNS_2OpEi
libradosstriper.so.1:_ZN8Objecter10_op_cancelEmi
libradosstriper.so.1:_ZN8Objecter10_op_submitEPNS_2OpERN4ceph13shunique_lockIN5boost12shared_mutexEEEPm
libradosstriper.so.1:_ZN8Objecter10start_tickEv
libradosstriper.so.1:_ZN8Objecter11_list_replyEPNS_11ListContextEiP7Contextj
libradosstriper.so.1:_ZN8Objecter11create_poolERNSt7__cxx1112basic_stringIcSt11char_traitsIcESaIcEEEP7Contextmi
libradosstriper.so.1:_ZN8Objecter11delete_poolERKNSt7__cxx1112basic_stringIcSt11char_traitsIcESaIcEEEP7Context
libradosstriper.so.1:_ZN8Objecter11delete_poolElP7Context
libradosstriper.so.1:_ZN8Objecter11dump_activeEv
libradosstriper.so.1:_ZN8Objecter11get_sessionEPNS_10OSDSessionE
libradosstriper.so.1:_ZN8Objecter11ms_dispatchEP7Message
libradosstriper.so.1:_ZN8Objecter11put_sessionEPNS_10OSDSessionE
libradosstriper.so.1:_ZN8Objecter12_calc_targetEPNS_11op_target_tEb
libradosstriper.so.1:_ZN8Objecter12_dump_activeEPNS_10OSDSessionE
libradosstriper.so.1:_ZN8Objecter12_dump_activeEv
libradosstriper.so.1:_ZN8Objecter12_get_sessionEiPPNS_10OSDSessionERN4ceph13shunique_lockIN5boost12shared_mutexEEE
libradosstriper.so.1:_ZN8Objecter12_linger_pingEPNS_8LingerOpEiNSt6chrono10time_pointIN4ceph11time_detail10mono_clockENS2_8durationImSt5ratioILl1ELl1000000000EEEEEEj
libradosstriper.so.1:_ZN8Objecter12_map_sessionEPNS_11op_target_tEPPNS_10OSDSessionERN4ceph13shunique_lockIN5boost12shared_mutexEEE
libradosstriper.so.1:_ZN8Objecter12_nlist_replyEPNS_12NListContextEiP7Contextj
libradosstriper.so.1:_ZN8Objecter12_send_lingerEPNS_8LingerOpERN4ceph13shunique_lockIN5boost12shared_mutexEEE
libradosstriper.so.1:_ZN8Objecter12_throttle_opEPNS_2OpERN4ceph13shunique_lockIN5boost12shared_mutexEEEi
libradosstriper.so.1:_ZN8Objecter12get_fs_statsER11ceph_statfsP7Context
libradosstriper.so.1:_ZN8Objecter12linger_checkEPNS_8LingerOpE
libradosstriper.so.1:_ZN8Objecter12linger_watchEPNS_8LingerOpER15ObjectOperationRK11SnapContextNSt6chrono10time_pointIN4ceph11time_detail10real_clockENS7_8durationImSt5ratioILl1ELl1000000000EEEEEERNS9_6buffer4listEP7ContextPm
libradosstriper.so.1:_ZN8Objecter12list_objectsEPNS_11ListContextEP7Context
libradosstriper.so.1:_ZN8Objecter12wait_for_mapEjP7Contexti
libradosstriper.so.1:_ZN8Objecter13_send_commandEPNS_9CommandOpE
libradosstriper.so.1:_ZN8Objecter13close_sessionEPNS_10OSDSessionE
libradosstriper.so.1:_ZN8Objecter13dump_requestsEPN4ceph9FormatterE
libradosstriper.so.1:_ZN8Objecter13is_pg_changedEiRKSt6vectorIiSaIiEEiS4_b
libradosstriper.so.1:_ZN8Objecter13kick_requestsEPNS_10OSDSessionE
libradosstriper.so.1:_ZN8Objecter13linger_cancelEPNS_8LingerOpE
libradosstriper.so.1:_ZN8Objecter13linger_notifyEPNS_8LingerOpER15ObjectOperation8snapid_tRN4ceph6buffer4listEPS7_P7ContextPm
libradosstriper.so.1:_ZN8Objecter13list_nobjectsEPNS_12NListContextEP7Context
libradosstriper.so.1:_ZN8Objecter14_kick_requestsEPNS_10OSDSessionERSt3mapImPNS_8LingerOpESt4lessImESaISt4pairIKmS4_EEE
libradosstriper.so.1:_ZN8Objecter14_linger_cancelEPNS_8LingerOpE
libradosstriper.so.1:_ZN8Objecter14_linger_commitEPNS_8LingerOpEiRN4ceph6buffer4listE
libradosstriper.so.1:_ZN8Objecter14_linger_submitEPNS_8LingerOpERN4ceph13shunique_lockIN5boost12shared_mutexEEE
libradosstriper.so.1:_ZN8Objecter14_scan_requestsEPNS_10OSDSessionEbbPSt3mapIlbSt4lessIlESaISt4pairIKlbEEERS2_ImPNS_2OpES3_ImESaIS5_IKmSC_EEERNSt7__cxx114listIPNS_8LingerOpESaISM_EEERS2_ImPNS_9CommandOpESD_SaIS5_ISE_SR_EEERN4ceph13shunique_lockIN5boost12shared_mutexEEE
libradosstriper.so.1:_ZN8Objecter14blacklist_selfEb
libradosstriper.so.1:_ZN8Objecter14calc_op_budgetEPNS_2OpE
libradosstriper.so.1:_ZN8Objecter14get_pool_statsERNSt7__cxx114listINS0_12basic_stringIcSt11char_traitsIcESaIcEEESaIS6_EEEPSt3mapIS6_11pool_stat_tSt4lessIS6_ESaISt4pairIKS6_SB_EEEP7Context
libradosstriper.so.1:_ZN8Objecter14handle_osd_mapEP7MOSDMap
libradosstriper.so.1:_ZN8Objecter14pool_op_cancelEmi
libradosstriper.so.1:_ZN8Objecter14pool_op_submitEPNS_6PoolOpE
libradosstriper.so.1:_ZN8Objecter14pool_snap_listElPSt6vectorImSaImEE
libradosstriper.so.1:_ZN8Objecter14resend_mon_opsEv
libradosstriper.so.1:_ZN8Objecter14submit_commandEPNS_9CommandOpEPm
libradosstriper.so.1:_ZN8Objecter15C_Op_Map_Latest6finishEi
libradosstriper.so.1:_ZN8Objecter15_do_delete_poolElP7Context
libradosstriper.so.1:_ZN8Objecter15_finish_commandEPNS_9CommandOpEiNSt7__cxx1112basic_stringIcSt11char_traitsIcESaIcEEE
libradosstriper.so.1:_ZN8Objecter15_finish_pool_opEPNS_6PoolOpEi
libradosstriper.so.1:_ZN8Objecter15_pool_op_submitEPNS_6PoolOpE
libradosstriper.so.1:_ZN8Objecter15_prepare_osd_opEPNS_2OpE
libradosstriper.so.1:_ZN8Objecter15_reopen_sessionEPNS_10OSDSessionE
libradosstriper.so.1:_ZN8Objecter15_sg_read_finishERSt6vectorI12ObjectExtentSaIS1_EERS0_IN4ceph6buffer4listESaIS7_EEPS7_P7Context
libradosstriper.so.1:_ZN8Objecter15dump_linger_opsEPN4ceph9FormatterE
libradosstriper.so.1:_ZN8Objecter15linger_registerERK8object_tRK16object_locator_ti
libradosstriper.so.1:_ZN8Objecter15ms_handle_resetEP10Connection
libradosstriper.so.1:_ZN8Objecter16RequestStateHook4callENSt7__cxx1112basic_stringIcSt11char_traitsIcESaIcEEERSt3mapIS6_N5boost7variantIS6_JbldSt6vectorIS6_SaIS6_EESA_IlSaIlEEEEESt4lessIS6_ESaISt4pairIKS6_SF_EEES6_RN4ceph6buffer4listE
libradosstriper.so.1:_ZN8Objecter16RequestStateHookC1EPS_
libradosstriper.so.1:_ZN8Objecter16RequestStateHookC2EPS_
libradosstriper.so.1:_ZN8Objecter16_do_watch_notifyEPNS_8LingerOpEP12MWatchNotify
libradosstriper.so.1:_ZN8Objecter16_dump_linger_opsEPKNS_10OSDSessionEPN4ceph9FormatterE
libradosstriper.so.1:_ZN8Objecter16_enumerate_replyERN4ceph6buffer4listEiRK9hobject_tlijPNSt7__cxx114listIN8librados14ListObjectImplESaISA_EEEPS4_P7Context
libradosstriper.so.1:_ZN8Objecter16_fs_stats_submitEPNS_8StatfsOpE
libradosstriper.so.1:_ZN8Objecter16_poolstat_submitEPNS_10PoolStatOpE
libradosstriper.so.1:_ZN8Objecter16_send_op_accountEPNS_2OpE
libradosstriper.so.1:_ZN8Objecter16change_pool_auidElP7Contextm
libradosstriper.so.1:_ZN8Objecter16create_pool_snapElRNSt7__cxx1112basic_stringIcSt11char_traitsIcESaIcEEEP7Context
libradosstriper.so.1:_ZN8Objecter16delete_pool_snapElRNSt7__cxx1112basic_stringIcSt11char_traitsIcESaIcEEEP7Context
libradosstriper.so.1:_ZN8Objecter16dump_command_opsEPN4ceph9FormatterE
libradosstriper.so.1:_ZN8Objecter16op_cancel_writesEil
libradosstriper.so.1:_ZN8Objecter16statfs_op_cancelEmi
libradosstriper.so.1:_ZN8Objecter16wait_for_osd_mapEv
libradosstriper.so.1:_ZN8Objecter17_cancel_linger_opEPNS_2OpE
libradosstriper.so.1:_ZN8Objecter17_dump_command_opsEPKNS_10OSDSessionEPN4ceph9FormatterE
libradosstriper.so.1:_ZN8Objecter17_finish_statfs_opEPNS_8StatfsOpEi
libradosstriper.so.1:_ZN8Objecter17_linger_reconnectEPNS_8LingerOpEi
libradosstriper.so.1:_ZN8Objecter17_send_linger_pingEPNS_8LingerOpE
libradosstriper.so.1:_ZN8Objecter17_wait_for_new_mapEP7Contextji
libradosstriper.so.1:_ZN8Objecter17command_op_cancelEPNS_10OSDSessionEmi
libradosstriper.so.1:_ZN8Objecter17enumerate_objectsElRKNSt7__cxx1112basic_stringIcSt11char_traitsIcESaIcEEERK9hobject_tSA_jRKN4ceph6buffer4listEPNS0_4listIN8librados14ListObjectImplESaISI_EEEPS8_P7Context
libradosstriper.so.1:_ZN8Objecter17list_objects_seekEPNS_11ListContextEj
libradosstriper.so.1:_ZN8Objecter17maybe_request_mapEv
libradosstriper.so.1:_ZN8Objecter17ms_get_authorizerEiPP14AuthAuthorizerb
libradosstriper.so.1:_ZN8Objecter17ms_handle_connectEP10Connection
libradosstriper.so.1:_ZN8Objecter17ms_handle_refusedEP10Connection
libradosstriper.so.1:_ZN8Objecter17pool_snap_by_nameElPKcP8snapid_t
libradosstriper.so.1:_ZN8Objecter17set_epoch_barrierEj
libradosstriper.so.1:_ZN8Objecter18_check_op_pool_dneEPNS_2OpERSt11unique_lockIN5boost12shared_mutexEE
libradosstriper.so.1:_ZN8Objecter18_linger_ops_resendERSt3mapImPNS_8LingerOpESt4lessImESaISt4pairIKmS2_EEERSt11unique_lockIN5boost12shared_mutexEE
libradosstriper.so.1:_ZN8Objecter18_maybe_request_mapEv
libradosstriper.so.1:_ZN8Objecter18_send_op_map_checkEPNS_2OpE
libradosstriper.so.1:_ZN8Objecter18_session_op_assignEPNS_10OSDSessionEPNS_2OpE
libradosstriper.so.1:_ZN8Objecter18_session_op_removeEPNS_10OSDSessionEPNS_2OpE
libradosstriper.so.1:_ZN8Objecter18get_latest_versionEjjP7Context
libradosstriper.so.1:_ZN8Objecter18handle_conf_changeEPK11md_config_tRKSt3setINSt7__cxx1112basic_stringIcSt11char_traitsIcESaIcEEESt4lessIS9_ESaIS9_EE
libradosstriper.so.1:_ZN8Objecter18list_nobjects_seekEPNS_12NListContextEj
libradosstriper.so.1:_ZN8Objecter18pool_snap_get_infoEl8snapid_tP16pool_snap_info_t
libradosstriper.so.1:_ZN8Objecter19C_Linger_Map_Latest6finishEi
libradosstriper.so.1:_ZN8Objecter19_get_latest_versionEjjP7Context
libradosstriper.so.1:_ZN8Objecter19handle_osd_op_replyEP11MOSDOpReply
libradosstriper.so.1:_ZN8Objecter19handle_watch_notifyEP12MWatchNotify
libradosstriper.so.1:_ZN8Objecter19pool_stat_op_cancelEmi
libradosstriper.so.1:_ZN8Objecter20C_Command_Map_Latest6finishEi
libradosstriper.so.1:_ZN8Objecter20_calc_command_targetEPNS_9CommandOpERN4ceph13shunique_lockIN5boost12shared_mutexEEE
libradosstriper.so.1:_ZN8Objecter20_finish_pool_stat_opEPNS_10PoolStatOpEi
libradosstriper.so.1:_ZN8Objecter20_op_cancel_map_checkEPNS_2OpE
libradosstriper.so.1:_ZN8Objecter20handle_command_replyEP13MCommandReply
libradosstriper.so.1:_ZN8Objecter20handle_pool_op_replyEP12MPoolOpReply
libradosstriper.so.1:_ZN8Objecter20update_pool_full_mapERSt3mapIlbSt4lessIlESaISt4pairIKlbEEE
libradosstriper.so.1:_ZN8Objecter21enumerate_objects_endEv
libradosstriper.so.1:_ZN8Objecter21handle_fs_stats_replyEP12MStatfsReply
libradosstriper.so.1:_ZN8Objecter21update_crush_locationEv
libradosstriper.so.1:_ZN8Objecter22_check_command_map_dneEPNS_9CommandOpE
libradosstriper.so.1:_ZN8Objecter22_check_linger_pool_dneEPNS_8LingerOpEPb
libradosstriper.so.1:_ZN8Objecter22_normalize_watch_errorEi
libradosstriper.so.1:_ZN8Objecter22_op_submit_with_budgetEPNS_2OpERN4ceph13shunique_lockIN5boost12shared_mutexEEEPmPi
libradosstriper.so.1:_ZN8Objecter22_send_linger_map_checkEPNS_8LingerOpE
libradosstriper.so.1:_ZN8Objecter22ms_handle_remote_resetEP10Connection
libradosstriper.so.1:_ZN8Objecter22wait_for_latest_osdmapEP7Context
libradosstriper.so.1:_ZN8Objecter23_assign_command_sessionEPNS_9CommandOpERN4ceph13shunique_lockIN5boost12shared_mutexEEE
libradosstriper.so.1:_ZN8Objecter23_send_command_map_checkEPNS_9CommandOpE
libradosstriper.so.1:_ZN8Objecter23delete_selfmanaged_snapEl8snapid_tP7Context
libradosstriper.so.1:_ZN8Objecter23enumerate_objects_beginEv
libradosstriper.so.1:_ZN8Objecter23put_list_context_budgetEPNS_11ListContextE
libradosstriper.so.1:_ZN8Objecter23target_should_be_pausedEPNS_11op_target_tE
libradosstriper.so.1:_ZN8Objecter24_linger_cancel_map_checkEPNS_8LingerOpE
libradosstriper.so.1:_ZN8Objecter24_recalc_linger_op_targetEPNS_8LingerOpERN4ceph13shunique_lockIN5boost12shared_mutexEEE
libradosstriper.so.1:_ZN8Objecter24get_object_hash_positionElRKNSt7__cxx1112basic_stringIcSt11char_traitsIcESaIcEEES7_
libradosstriper.so.1:_ZN8Objecter24put_nlist_context_budgetEPNS_12NListContextE
libradosstriper.so.1:_ZN8Objecter25_command_cancel_map_checkEPNS_9CommandOpE
libradosstriper.so.1:_ZN8Objecter25_session_linger_op_assignEPNS_10OSDSessionEPNS_8LingerOpE
libradosstriper.so.1:_ZN8Objecter25_session_linger_op_removeEPNS_10OSDSessionEPNS_8LingerOpE
libradosstriper.so.1:_ZN8Objecter25allocate_selfmanaged_snapElP8snapid_tP7Context
libradosstriper.so.1:_ZN8Objecter26_session_command_op_assignEPNS_10OSDSessionEPNS_9CommandOpE
libradosstriper.so.1:_ZN8Objecter26_session_command_op_removeEPNS_10OSDSessionEPNS_9CommandOpE
libradosstriper.so.1:_ZN8Objecter27get_object_pg_hash_positionElRKNSt7__cxx1112basic_stringIcSt11char_traitsIcESaIcEEES7_
libradosstriper.so.1:_ZN8Objecter27handle_get_pool_stats_replyEP18MGetPoolStatsReply
libradosstriper.so.1:_ZN8Objecter4initEv
libradosstriper.so.1:_ZN8Objecter4tickEv
libradosstriper.so.1:_ZN8Objecter5startEPK6OSDMap
libradosstriper.so.1:_ZN8Objecter8_send_opEPNS_2OpEP6MOSDOp
libradosstriper.so.1:_ZN8Objecter8dump_opsEPN4ceph9FormatterE
libradosstriper.so.1:_ZN8Objecter8have_mapEj
libradosstriper.so.1:_ZN8Objecter8shutdownEv
libradosstriper.so.1:_ZN8Objecter9_dump_opsEPKNS_10OSDSessionEPN4ceph9FormatterE
libradosstriper.so.1:_ZN8Objecter9finish_opEPNS_10OSDSessionEm
libradosstriper.so.1:_ZN8Objecter9op_cancelEPNS_10OSDSessionEmi
libradosstriper.so.1:_ZN8Objecter9op_cancelEmi
libradosstriper.so.1:_ZN8Objecter9op_submitEPNS_2OpEPmPi
libradosstriper.so.1:_ZN8ObjecterD0Ev
libradosstriper.so.1:_ZN8ObjecterD1Ev
libradosstriper.so.1:_ZN8ObjecterD2Ev
libradosstriper.so.1:_ZN8ScrubMap10merge_incrERKS_
libradosstriper.so.1:_ZN8ScrubMap23generate_test_instancesERNSt7__cxx114listIPS_SaIS2_EEE
libradosstriper.so.1:_ZN8ScrubMap6decodeERN4ceph6buffer4list8iteratorEl
libradosstriper.so.1:_ZN8ScrubMap6object23generate_test_instancesERNSt7__cxx114listIPS0_SaIS3_EEE
libradosstriper.so.1:_ZN8ScrubMap6object6decodeERN4ceph6buffer4list8iteratorE
libradosstriper.so.1:_ZN8Throttle10_reset_maxEl
libradosstriper.so.1:_ZN8Throttle11get_or_failEl
libradosstriper.so.1:_ZN8Throttle3getEll
libradosstriper.so.1:_ZN8Throttle3putEl
libradosstriper.so.1:_ZN8Throttle4takeEl
libradosstriper.so.1:_ZN8Throttle4waitEl
libradosstriper.so.1:_ZN8Throttle5_waitEl
libradosstriper.so.1:_ZN8Throttle5resetEv
libradosstriper.so.1:_ZN8ThrottleC1EP11CephContextRKNSt7__cxx1112basic_stringIcSt11char_traitsIcESaIcEEElb
libradosstriper.so.1:_ZN8ThrottleC2EP11CephContextRKNSt7__cxx1112basic_stringIcSt11char_traitsIcESaIcEEElb
libradosstriper.so.1:_ZN8ThrottleD1Ev
libradosstriper.so.1:_ZN8ThrottleD2Ev
libradosstriper.so.1:_ZN8librados11RadosClient10handle_logEP4MLog
libradosstriper.so.1:_ZN8librados11RadosClient10pg_commandE4pg_tRSt6vectorINSt7__cxx1112basic_stringIcSt11char_traitsIcESaIcEEESaIS8_EERKN4ceph6buffer4listEPSE_PS8_
libradosstriper.so.1:_ZN8librados11RadosClient11lookup_poolEPKc
libradosstriper.so.1:_ZN8librados11RadosClient11mgr_commandERKSt6vectorINSt7__cxx1112basic_stringIcSt11char_traitsIcESaIcEEESaIS7_EERKN4ceph6buffer4listEPSE_PS7_
libradosstriper.so.1:_ZN8librados11RadosClient11mon_commandENSt7__cxx1112basic_stringIcSt11char_traitsIcESaIcEEERKSt6vectorIS6_SaIS6_EERKN4ceph6buffer4listEPSE_PS6_
libradosstriper.so.1:_ZN8librados11RadosClient11mon_commandERKSt6vectorINSt7__cxx1112basic_stringIcSt11char_traitsIcESaIcEEESaIS7_EERKN4ceph6buffer4listEPSE_PS7_
libradosstriper.so.1:_ZN8librados11RadosClient11mon_commandEiRKSt6vectorINSt7__cxx1112basic_stringIcSt11char_traitsIcESaIcEEESaIS7_EERKN4ceph6buffer4listEPSE_PS7_
libradosstriper.so.1:_ZN8librados11RadosClient11monitor_logERKNSt7__cxx1112basic_stringIcSt11char_traitsIcESaIcEEEPFvPvPKcSB_mmmSB_SB_ES9_
libradosstriper.so.1:_ZN8librados11RadosClient11ms_dispatchEP7Message
libradosstriper.so.1:_ZN8librados11RadosClient11osd_commandEiRSt6vectorINSt7__cxx1112basic_stringIcSt11char_traitsIcESaIcEEESaIS7_EERKN4ceph6buffer4listEPSD_PS7_
libradosstriper.so.1:_ZN8librados11RadosClient11pool_createERNSt7__cxx1112basic_stringIcSt11char_traitsIcESaIcEEEys
libradosstriper.so.1:_ZN8librados11RadosClient11pool_deleteEPKc
libradosstriper.so.1:_ZN8librados11RadosClient11watch_flushEv
libradosstriper.so.1:_ZN8librados11RadosClient12create_ioctxEPKcPPNS_9IoCtxImplE
libradosstriper.so.1:_ZN8librados11RadosClient12create_ioctxElPPNS_9IoCtxImplE
libradosstriper.so.1:_ZN8librados11RadosClient12get_fs_statsER11ceph_statfs
libradosstriper.so.1:_ZN8librados11RadosClient12ping_monitorENSt7__cxx1112basic_stringIcSt11char_traitsIcESaIcEEEPS6_
libradosstriper.so.1:_ZN8librados11RadosClient13blacklist_addERKNSt7__cxx1112basic_stringIcSt11char_traitsIcESaIcEEEj
libradosstriper.so.1:_ZN8librados11RadosClient13pool_get_auidEmPy
libradosstriper.so.1:_ZN8librados11RadosClient13pool_get_nameEmPNSt7__cxx1112basic_stringIcSt11char_traitsIcESaIcEEE
libradosstriper.so.1:_ZN8librados11RadosClient14blacklist_selfEb
libradosstriper.so.1:_ZN8librados11RadosClient14get_pool_statsERNSt7__cxx114listINS1_12basic_stringIcSt11char_traitsIcESaIcEEESaIS7_EEERSt3mapIS7_11pool_stat_tSt4lessIS7_ESaISt4pairIKS7_SC_EEE
libradosstriper.so.1:_ZN8librados11RadosClient15get_instance_idEv
libradosstriper.so.1:_ZN8librados11RadosClient15ms_handle_resetEP10Connection
libradosstriper.so.1:_ZN8librados11RadosClient15wait_for_osdmapEv
libradosstriper.so.1:_ZN8librados11RadosClient17async_watch_flushEPNS_17AioCompletionImplE
libradosstriper.so.1:_ZN8librados11RadosClient17ms_get_authorizerEiPP14AuthAuthorizerb
libradosstriper.so.1:_ZN8librados11RadosClient17ms_handle_connectEP10Connection
libradosstriper.so.1:_ZN8librados11RadosClient17ms_handle_refusedEP10Connection
libradosstriper.so.1:_ZN8librados11RadosClient17pool_create_asyncERNSt7__cxx1112basic_stringIcSt11char_traitsIcESaIcEEEPNS_23PoolAsyncCompletionImplEys
libradosstriper.so.1:_ZN8librados11RadosClient17pool_delete_asyncEPKcPNS_23PoolAsyncCompletionImplE
libradosstriper.so.1:_ZN8librados11RadosClient18pool_get_base_tierElPl
libradosstriper.so.1:_ZN8librados11RadosClient22ms_handle_remote_resetEP10Connection
libradosstriper.so.1:_ZN8librados11RadosClient22wait_for_latest_osdmapEv
libradosstriper.so.1:_ZN8librados11RadosClient23pool_required_alignmentEl
libradosstriper.so.1:_ZN8librados11RadosClient23pool_requires_alignmentEl
libradosstriper.so.1:_ZN8librados11RadosClient24pool_required_alignment2ElPm
libradosstriper.so.1:_ZN8librados11RadosClient24pool_requires_alignment2ElPb
libradosstriper.so.1:_ZN8librados11RadosClient34get_pool_is_selfmanaged_snaps_modeERKNSt7__cxx1112basic_stringIcSt11char_traitsIcESaIcEEE
libradosstriper.so.1:_ZN8librados11RadosClient3getEv
libradosstriper.so.1:_ZN8librados11RadosClient3putEv
libradosstriper.so.1:_ZN8librados11RadosClient7connectEv
libradosstriper.so.1:_ZN8librados11RadosClient8get_fsidEPNSt7__cxx1112basic_stringIcSt11char_traitsIcESaIcEEE
libradosstriper.so.1:_ZN8librados11RadosClient8shutdownEv
libradosstriper.so.1:_ZN8librados11RadosClient9_dispatchEP7Message
libradosstriper.so.1:_ZN8librados11RadosClient9pool_listERNSt7__cxx114listISt4pairIlNS1_12basic_stringIcSt11char_traitsIcESaIcEEEESaIS9_EEE
libradosstriper.so.1:_ZN8librados11RadosClientC1EP11CephContext
libradosstriper.so.1:_ZN8librados11RadosClientC2EP11CephContext
libradosstriper.so.1:_ZN8librados11RadosClientD0Ev
libradosstriper.so.1:_ZN8librados11RadosClientD1Ev
libradosstriper.so.1:_ZN8librados11RadosClientD2Ev
libradosstriper.so.1:_ZN8librados15RadosXattrsIterC1Ev
libradosstriper.so.1:_ZN8librados15RadosXattrsIterC2Ev
libradosstriper.so.1:_ZN8librados15RadosXattrsIterD1Ev
libradosstriper.so.1:_ZN8librados15RadosXattrsIterD2Ev
libradosstriper.so.1:_ZN8librados9IoCtxImpl10C_aio_Safe6finishEi
libradosstriper.so.1:_ZN8librados9IoCtxImpl10C_aio_SafeC1EPNS_17AioCompletionImplE
libradosstriper.so.1:_ZN8librados9IoCtxImpl10C_aio_SafeC2EPNS_17AioCompletionImplE
libradosstriper.so.1:_ZN8librados9IoCtxImpl10aio_appendERK8object_tPNS_17AioCompletionImplERKN4ceph6buffer4listEm
libradosstriper.so.1:_ZN8librados9IoCtxImpl10aio_cancelEPNS_17AioCompletionImplE
libradosstriper.so.1:_ZN8librados9IoCtxImpl10aio_notifyERK8object_tPNS_17AioCompletionImplERN4ceph6buffer4listEmPS8_PPcPm
libradosstriper.so.1:_ZN8librados9IoCtxImpl10aio_removeERK8object_tPNS_17AioCompletionImplEi
libradosstriper.so.1:_ZN8librados9IoCtxImpl10nlist_seekEPN8Objecter12NListContextEj
libradosstriper.so.1:_ZN8librados9IoCtxImpl10notify_ackERK8object_tmmRN4ceph6buffer4listE
libradosstriper.so.1:_ZN8librados9IoCtxImpl10write_fullERK8object_tRN4ceph6buffer4listE
libradosstriper.so.1:_ZN8librados9IoCtxImpl11aio_operateERK8object_tP15ObjectOperationPNS_17AioCompletionImplERK11SnapContexti
libradosstriper.so.1:_ZN8librados9IoCtxImpl11aio_rmxattrERK8object_tPNS_17AioCompletionImplEPKc
libradosstriper.so.1:_ZN8librados9IoCtxImpl11aio_unwatchEmPNS_17AioCompletionImplE
libradosstriper.so.1:_ZN8librados9IoCtxImpl11cache_unpinERK8object_t
libradosstriper.so.1:_ZN8librados9IoCtxImpl11clone_rangeERK8object_tmS3_mm
libradosstriper.so.1:_ZN8librados9IoCtxImpl11hit_set_getEjPNS_17AioCompletionImplElPN4ceph6buffer4listE
libradosstriper.so.1:_ZN8librados9IoCtxImpl11snap_createEPKc
libradosstriper.so.1:_ZN8librados9IoCtxImpl11snap_lookupEPKcPm
libradosstriper.so.1:_ZN8librados9IoCtxImpl11snap_removeEPKc
libradosstriper.so.1:_ZN8librados9IoCtxImpl11sparse_readERK8object_tRSt3mapImmSt4lessImESaISt4pairIKmmEEERN4ceph6buffer4listEmm
libradosstriper.so.1:_ZN8librados9IoCtxImpl11tmap_updateERK8object_tRN4ceph6buffer4listE
libradosstriper.so.1:_ZN8librados9IoCtxImpl11watch_checkEm
libradosstriper.so.1:_ZN8librados9IoCtxImpl12aio_getxattrERK8object_tPNS_17AioCompletionImplEPKcRN4ceph6buffer4listE
libradosstriper.so.1:_ZN8librados9IoCtxImpl12aio_setxattrERK8object_tPNS_17AioCompletionImplEPKcRN4ceph6buffer4listE
libradosstriper.so.1:_ZN8librados9IoCtxImpl12hit_set_listEjPNS_17AioCompletionImplEPNSt7__cxx114listISt4pairIllESaIS6_EEE
libradosstriper.so.1:_ZN8librados9IoCtxImpl12last_versionEv
libradosstriper.so.1:_ZN8librados9IoCtxImpl12operate_readERK8object_tP15ObjectOperationPN4ceph6buffer4listEi
libradosstriper.so.1:_ZN8librados9IoCtxImpl12tmap_to_omapERK8object_tb
libradosstriper.so.1:_ZN8librados9IoCtxImpl13aio_getxattrsERK8object_tPNS_17AioCompletionImplERSt3mapINSt7__cxx1112basic_stringIcSt11char_traitsIcESaIcEEEN4ceph6buffer4listESt4lessISC_ESaISt4pairIKSC_SF_EEE
libradosstriper.so.1:_ZN8librados9IoCtxImpl13aio_writesameERK8object_tPNS_17AioCompletionImplERKN4ceph6buffer4listEmm
libradosstriper.so.1:_ZN8librados9IoCtxImpl13set_snap_readE8snapid_t
libradosstriper.so.1:_ZN8librados9IoCtxImpl13snap_get_nameEmPNSt7__cxx1112basic_stringIcSt11char_traitsIcESaIcEEE
libradosstriper.so.1:_ZN8librados9IoCtxImpl14C_aio_stat_Ack6finishEi
libradosstriper.so.1:_ZN8librados9IoCtxImpl14C_aio_stat_AckC1EPNS_17AioCompletionImplEPl
libradosstriper.so.1:_ZN8librados9IoCtxImpl14C_aio_stat_AckC2EPNS_17AioCompletionImplEPl
libradosstriper.so.1:_ZN8librados9IoCtxImpl14aio_write_fullERK8object_tPNS_17AioCompletionImplERKN4ceph6buffer4listE
libradosstriper.so.1:_ZN8librados9IoCtxImpl14set_alloc_hintERK8object_tmmj
libradosstriper.so.1:_ZN8librados9IoCtxImpl14snap_get_stampEmPl
libradosstriper.so.1:_ZN8librados9IoCtxImpl15C_aio_stat2_Ack6finishEi
libradosstriper.so.1:_ZN8librados9IoCtxImpl15C_aio_stat2_AckC1EPNS_17AioCompletionImplEP8timespec
libradosstriper.so.1:_ZN8librados9IoCtxImpl15C_aio_stat2_AckC2EPNS_17AioCompletionImplEP8timespec
libradosstriper.so.1:_ZN8librados9IoCtxImpl15aio_sparse_readE8object_tPNS_17AioCompletionImplEPSt3mapImmSt4lessImESaISt4pairIKmmEEEPN4ceph6buffer4listEmmm
libradosstriper.so.1:_ZN8librados9IoCtxImpl15queue_aio_writeEPNS_17AioCompletionImplE
libradosstriper.so.1:_ZN8librados9IoCtxImpl16aio_operate_readERK8object_tP15ObjectOperationPNS_17AioCompletionImplEiPN4ceph6buffer4listE
libradosstriper.so.1:_ZN8librados9IoCtxImpl16flush_aio_writesEv
libradosstriper.so.1:_ZN8librados9IoCtxImpl16pool_change_auidEy
libradosstriper.so.1:_ZN8librados9IoCtxImpl17object_list_sliceE9hobject_tS1_mmPS1_S2_
libradosstriper.so.1:_ZN8librados9IoCtxImpl18complete_aio_writeEPNS_17AioCompletionImplE
libradosstriper.so.1:_ZN8librados9IoCtxImpl18prepare_assert_opsEP15ObjectOperation
libradosstriper.so.1:_ZN8librados9IoCtxImpl18set_assert_versionEm
libradosstriper.so.1:_ZN8librados9IoCtxImpl18set_notify_timeoutEj
libradosstriper.so.1:_ZN8librados9IoCtxImpl19set_sync_op_versionEm
libradosstriper.so.1:_ZN8librados9IoCtxImpl20get_cached_pool_nameB5cxx11Ev
libradosstriper.so.1:_ZN8librados9IoCtxImpl22flush_aio_writes_asyncEPNS_17AioCompletionImplE
libradosstriper.so.1:_ZN8librados9IoCtxImpl22pool_change_auid_asyncEyPNS_23PoolAsyncCompletionImplE
libradosstriper.so.1:_ZN8librados9IoCtxImpl22set_assert_src_versionERK8object_tm
libradosstriper.so.1:_ZN8librados9IoCtxImpl22set_snap_write_contextE8snapid_tRSt6vectorIS1_SaIS1_EE
libradosstriper.so.1:_ZN8librados9IoCtxImpl23selfmanaged_snap_createEPm
libradosstriper.so.1:_ZN8librados9IoCtxImpl23selfmanaged_snap_removeEm
libradosstriper.so.1:_ZN8librados9IoCtxImpl24get_inconsistent_objectsERK4pg_tRKNS_11object_id_tEmPNS_17AioCompletionImplEPSt6vectorINS_18inconsistent_obj_tESaISA_EEPj
libradosstriper.so.1:_ZN8librados9IoCtxImpl24get_object_hash_positionERKNSt7__cxx1112basic_stringIcSt11char_traitsIcESaIcEEEPj
libradosstriper.so.1:_ZN8librados9IoCtxImpl25get_inconsistent_snapsetsERK4pg_tRKNS_11object_id_tEmPNS_17AioCompletionImplEPSt6vectorINS_22inconsistent_snapset_tESaISA_EEPj
libradosstriper.so.1:_ZN8librados9IoCtxImpl27get_object_pg_hash_positionERKNSt7__cxx1112basic_stringIcSt11char_traitsIcESaIcEEEPj
libradosstriper.so.1:_ZN8librados9IoCtxImpl32selfmanaged_snap_rollback_objectERK8object_tR11SnapContextm
libradosstriper.so.1:_ZN8librados9IoCtxImpl4execERK8object_tPKcS5_RN4ceph6buffer4listES9_
libradosstriper.so.1:_ZN8librados9IoCtxImpl4listEPN8Objecter11ListContextEi
libradosstriper.so.1:_ZN8librados9IoCtxImpl4readERK8object_tRN4ceph6buffer4listEmm
libradosstriper.so.1:_ZN8librados9IoCtxImpl4statERK8object_tPmPl
libradosstriper.so.1:_ZN8librados9IoCtxImpl5nlistEPN8Objecter12NListContextEi
libradosstriper.so.1:_ZN8librados9IoCtxImpl5stat2ERK8object_tPmP8timespec
libradosstriper.so.1:_ZN8librados9IoCtxImpl5truncERK8object_tm
libradosstriper.so.1:_ZN8librados9IoCtxImpl5watchERK8object_tPmPNS_8WatchCtxEPNS_9WatchCtx2Eb
libradosstriper.so.1:_ZN8librados9IoCtxImpl5watchERK8object_tPmPNS_8WatchCtxEPNS_9WatchCtx2Ejb
libradosstriper.so.1:_ZN8librados9IoCtxImpl5writeERK8object_tRN4ceph6buffer4listEmm
libradosstriper.so.1:_ZN8librados9IoCtxImpl6appendERK8object_tRN4ceph6buffer4listEm
libradosstriper.so.1:_ZN8librados9IoCtxImpl6createERK8object_tb
libradosstriper.so.1:_ZN8librados9IoCtxImpl6mapextERK8object_tmmRSt3mapImmSt4lessImESaISt4pairIKmmEEE
libradosstriper.so.1:_ZN8librados9IoCtxImpl6notifyERK8object_tRN4ceph6buffer4listEmPS6_PPcPm
libradosstriper.so.1:_ZN8librados9IoCtxImpl6removeERK8object_t
libradosstriper.so.1:_ZN8librados9IoCtxImpl6removeERK8object_ti
libradosstriper.so.1:_ZN8librados9IoCtxImpl7operateERK8object_tP15ObjectOperationPNSt6chrono10time_pointIN4ceph11time_detail10real_clockENS6_8durationImSt5ratioILl1ELl1000000000EEEEEEi
libradosstriper.so.1:_ZN8librados9IoCtxImpl7rmxattrERK8object_tPKc
libradosstriper.so.1:_ZN8librados9IoCtxImpl7unwatchEm
libradosstriper.so.1:_ZN8librados9IoCtxImpl8aio_execERK8object_tPNS_17AioCompletionImplEPKcS7_RN4ceph6buffer4listEPSA_
libradosstriper.so.1:_ZN8librados9IoCtxImpl8aio_execERK8object_tPNS_17AioCompletionImplEPKcS7_RN4ceph6buffer4listEPcm
libradosstriper.so.1:_ZN8librados9IoCtxImpl8aio_readE8object_tPNS_17AioCompletionImplEPN4ceph6buffer4listEmmm
libradosstriper.so.1:_ZN8librados9IoCtxImpl8aio_readE8object_tPNS_17AioCompletionImplEPcmmm
libradosstriper.so.1:_ZN8librados9IoCtxImpl8aio_statERK8object_tPNS_17AioCompletionImplEPmPl
libradosstriper.so.1:_ZN8librados9IoCtxImpl8getxattrERK8object_tPKcRN4ceph6buffer4listE
libradosstriper.so.1:_ZN8librados9IoCtxImpl8rollbackERK8object_tPKc
libradosstriper.so.1:_ZN8librados9IoCtxImpl8setxattrERK8object_tPKcRN4ceph6buffer4listE
libradosstriper.so.1:_ZN8librados9IoCtxImpl8tmap_getERK8object_tRN4ceph6buffer4listE
libradosstriper.so.1:_ZN8librados9IoCtxImpl8tmap_putERK8object_tRN4ceph6buffer4listE
libradosstriper.so.1:_ZN8librados9IoCtxImpl9C_aio_Ack6finishEi
libradosstriper.so.1:_ZN8librados9IoCtxImpl9C_aio_AckC1EPNS_17AioCompletionImplE
libradosstriper.so.1:_ZN8librados9IoCtxImpl9C_aio_AckC2EPNS_17AioCompletionImplE
libradosstriper.so.1:_ZN8librados9IoCtxImpl9aio_stat2ERK8object_tPNS_17AioCompletionImplEPmP8timespec
libradosstriper.so.1:_ZN8librados9IoCtxImpl9aio_watchERK8object_tPNS_17AioCompletionImplEPmPNS_8WatchCtxEPNS_9WatchCtx2Eb
libradosstriper.so.1:_ZN8librados9IoCtxImpl9aio_watchERK8object_tPNS_17AioCompletionImplEPmPNS_8WatchCtxEPNS_9WatchCtx2Ejb
libradosstriper.so.1:_ZN8librados9IoCtxImpl9aio_writeERK8object_tPNS_17AioCompletionImplERKN4ceph6buffer4listEmm
libradosstriper.so.1:_ZN8librados9IoCtxImpl9cache_pinERK8object_t
libradosstriper.so.1:_ZN8librados9IoCtxImpl9getxattrsERK8object_tRSt3mapINSt7__cxx1112basic_stringIcSt11char_traitsIcESaIcEEEN4ceph6buffer4listESt4lessISA_ESaISt4pairIKSA_SD_EEE
libradosstriper.so.1:_ZN8librados9IoCtxImpl9list_seekEPN8Objecter11ListContextEj
libradosstriper.so.1:_ZN8librados9IoCtxImpl9snap_listEPSt6vectorImSaImEE
libradosstriper.so.1:_ZN8librados9IoCtxImpl9writesameERK8object_tRN4ceph6buffer4listEmm
libradosstriper.so.1:_ZN8librados9IoCtxImplC1EPNS_11RadosClientEP8Objecterl8snapid_t
libradosstriper.so.1:_ZN8librados9IoCtxImplC1Ev
libradosstriper.so.1:_ZN8librados9IoCtxImplC2EPNS_11RadosClientEP8Objecterl8snapid_t
libradosstriper.so.1:_ZN8librados9IoCtxImplC2Ev
libradosstriper.so.1:_ZN8pg_log_t10copy_afterERKS_10eversion_t
libradosstriper.so.1:_ZN8pg_log_t10copy_rangeERKS_10eversion_tS2_
libradosstriper.so.1:_ZN8pg_log_t10copy_up_toERKS_i
libradosstriper.so.1:_ZN8pg_log_t10filter_logE5spg_tRK6OSDMapRKNSt7__cxx1112basic_stringIcSt11char_traitsIcESaIcEEERKS_RS_SE_
libradosstriper.so.1:_ZN8pg_log_t23generate_test_instancesERNSt7__cxx114listIPS_SaIS2_EEE
libradosstriper.so.1:_ZN8pg_log_t6decodeERN4ceph6buffer4list8iteratorEl
libradosstriper.so.1:_ZN9CryptoAES15get_key_handlerERKN4ceph6buffer3ptrERNSt7__cxx1112basic_stringIcSt11char_traitsIcESaIcEEE
libradosstriper.so.1:_ZN9CryptoAES15validate_secretERKN4ceph6buffer3ptrE
libradosstriper.so.1:_ZN9CryptoAES6createERN4ceph6buffer3ptrE
libradosstriper.so.1:_ZN9CryptoKey10set_secretEiRKN4ceph6buffer3ptrE7utime_t
libradosstriper.so.1:_ZN9CryptoKey11_set_secretEiRKN4ceph6buffer3ptrE
libradosstriper.so.1:_ZN9CryptoKey16encode_formattedENSt7__cxx1112basic_stringIcSt11char_traitsIcESaIcEEEPN4ceph9FormatterERNS6_6buffer4listE
libradosstriper.so.1:_ZN9CryptoKey16encode_plaintextERN4ceph6buffer4listE
libradosstriper.so.1:_ZN9CryptoKey6createEP11CephContexti
libradosstriper.so.1:_ZN9CryptoKey6decodeERN4ceph6buffer4list8iteratorE
libradosstriper.so.1:_ZN9ECSubRead23generate_test_instancesERNSt7__cxx114listIPS_SaIS2_EEE
libradosstriper.so.1:_ZN9ECSubRead6decodeERN4ceph6buffer4list8iteratorE
libradosstriper.so.1:_ZN9FSMapUser13print_summaryEPN4ceph9FormatterEPSo
libradosstriper.so.1:_ZN9FSMapUser23generate_test_instancesERNSt7__cxx114listIPS_SaIS2_EEE
libradosstriper.so.1:_ZN9FSMapUser6decodeERN4ceph6buffer4list8iteratorE
libradosstriper.so.1:_ZN9FSMapUser9fs_info_t6decodeERN4ceph6buffer4list8iteratorE
libradosstriper.so.1:_ZN9LogClient10get_myinstEv
libradosstriper.so.1:_ZN9LogClient11are_pendingEv
libradosstriper.so.1:_ZN9LogClient12_send_to_monEv
libradosstriper.so.1:_ZN9LogClient12get_next_seqEv
libradosstriper.so.1:_ZN9LogClient13reset_sessionEv
libradosstriper.so.1:_ZN9LogClient14handle_log_ackEP7MLogAck
libradosstriper.so.1:_ZN9LogClient19get_mon_log_messageEv
libradosstriper.so.1:_ZN9LogClient20_get_mon_log_messageEv
libradosstriper.so.1:_ZN9LogClient5queueER8LogEntry
libradosstriper.so.1:_ZN9LogClientC1EP11CephContextP9MessengerP6MonMapNS_16logclient_flag_tE
libradosstriper.so.1:_ZN9LogClientC2EP11CephContextP9MessengerP6MonMapNS_16logclient_flag_tE
libradosstriper.so.1:_ZN9Messenger21get_default_crc_flagsEP11md_config_t
libradosstriper.so.1:_ZN9Messenger23create_client_messengerEP11CephContextNSt7__cxx1112basic_stringIcSt11char_traitsIcESaIcEEE
libradosstriper.so.1:_ZN9Messenger6createEP11CephContextRKNSt7__cxx1112basic_stringIcSt11char_traitsIcESaIcEEE13entity_name_tS7_mm
libradosstriper.so.1:_ZN9MgrClient11ms_dispatchEP7Message
libradosstriper.so.1:_ZN9MgrClient11send_reportEv
libradosstriper.so.1:_ZN9MgrClient12wait_on_listERNSt7__cxx114listIP4CondSaIS3_EEE
libradosstriper.so.1:_ZN9MgrClient13start_commandERKSt6vectorINSt7__cxx1112basic_stringIcSt11char_traitsIcESaIcEEESaIS6_EERKN4ceph6buffer4listEPSD_PS6_P7Context
libradosstriper.so.1:_ZN9MgrClient14handle_mgr_mapEP7MMgrMap
libradosstriper.so.1:_ZN9MgrClient15ms_handle_resetEP10Connection
libradosstriper.so.1:_ZN9MgrClient16signal_cond_listERNSt7__cxx114listIP4CondSaIS3_EEE
libradosstriper.so.1:_ZN9MgrClient17ms_handle_refusedEP10Connection
libradosstriper.so.1:_ZN9MgrClient20handle_command_replyEP13MCommandReply
libradosstriper.so.1:_ZN9MgrClient20handle_mgr_configureEP13MMgrConfigure
libradosstriper.so.1:_ZN9MgrClient4initEv
libradosstriper.so.1:_ZN9MgrClient8shutdownEv
libradosstriper.so.1:_ZN9MgrClient9reconnectEv
libradosstriper.so.1:_ZN9MgrClientC1EP11CephContextP9Messenger
libradosstriper.so.1:_ZN9MgrClientC2EP11CephContextP9Messenger
libradosstriper.so.1:_ZN9MonClient10get_monmapEv
libradosstriper.so.1:_ZN9MonClient11_renew_subsEv
libradosstriper.so.1:_ZN9MonClient11get_versionENSt7__cxx1112basic_stringIcSt11char_traitsIcESaIcEEEPmS6_P7Context
libradosstriper.so.1:_ZN9MonClient11handle_authEP10MAuthReply
libradosstriper.so.1:_ZN9MonClient11ms_dispatchEP7Message
libradosstriper.so.1:_ZN9MonClient12authenticateEd
libradosstriper.so.1:_ZN9MonClient12ping_monitorERKNSt7__cxx1112basic_stringIcSt11char_traitsIcESaIcEEEPS5_
libradosstriper.so.1:_ZN9MonClient13_send_commandEPNS_10MonCommandE
libradosstriper.so.1:_ZN9MonClient13handle_monmapEP7MMonMap
libradosstriper.so.1:_ZN9MonClient13schedule_tickEv
libradosstriper.so.1:_ZN9MonClient15_finish_commandEPNS_10MonCommandEiNSt7__cxx1112basic_stringIcSt11char_traitsIcESaIcEEE
libradosstriper.so.1:_ZN9MonClient15_finish_huntingEv
libradosstriper.so.1:_ZN9MonClient15_reopen_sessionEiNSt7__cxx1112basic_stringIcSt11char_traitsIcESaIcEEE
libradosstriper.so.1:_ZN9MonClient15ms_handle_resetEP10Connection
libradosstriper.so.1:_ZN9MonClient16_pick_random_monB5cxx11Ev
libradosstriper.so.1:_ZN9MonClient17_send_mon_messageEP7Messageb
libradosstriper.so.1:_ZN9MonClient17start_mon_commandERKNSt7__cxx1112basic_stringIcSt11char_traitsIcESaIcEEERKSt6vectorIS5_SaIS5_EERKN4ceph6buffer4listEPSF_PS5_P7Context
libradosstriper.so.1:_ZN9MonClient17start_mon_commandERKSt6vectorINSt7__cxx1112basic_stringIcSt11char_traitsIcESaIcEEESaIS6_EERKN4ceph6buffer4listEPSD_PS6_P7Context
libradosstriper.so.1:_ZN9MonClient17start_mon_commandEiRKSt6vectorINSt7__cxx1112basic_stringIcSt11char_traitsIcESaIcEEESaIS6_EERKN4ceph6buffer4listEPSD_PS6_P7Context
libradosstriper.so.1:_ZN9MonClient18wait_auth_rotatingEd
libradosstriper.so.1:_ZN9MonClient19_cancel_mon_commandEmi
libradosstriper.so.1:_ZN9MonClient19_check_auth_ticketsEv
libradosstriper.so.1:_ZN9MonClient20_check_auth_rotatingEv
libradosstriper.so.1:_ZN9MonClient20_resend_mon_commandsEv
libradosstriper.so.1:_ZN9MonClient20build_initial_monmapEv
libradosstriper.so.1:_ZN9MonClient20get_monmap_privatelyEv
libradosstriper.so.1:_ZN9MonClient20handle_subscribe_ackEP16MMonSubscribeAck
libradosstriper.so.1:_ZN9MonClient22handle_mon_command_ackEP14MMonCommandAck
libradosstriper.so.1:_ZN9MonClient24handle_get_version_replyEP19MMonGetVersionReply
libradosstriper.so.1:_ZN9MonClient4initEv
libradosstriper.so.1:_ZN9MonClient4tickEv
libradosstriper.so.1:_ZN9MonClient8send_logEv
libradosstriper.so.1:_ZN9MonClient8shutdownEv
libradosstriper.so.1:_ZN9MonClient9flush_logEv
libradosstriper.so.1:_ZN9MonClientC1EP11CephContext
libradosstriper.so.1:_ZN9MonClientC2EP11CephContext
libradosstriper.so.1:_ZN9MonClientD0Ev
libradosstriper.so.1:_ZN9MonClientD1Ev
libradosstriper.so.1:_ZN9MonClientD2Ev
libradosstriper.so.1:_ZN9Processor4bindERK13entity_addr_tRKSt3setIiSt4lessIiESaIiEEPS0_
libradosstriper.so.1:_ZN9Processor4stopEv
libradosstriper.so.1:_ZN9Processor5startEv
libradosstriper.so.1:_ZN9Processor6acceptEv
libradosstriper.so.1:_ZN9ProcessorC1EP14AsyncMessengerP6WorkerP11CephContextm
libradosstriper.so.1:_ZN9ProcessorC2EP14AsyncMessengerP6WorkerP11CephContextm
libradosstriper.so.1:_ZN9SafeTimer12add_event_atE7utime_tP7Context
libradosstriper.so.1:_ZN9SafeTimer12cancel_eventEP7Context
libradosstriper.so.1:_ZN9SafeTimer12timer_threadEv
libradosstriper.so.1:_ZN9SafeTimer15add_event_afterEdP7Context
libradosstriper.so.1:_ZN9SafeTimer17cancel_all_eventsEv
libradosstriper.so.1:_ZN9SafeTimer4initEv
libradosstriper.so.1:_ZN9SafeTimer8shutdownEv
libradosstriper.so.1:_ZN9SafeTimerC1EP11CephContextR5Mutexb
libradosstriper.so.1:_ZN9SafeTimerC2EP11CephContextR5Mutexb
libradosstriper.so.1:_ZN9SafeTimerD1Ev
libradosstriper.so.1:_ZN9SafeTimerD2Ev
libradosstriper.so.1:_ZN9TextTable13define_columnERKNSt7__cxx1112basic_stringIcSt11char_traitsIcESaIcEEENS_5AlignES8_
libradosstriper.so.1:_ZN9TextTable5clearEv
libradosstriper.so.1:_ZN9hobject_t12get_prefixesB5cxx11Ejjl
libradosstriper.so.1:_ZN9hobject_t23generate_test_instancesERNSt7__cxx114listIPS_SaIS2_EEE
libradosstriper.so.1:_ZN9hobject_t5parseERKNSt7__cxx1112basic_stringIcSt11char_traitsIcESaIcEEE
libradosstriper.so.1:_ZN9hobject_t6decodeERN11json_spirit10Value_implINS0_13Config_vectorINSt7__cxx1112basic_stringIcSt11char_traitsIcESaIcEEEEEEE
libradosstriper.so.1:_ZN9hobject_t6decodeERN4ceph6buffer4list8iteratorE
libradosstriper.so.1:_ZN9pg_info_t23generate_test_instancesERNSt7__cxx114listIPS_SaIS2_EEE
libradosstriper.so.1:_ZN9pg_info_t6decodeERN4ceph6buffer4list8iteratorE
libradosstriper.so.1:_ZN9pg_pool_t11remove_snapE8snapid_t
libradosstriper.so.1:_ZN9pg_pool_t13calc_pg_masksEv
libradosstriper.so.1:_ZN9pg_pool_t18add_unmanaged_snapERm
libradosstriper.so.1:_ZN9pg_pool_t21remove_unmanaged_snapE8snapid_t
libradosstriper.so.1:_ZN9pg_pool_t23generate_test_instancesERNSt7__cxx114listIPS_SaIS2_EEE
libradosstriper.so.1:_ZN9pg_pool_t6decodeERN4ceph6buffer4list8iteratorE
libradosstriper.so.1:_ZN9pg_pool_t8add_snapEPKc7utime_t
libradosstriper.so.1:_ZN9pg_stat_t23generate_test_instancesERNSt7__cxx114listIPS_SaIS2_EEE
libradosstriper.so.1:_ZN9pg_stat_t6decodeERN4ceph6buffer4list8iteratorE
libradosstriper.so.1:_ZNK10ECSubWrite4dumpEPN4ceph9FormatterE
libradosstriper.so.1:_ZNK10ECSubWrite6encodeERN4ceph6buffer4listE
libradosstriper.so.1:_ZNK10EntityName12get_type_strEv
libradosstriper.so.1:_ZNK10EntityName13get_type_nameEv
libradosstriper.so.1:_ZNK10EntityName14has_default_idEv
libradosstriper.so.1:_ZNK10EntityName6get_idB5cxx11Ev
libradosstriper.so.1:_ZNK10EntityName6to_strB5cxx11Ev
libradosstriper.so.1:_ZNK10EntityName7to_cstrEv
libradosstriper.so.1:_ZNK10Filesystem4dumpEPN4ceph9FormatterE
libradosstriper.so.1:_ZNK10Filesystem5printERSo
libradosstriper.so.1:_ZNK10Filesystem6encodeERN4ceph6buffer4listEm
libradosstriper.so.1:_ZNK10LogSummary4dumpEPN4ceph9FormatterE
libradosstriper.so.1:_ZNK10LogSummary6encodeERN4ceph6buffer4listEm
libradosstriper.so.1:_ZNK10eversion_t12get_key_nameB5cxx11Ev
libradosstriper.so.1:_ZNK10ghobject_t12encoded_sizeEv
libradosstriper.so.1:_ZNK10ghobject_t4dumpEPN4ceph9FormatterE
libradosstriper.so.1:_ZNK10ghobject_t6encodeERN4ceph6buffer4listE
libradosstriper.so.1:_ZNK10mds_load_t4dumpEPN4ceph9FormatterE
libradosstriper.so.1:_ZNK10mds_load_t6encodeERN4ceph6buffer4listE
libradosstriper.so.1:_ZNK10mon_info_t5printERSo
libradosstriper.so.1:_ZNK10mon_info_t6encodeERN4ceph6buffer4listEm
libradosstriper.so.1:_ZNK10osd_info_t4dumpEPN4ceph9FormatterE
libradosstriper.so.1:_ZNK10osd_info_t6encodeERN4ceph6buffer4listE
libradosstriper.so.1:_ZNK10osd_stat_t4dumpEPN4ceph9FormatterE
libradosstriper.so.1:_ZNK10osd_stat_t6encodeERN4ceph6buffer4listE
libradosstriper.so.1:_ZNK10pg_query_t4dumpEPN4ceph9FormatterE
libradosstriper.so.1:_ZNK10pg_query_t6encodeERN4ceph6buffer4listEm
libradosstriper.so.1:_ZNK10pg_shard_t6encodeERN4ceph6buffer4listE
libradosstriper.so.1:_ZNK11BloomHitSet4dumpEPN4ceph9FormatterE
libradosstriper.so.1:_ZNK11BloomHitSet6Params4dumpEPN4ceph9FormatterE
libradosstriper.so.1:_ZNK11CephContext14get_init_flagsEv
libradosstriper.so.1:_ZNK11CephContext15get_module_typeEv
libradosstriper.so.1:_ZNK11LogEntryKey4dumpEPN4ceph9FormatterE
libradosstriper.so.1:_ZNK11LogEntryKey6encodeERN4ceph6buffer4listEm
libradosstriper.so.1:_ZNK11MonCapGrant11get_allowedEP11CephContext10EntityNameRKNSt7__cxx1112basic_stringIcSt11char_traitsIcESaIcEEESA_RKSt3mapIS8_S8_St4lessIS8_ESaISt4pairIS9_S8_EEE
libradosstriper.so.1:_ZNK11MonCapGrant14expand_profileE10EntityName
libradosstriper.so.1:_ZNK11PushReplyOp4costEP11CephContext
libradosstriper.so.1:_ZNK11PushReplyOp4dumpEPN4ceph9FormatterE
libradosstriper.so.1:_ZNK11PushReplyOp5printERSo
libradosstriper.so.1:_ZNK11PushReplyOp6encodeERN4ceph6buffer4listE
libradosstriper.so.1:_ZNK11SnapContext4dumpEPN4ceph9FormatterE
libradosstriper.so.1:_ZNK11SnapContext8is_validEv
libradosstriper.so.1:_ZNK11frag_info_t4dumpEPN4ceph9FormatterE
libradosstriper.so.1:_ZNK11frag_info_t6encodeERN4ceph6buffer4listE
libradosstriper.so.1:_ZNK11md_config_t11expand_metaERNSt7__cxx1112basic_stringIcSt11char_traitsIcESaIcEEEPKNS_13config_optionENS0_4listIS9_SaIS9_EEEPSo
libradosstriper.so.1:_ZNK11md_config_t11expand_metaERNSt7__cxx1112basic_stringIcSt11char_traitsIcESaIcEEEPSo
libradosstriper.so.1:_ZNK11md_config_t12get_all_keysEPSt6vectorINSt7__cxx1112basic_stringIcSt11char_traitsIcESaIcEEESaIS6_EE
libradosstriper.so.1:_ZNK11md_config_t13config_option7is_safeEv
libradosstriper.so.1:_ZNK11md_config_t15get_my_sectionsERSt6vectorINSt7__cxx1112basic_stringIcSt11char_traitsIcESaIcEEESaIS6_EE
libradosstriper.so.1:_ZNK11md_config_t15get_val_genericB5cxx11EPKc
libradosstriper.so.1:_ZNK11md_config_t16_get_my_sectionsERSt6vectorINSt7__cxx1112basic_stringIcSt11char_traitsIcESaIcEEESaIS6_EE
libradosstriper.so.1:_ZNK11md_config_t16get_all_sectionsERSt6vectorINSt7__cxx1112basic_stringIcSt11char_traitsIcESaIcEEESaIS6_EE
libradosstriper.so.1:_ZNK11md_config_t18find_config_optionERKNSt7__cxx1112basic_stringIcSt11char_traitsIcESaIcEEE
libradosstriper.so.1:_ZNK11md_config_t22get_val_from_conf_fileERKSt6vectorINSt7__cxx1112basic_stringIcSt11char_traitsIcESaIcEEESaIS6_EEPKcRS6_b
libradosstriper.so.1:_ZNK11md_config_t23_get_val_from_conf_fileERKSt6vectorINSt7__cxx1112basic_stringIcSt11char_traitsIcESaIcEEESaIS6_EEPKcRS6_b
libradosstriper.so.1:_ZNK11md_config_t7get_valEPKcPPci
libradosstriper.so.1:_ZNK11md_config_t8_get_valB5cxx11EPKc
libradosstriper.so.1:_ZNK11md_config_t8_get_valEPKcPNSt7__cxx1112basic_stringIcSt11char_traitsIcESaIcEEE
libradosstriper.so.1:_ZNK11md_config_t8_get_valEPKcPPci
libradosstriper.so.1:_ZNK11nest_info_t4dumpEPN4ceph9FormatterE
libradosstriper.so.1:_ZNK11nest_info_t6encodeERN4ceph6buffer4listE
libradosstriper.so.1:_ZNK11old_inode_t4dumpEPN4ceph9FormatterE
libradosstriper.so.1:_ZNK11old_inode_t6encodeERN4ceph6buffer4listEm
libradosstriper.so.1:_ZNK11old_rstat_t4dumpEPN4ceph9FormatterE
libradosstriper.so.1:_ZNK11old_rstat_t6encodeERN4ceph6buffer4listE
libradosstriper.so.1:_ZNK11osd_reqid_t4dumpEPN4ceph9FormatterE
libradosstriper.so.1:_ZNK11osd_xinfo_t4dumpEPN4ceph9FormatterE
libradosstriper.so.1:_ZNK11osd_xinfo_t6encodeERN4ceph6buffer4listE
libradosstriper.so.1:_ZNK11pg_create_t4dumpEPN4ceph9FormatterE
libradosstriper.so.1:_ZNK11pg_create_t6encodeERN4ceph6buffer4listE
libradosstriper.so.1:_ZNK11pg_notify_t4dumpEPN4ceph9FormatterE
libradosstriper.so.1:_ZNK11pg_notify_t6encodeERN4ceph6buffer4listE
libradosstriper.so.1:_ZNK11pool_opts_t3getB5cxx11ENS_5key_tE
libradosstriper.so.1:_ZNK11pool_opts_t4dumpEPN4ceph9FormatterE
libradosstriper.so.1:_ZNK11pool_opts_t4dumpERKNSt7__cxx1112basic_stringIcSt11char_traitsIcESaIcEEEPN4ceph9FormatterE
libradosstriper.so.1:_ZNK11pool_opts_t6encodeERN4ceph6buffer4listE
libradosstriper.so.1:_ZNK11pool_opts_t6is_setENS_5key_tE
libradosstriper.so.1:_ZNK11pool_stat_t4dumpEPN4ceph9FormatterE
libradosstriper.so.1:_ZNK11pool_stat_t6encodeERN4ceph6buffer4listEm
libradosstriper.so.1:_ZNK11pow2_hist_t4dumpEPN4ceph9FormatterE
libradosstriper.so.1:_ZNK11pow2_hist_t6encodeERN4ceph6buffer4listE
libradosstriper.so.1:_ZNK12CrushWrapper10dump_rulesEPN4ceph9FormatterE
libradosstriper.so.1:_ZNK12CrushWrapper10find_rootsERSt3setIiSt4lessIiESaIiEE
libradosstriper.so.1:_ZNK12CrushWrapper10find_takesERSt3setIiSt4lessIiESaIiEE
libradosstriper.so.1:_ZNK12CrushWrapper10is_v2_ruleEj
libradosstriper.so.1:_ZNK12CrushWrapper10is_v3_ruleEj
libradosstriper.so.1:_ZNK12CrushWrapper10is_v5_ruleEj
libradosstriper.so.1:_ZNK12CrushWrapper10list_rulesEPN4ceph9FormatterE
libradosstriper.so.1:_ZNK12CrushWrapper12has_v2_rulesEv
libradosstriper.so.1:_ZNK12CrushWrapper12has_v3_rulesEv
libradosstriper.so.1:_ZNK12CrushWrapper12has_v5_rulesEv
libradosstriper.so.1:_ZNK12CrushWrapper13dump_tunablesEPN4ceph9FormatterE
libradosstriper.so.1:_ZNK12CrushWrapper14has_v4_bucketsEv
libradosstriper.so.1:_ZNK12CrushWrapper15can_rename_itemERKNSt7__cxx1112basic_stringIcSt11char_traitsIcESaIcEEES7_PSo
libradosstriper.so.1:_ZNK12CrushWrapper15get_item_weightEi
libradosstriper.so.1:_ZNK12CrushWrapper16subtree_containsEii
libradosstriper.so.1:_ZNK12CrushWrapper17can_rename_bucketERKNSt7__cxx1112basic_stringIcSt11char_traitsIcESaIcEEES7_PSo
libradosstriper.so.1:_ZNK12CrushWrapper18check_item_presentEi
libradosstriper.so.1:_ZNK12CrushWrapper19_search_item_existsEi
libradosstriper.so.1:_ZNK12CrushWrapper4dumpEPN4ceph9FormatterE
libradosstriper.so.1:_ZNK12CrushWrapper6encodeERN4ceph6buffer4listEm
libradosstriper.so.1:_ZNK12CrushWrapper9dump_ruleEiPN4ceph9FormatterE
libradosstriper.so.1:_ZNK12CrushWrapper9dump_treeEPN4ceph9FormatterE
libradosstriper.so.1:_ZNK12CrushWrapper9dump_treeEPSoPN4ceph9FormatterE
libradosstriper.so.1:_ZNK12DecayCounter4dumpEPN4ceph9FormatterE
libradosstriper.so.1:_ZNK12DecayCounter6encodeERN4ceph6buffer4listE
libradosstriper.so.1:_ZNK12PerfCounters11get_tavg_msEi
libradosstriper.so.1:_ZNK12PerfCounters3getEi
libradosstriper.so.1:_ZNK12PerfCounters4tgetEi
libradosstriper.so.1:_ZNK12PerfCounters8get_nameB5cxx11Ev
libradosstriper.so.1:_ZNK12bloom_filter4dumpEPN4ceph9FormatterE
libradosstriper.so.1:_ZNK12bloom_filter6encodeERN4ceph6buffer4listE
libradosstriper.so.1:_ZNK12pg_history_t4dumpEPN4ceph9FormatterE
libradosstriper.so.1:_ZNK12pg_history_t6encodeERN4ceph6buffer4listE
libradosstriper.so.1:_ZNK12quota_info_t4dumpEPN4ceph9FormatterE
libradosstriper.so.1:_ZNK12watch_info_t4dumpEPN4ceph9FormatterE
libradosstriper.so.1:_ZNK12watch_info_t6encodeERN4ceph6buffer4listEm
libradosstriper.so.1:_ZNK13DispatchQueue11get_max_ageE7utime_t
libradosstriper.so.1:_ZNK13DispatchQueue17can_fast_dispatchEP7Message
libradosstriper.so.1:_ZNK13OSDSuperblock4dumpEPN4ceph9FormatterE
libradosstriper.so.1:_ZNK13OSDSuperblock6encodeERN4ceph6buffer4listE
libradosstriper.so.1:_ZNK13ObjectModDesc4dumpEPN4ceph9FormatterE
libradosstriper.so.1:_ZNK13ObjectModDesc5visitEPNS_7VisitorE
libradosstriper.so.1:_ZNK13ObjectModDesc6encodeERN4ceph6buffer4listE
libradosstriper.so.1:_ZNK13SnapRealmInfo4dumpEPN4ceph9FormatterE
libradosstriper.so.1:_ZNK13SnapRealmInfo6encodeERN4ceph6buffer4listE
libradosstriper.so.1:_ZNK13entity_addr_t4dumpEPN4ceph9FormatterE
libradosstriper.so.1:_ZNK13entity_inst_t4dumpEPN4ceph9FormatterE
libradosstriper.so.1:_ZNK13entity_name_t4dumpEPN4ceph9FormatterE
libradosstriper.so.1:_ZNK13file_layout_t4dumpEPN4ceph9FormatterE
libradosstriper.so.1:_ZNK13file_layout_t6encodeERN4ceph6buffer4listEm
libradosstriper.so.1:_ZNK13file_layout_t8is_validEv
libradosstriper.so.1:_ZNK13file_layout_t9to_legacyEP16ceph_file_layout
libradosstriper.so.1:_ZNK13inline_data_t6encodeERN4ceph6buffer4listE
libradosstriper.so.1:_ZNK13object_info_t4dumpEPN4ceph9FormatterE
libradosstriper.so.1:_ZNK13object_info_t6encodeERN4ceph6buffer4listEm
libradosstriper.so.1:_ZNK13pg_interval_t4dumpEPN4ceph9FormatterE
libradosstriper.so.1:_ZNK13pg_interval_t6encodeERN4ceph6buffer4listE
libradosstriper.so.1:_ZNK13string_snap_t4dumpEPN4ceph9FormatterE
libradosstriper.so.1:_ZNK13string_snap_t6encodeERN4ceph6buffer4listE
libradosstriper.so.1:_ZNK14AsyncMessenger17get_proto_versionEib
libradosstriper.so.1:_ZNK14ECSubReadReply4dumpEPN4ceph9FormatterE
libradosstriper.so.1:_ZNK14ECSubReadReply6encodeERN4ceph6buffer4listE
libradosstriper.so.1:_ZNK14SimpleThrottle13pending_errorEv
libradosstriper.so.1:_ZNK14pg_log_entry_t12get_key_nameB5cxx11Ev
libradosstriper.so.1:_ZNK14pg_log_entry_t20encode_with_checksumERN4ceph6buffer4listE
libradosstriper.so.1:_ZNK14pg_log_entry_t4dumpEPN4ceph9FormatterE
libradosstriper.so.1:_ZNK14pg_log_entry_t6encodeERN4ceph6buffer4listE
libradosstriper.so.1:_ZNK14scrub_ls_arg_t6encodeERN4ceph6buffer4listE
libradosstriper.so.1:_ZNK14session_info_t4dumpEPN4ceph9FormatterE
libradosstriper.so.1:_ZNK14session_info_t6encodeERN4ceph6buffer4listEm
libradosstriper.so.1:_ZNK14store_statfs_t4dumpEPN4ceph9FormatterE
libradosstriper.so.1:_ZNK14store_statfs_teqERKS_
libradosstriper.so.1:_ZNK15BackoffThrottle10_get_delayEm
libradosstriper.so.1:_ZNK15ECSubWriteReply4dumpEPN4ceph9FormatterE
libradosstriper.so.1:_ZNK15ECSubWriteReply6encodeERN4ceph6buffer4listE
libradosstriper.so.1:_ZNK15OrderedThrottle13pending_errorEv
libradosstriper.so.1:_ZNK15RotatingKeyRing10get_secretERK10EntityNameR9CryptoKey
libradosstriper.so.1:_ZNK15RotatingKeyRing13dump_rotatingEv
libradosstriper.so.1:_ZNK15RotatingKeyRing16need_new_secretsE7utime_t
libradosstriper.so.1:_ZNK15RotatingKeyRing16need_new_secretsEv
libradosstriper.so.1:_ZNK15RotatingKeyRing18get_service_secretEjmR9CryptoKey
libradosstriper.so.1:_ZNK15cap_reconnect_t10encode_oldERN4ceph6buffer4listE
libradosstriper.so.1:_ZNK15cap_reconnect_t4dumpEPN4ceph9FormatterE
libradosstriper.so.1:_ZNK15cap_reconnect_t6encodeERN4ceph6buffer4listE
libradosstriper.so.1:_ZNK15osd_peer_stat_t4dumpEPN4ceph9FormatterE
libradosstriper.so.1:_ZNK15osd_peer_stat_t6encodeERN4ceph6buffer4listE
libradosstriper.so.1:_ZNK16entity_addrvec_t4dumpEPN4ceph9FormatterE
libradosstriper.so.1:_ZNK16entity_addrvec_t6encodeERN4ceph6buffer4listEm
libradosstriper.so.1:_ZNK16inode_load_vec_t6encodeERN4ceph6buffer4listE
libradosstriper.so.1:_ZNK16object_locator_t4dumpEPN4ceph9FormatterE
libradosstriper.so.1:_ZNK16object_locator_t6encodeERN4ceph6buffer4listE
libradosstriper.so.1:_ZNK16pool_snap_info_t4dumpEPN4ceph9FormatterE
libradosstriper.so.1:_ZNK16pool_snap_info_t6encodeERN4ceph6buffer4listEm
libradosstriper.so.1:_ZNK17inode_backtrace_t4dumpEPN4ceph9FormatterE
libradosstriper.so.1:_ZNK17inode_backtrace_t6encodeERN4ceph6buffer4listE
libradosstriper.so.1:_ZNK17inode_backtrace_t7compareERKS_PbS2_
libradosstriper.so.1:_ZNK17object_id_wrapper6encodeERN4ceph6buffer4listE
libradosstriper.so.1:_ZNK17object_stat_sum_t4dumpEPN4ceph9FormatterE
libradosstriper.so.1:_ZNK17object_stat_sum_t6encodeERN4ceph6buffer4listE
libradosstriper.so.1:_ZNK17osd_shard_wrapper6encodeERN4ceph6buffer4listE
libradosstriper.so.1:_ZNK17pg_hit_set_info_t4dumpEPN4ceph9FormatterE
libradosstriper.so.1:_ZNK17pg_hit_set_info_t6encodeERN4ceph6buffer4listE
libradosstriper.so.1:_ZNK17scrub_ls_result_t6encodeERN4ceph6buffer4listE
libradosstriper.so.1:_ZNK18CephXTicketHandler16build_authorizerEm
libradosstriper.so.1:_ZNK18CephXTicketHandler8need_keyEv
libradosstriper.so.1:_ZNK18CephXTicketManager16build_authorizerEj
libradosstriper.so.1:_ZNK18CephXTicketManager8need_keyEj
libradosstriper.so.1:_ZNK18CephxClientHandler13_need_ticketsEv
libradosstriper.so.1:_ZNK18CephxClientHandler13build_requestERN4ceph6buffer4listE
libradosstriper.so.1:_ZNK18CephxClientHandler16build_authorizerEj
libradosstriper.so.1:_ZNK18CephxClientHandler22build_rotating_requestERN4ceph6buffer4listE
libradosstriper.so.1:_ZNK18ExplicitHashHitSet4dumpEPN4ceph9FormatterE
libradosstriper.so.1:_ZNK18MDSCacheObjectInfo4dumpEPN4ceph9FormatterE
libradosstriper.so.1:_ZNK18MDSCacheObjectInfo6encodeERN4ceph6buffer4listE
libradosstriper.so.1:_ZNK18ObjectRecoveryInfo4dumpEPN4ceph9FormatterE
libradosstriper.so.1:_ZNK18ObjectRecoveryInfo5printERSo
libradosstriper.so.1:_ZNK18ObjectRecoveryInfo6encodeERN4ceph6buffer4listEm
libradosstriper.so.1:_ZNK18dirfrag_load_vec_t4dumpEPN4ceph9FormatterE
libradosstriper.so.1:_ZNK18object_copy_data_t14encode_classicERN4ceph6buffer4listE
libradosstriper.so.1:_ZNK18object_copy_data_t4dumpEPN4ceph9FormatterE
libradosstriper.so.1:_ZNK18object_copy_data_t6encodeERN4ceph6buffer4listEm
libradosstriper.so.1:_ZNK18request_redirect_t4dumpEPN4ceph9FormatterE
libradosstriper.so.1:_ZNK18request_redirect_t6encodeERN4ceph6buffer4listE
libradosstriper.so.1:_ZNK18shard_info_wrapper6encodeERN4ceph6buffer4listE
libradosstriper.so.1:_ZNK19inode_backpointer_t4dumpEPN4ceph9FormatterE
libradosstriper.so.1:_ZNK19inode_backpointer_t6encodeERN4ceph6buffer4listE
libradosstriper.so.1:_ZNK19mds_table_pending_t4dumpEPN4ceph9FormatterE
libradosstriper.so.1:_ZNK19mds_table_pending_t6encodeERN4ceph6buffer4listE
libradosstriper.so.1:_ZNK20ExplicitObjectHitSet4dumpEPN4ceph9FormatterE
libradosstriper.so.1:_ZNK20PrebufferedStreambuf4sizeEv
libradosstriper.so.1:_ZNK20PrebufferedStreambuf7get_strB5cxx11Ev
libradosstriper.so.1:_ZNK20PrebufferedStreambuf8snprintfEPcm
libradosstriper.so.1:_ZNK20object_copy_cursor_t4dumpEPN4ceph9FormatterE
libradosstriper.so.1:_ZNK20object_copy_cursor_t6encodeERN4ceph6buffer4listE
libradosstriper.so.1:_ZNK20pg_hit_set_history_t4dumpEPN4ceph9FormatterE
libradosstriper.so.1:_ZNK20pg_hit_set_history_t6encodeERN4ceph6buffer4listE
libradosstriper.so.1:_ZNK22ObjectRecoveryProgress4dumpEPN4ceph9FormatterE
libradosstriper.so.1:_ZNK22ObjectRecoveryProgress5printERSo
libradosstriper.so.1:_ZNK22ObjectRecoveryProgress6encodeERN4ceph6buffer4listE
libradosstriper.so.1:_ZNK22PerfCountersCollection13with_countersESt8functionIFvRKSt3mapINSt7__cxx1112basic_stringIcSt11char_traitsIcESaIcEEEPN12PerfCounters23perf_counter_data_any_dESt4lessIS7_ESaISt4pairIKS7_SA_EEEEE
libradosstriper.so.1:_ZNK23objectstore_perf_stat_t4dumpEPN4ceph9FormatterE
libradosstriper.so.1:_ZNK23objectstore_perf_stat_t6encodeERN4ceph6buffer4listE
libradosstriper.so.1:_ZNK24client_writeable_range_t4dumpEPN4ceph9FormatterE
libradosstriper.so.1:_ZNK24client_writeable_range_t6encodeERN4ceph6buffer4listE
libradosstriper.so.1:_ZNK24inconsistent_obj_wrapper6encodeERN4ceph6buffer4listE
libradosstriper.so.1:_ZNK24object_stat_collection_t4dumpEPN4ceph9FormatterE
libradosstriper.so.1:_ZNK24object_stat_collection_t6encodeERN4ceph6buffer4listE
libradosstriper.so.1:_ZNK25compressible_bloom_filter4dumpEPN4ceph9FormatterE
libradosstriper.so.1:_ZNK25compressible_bloom_filter6encodeERN4ceph6buffer4listE
libradosstriper.so.1:_ZNK28inconsistent_snapset_wrapper6encodeERN4ceph6buffer4listE
libradosstriper.so.1:_ZNK4Pipe12_pipe_prefixERSo
libradosstriper.so.1:_ZNK4ceph12HeartbeatMap17get_total_workersEv
libradosstriper.so.1:_ZNK4ceph12HeartbeatMap21get_unhealthy_workersEv
libradosstriper.so.1:_ZNK4ceph12XMLFormatter7get_lenEv
libradosstriper.so.1:_ZNK4ceph13JSONFormatter7get_lenEv
libradosstriper.so.1:_ZNK4ceph14TableFormatter7get_lenEv
libradosstriper.so.1:_ZNK4pg_t10get_parentEv
libradosstriper.so.1:_ZNK4pg_t12get_ancestorEj
libradosstriper.so.1:_ZNK4pg_t12get_hobj_endEj
libradosstriper.so.1:_ZNK4pg_t14get_hobj_startEv
libradosstriper.so.1:_ZNK4pg_t14get_split_bitsEj
libradosstriper.so.1:_ZNK4pg_t4dumpEPN4ceph9FormatterE
libradosstriper.so.1:_ZNK4pg_t5printEPci
libradosstriper.so.1:_ZNK4pg_t8is_splitEjjPSt3setIS_St4lessIS_ESaIS_EE
libradosstriper.so.1:_ZNK4pg_t9calc_nameEPcPKc
libradosstriper.so.1:_ZNK5FSMap10get_healthERNSt7__cxx114listISt4pairI15health_status_tNS0_12basic_stringIcSt11char_traitsIcESaIcEEEESaIS9_EEEPSB_
libradosstriper.so.1:_ZNK5FSMap10parse_roleERKNSt7__cxx1112basic_stringIcSt11char_traitsIcESaIcEEEP10mds_role_tRSo
libradosstriper.so.1:_ZNK5FSMap11find_unusedEib
libradosstriper.so.1:_ZNK5FSMap13print_summaryEPN4ceph9FormatterEPSo
libradosstriper.so.1:_ZNK5FSMap16find_standby_forE10mds_role_tRKNSt7__cxx1112basic_stringIcSt11char_traitsIcESaIcEEE
libradosstriper.so.1:_ZNK5FSMap16parse_filesystemERKNSt7__cxx1112basic_stringIcSt11char_traitsIcESaIcEEEPSt10shared_ptrIK10FilesystemE
libradosstriper.so.1:_ZNK5FSMap20find_replacement_forE10mds_role_tRKNSt7__cxx1112basic_stringIcSt11char_traitsIcESaIcEEEb
libradosstriper.so.1:_ZNK5FSMap4dumpEPN4ceph9FormatterE
libradosstriper.so.1:_ZNK5FSMap5printERSo
libradosstriper.so.1:_ZNK5FSMap6encodeERN4ceph6buffer4listEm
libradosstriper.so.1:_ZNK5FSMap6sanityEv
libradosstriper.so.1:_ZNK5boost6random13random_device7entropyEv
libradosstriper.so.1:_ZNK5boost6thread15get_thread_infoEv
libradosstriper.so.1:_ZNK5boost6thread22interruption_requestedEv
libradosstriper.so.1:_ZNK5boost6thread8joinableEv
libradosstriper.so.1:_ZNK5spg_t9calc_nameEPcPKc
libradosstriper.so.1:_ZNK6HitSet4dumpEPN4ceph9FormatterE
libradosstriper.so.1:_ZNK6HitSet6Params4dumpEPN4ceph9FormatterE
libradosstriper.so.1:_ZNK6HitSet6Params6encodeERN4ceph6buffer4listE
libradosstriper.so.1:_ZNK6HitSet6encodeERN4ceph6buffer4listE
libradosstriper.so.1:_ZNK6MDSMap10get_healthERNSt7__cxx114listISt4pairI15health_status_tNS0_12basic_stringIcSt11char_traitsIcESaIcEEEESaIS9_EEEPSB_
libradosstriper.so.1:_ZNK6MDSMap10mds_info_t13print_summaryERSo
libradosstriper.so.1:_ZNK6MDSMap10mds_info_t16encode_versionedERN4ceph6buffer4listEm
libradosstriper.so.1:_ZNK6MDSMap10mds_info_t18encode_unversionedERN4ceph6buffer4listE
libradosstriper.so.1:_ZNK6MDSMap10mds_info_t4dumpEPN4ceph9FormatterE
libradosstriper.so.1:_ZNK6MDSMap13print_summaryEPN4ceph9FormatterEPSo
libradosstriper.so.1:_ZNK6MDSMap20is_cluster_availableEv
libradosstriper.so.1:_ZNK6MDSMap4dumpEPN4ceph9FormatterE
libradosstriper.so.1:_ZNK6MDSMap5printERSo
libradosstriper.so.1:_ZNK6MDSMap6encodeERN4ceph6buffer4listEm
libradosstriper.so.1:_ZNK6MonCap10is_capableEP11CephContext10EntityNameRKNSt7__cxx1112basic_stringIcSt11char_traitsIcESaIcEEESA_RKSt3mapIS8_S8_St4lessIS8_ESaISt4pairIS9_S8_EEEbbb
libradosstriper.so.1:_ZNK6MonCap12is_allow_allEv
libradosstriper.so.1:_ZNK6MonCap4dumpEPN4ceph9FormatterE
libradosstriper.so.1:_ZNK6MonCap6encodeERN4ceph6buffer4listE
libradosstriper.so.1:_ZNK6MonMap13print_summaryERSo
libradosstriper.so.1:_ZNK6MonMap4dumpEPN4ceph9FormatterE
libradosstriper.so.1:_ZNK6MonMap5printERSo
libradosstriper.so.1:_ZNK6MonMap6encodeERN4ceph6buffer4listEm
libradosstriper.so.1:_ZNK6OSDMap10print_treeEPN4ceph9FormatterEPSo
libradosstriper.so.1:_ZNK6OSDMap11Incremental12identify_osdE6uuid_d
libradosstriper.so.1:_ZNK6OSDMap11Incremental14encode_classicERN4ceph6buffer4listEm
libradosstriper.so.1:_ZNK6OSDMap11Incremental17encode_client_oldERN4ceph6buffer4listE
libradosstriper.so.1:_ZNK6OSDMap11Incremental18get_net_marked_outEPKS_
libradosstriper.so.1:_ZNK6OSDMap11Incremental19get_net_marked_downEPKS_
libradosstriper.so.1:_ZNK6OSDMap11Incremental4dumpEPN4ceph9FormatterE
libradosstriper.so.1:_ZNK6OSDMap11Incremental6encodeERN4ceph6buffer4listEm
libradosstriper.so.1:_ZNK6OSDMap11get_up_osdsERSt3setIiSt4lessIiESaIiEE
libradosstriper.so.1:_ZNK6OSDMap11print_poolsERSo
libradosstriper.so.1:_ZNK6OSDMap12get_all_osdsERSt3setIiSt4lessIiESaIiEE
libradosstriper.so.1:_ZNK6OSDMap12get_featuresEiPm
libradosstriper.so.1:_ZNK6OSDMap12identify_osdERK13entity_addr_t
libradosstriper.so.1:_ZNK6OSDMap12identify_osdERK6uuid_d
libradosstriper.so.1:_ZNK6OSDMap12pg_to_raw_upE4pg_tPSt6vectorIiSaIiEEPi
libradosstriper.so.1:_ZNK6OSDMap13get_blacklistEPNSt7__cxx114listISt4pairI13entity_addr_t7utime_tESaIS5_EEE
libradosstriper.so.1:_ZNK6OSDMap13print_summaryEPN4ceph9FormatterERSo
libradosstriper.so.1:_ZNK6OSDMap14_get_temp_osdsERK9pg_pool_t4pg_tPSt6vectorIiSaIiEEPi
libradosstriper.so.1:_ZNK6OSDMap14encode_classicERN4ceph6buffer4listEm
libradosstriper.so.1:_ZNK6OSDMap14find_osd_on_ipERK13entity_addr_t
libradosstriper.so.1:_ZNK6OSDMap14is_blacklistedERK13entity_addr_t
libradosstriper.so.1:_ZNK6OSDMap14pg_to_raw_osdsE4pg_tPSt6vectorIiSaIiEEPi
libradosstriper.so.1:_ZNK6OSDMap15_pg_to_raw_osdsERK9pg_pool_t4pg_tPSt6vectorIiSaIiEEPiPj
libradosstriper.so.1:_ZNK6OSDMap15_raw_to_up_osdsERK9pg_pool_tRKSt6vectorIiSaIiEEPS5_Pi
libradosstriper.so.1:_ZNK6OSDMap15get_flag_stringB5cxx11Ev
libradosstriper.so.1:_ZNK6OSDMap15subtree_is_downEiPSt3setIiSt4lessIiESaIiEE
libradosstriper.so.1:_ZNK6OSDMap17encode_client_oldERN4ceph6buffer4listE
libradosstriper.so.1:_ZNK6OSDMap18adjust_osd_weightsERKSt3mapIidSt4lessIiESaISt4pairIKidEEERNS_11IncrementalE
libradosstriper.so.1:_ZNK6OSDMap18make_object_layoutE8object_tiNSt7__cxx1112basic_stringIcSt11char_traitsIcESaIcEEE
libradosstriper.so.1:_ZNK6OSDMap19get_up_osd_featuresEv
libradosstriper.so.1:_ZNK6OSDMap20crush_ruleset_in_useEi
libradosstriper.so.1:_ZNK6OSDMap20object_locator_to_pgERK8object_tRK16object_locator_tR4pg_t
libradosstriper.so.1:_ZNK6OSDMap21_pg_to_up_acting_osdsERK4pg_tPSt6vectorIiSaIiEEPiS6_S7_
libradosstriper.so.1:_ZNK6OSDMap21print_oneline_summaryERSo
libradosstriper.so.1:_ZNK6OSDMap23_apply_primary_affinityEjRK9pg_pool_tPSt6vectorIiSaIiEEPi
libradosstriper.so.1:_ZNK6OSDMap23summarize_mapping_statsEPS_PKSt3setIlSt4lessIlESaIlEEPNSt7__cxx1112basic_stringIcSt11char_traitsIcESaIcEEEPN4ceph9FormatterE
libradosstriper.so.1:_ZNK6OSDMap24_remove_nonexistent_osdsERK9pg_pool_tRSt6vectorIiSaIiEE
libradosstriper.so.1:_ZNK6OSDMap26containing_subtree_is_downEP11CephContextiiPSt3setIiSt4lessIiESaIiEE
libradosstriper.so.1:_ZNK6OSDMap28identify_osd_on_all_channelsERK13entity_addr_t
libradosstriper.so.1:_ZNK6OSDMap4dumpEPN4ceph9FormatterE
libradosstriper.so.1:_ZNK6OSDMap5printERSo
libradosstriper.so.1:_ZNK6OSDMap6encodeERN4ceph6buffer4listEm
libradosstriper.so.1:_ZNK6PullOp4costEP11CephContext
libradosstriper.so.1:_ZNK6PullOp4dumpEPN4ceph9FormatterE
libradosstriper.so.1:_ZNK6PullOp5printERSo
libradosstriper.so.1:_ZNK6PullOp6encodeERN4ceph6buffer4listEm
libradosstriper.so.1:_ZNK6PushOp4costEP11CephContext
libradosstriper.so.1:_ZNK6PushOp4dumpEPN4ceph9FormatterE
libradosstriper.so.1:_ZNK6PushOp5printERSo
libradosstriper.so.1:_ZNK6PushOp6encodeERN4ceph6buffer4listEm
libradosstriper.so.1:_ZNK6Thread10is_startedEv
libradosstriper.so.1:_ZNK6Thread13get_thread_idEv
libradosstriper.so.1:_ZNK6Thread7am_selfEv
libradosstriper.so.1:_ZNK6coll_t12encoded_sizeEv
libradosstriper.so.1:_ZNK6coll_t4dumpEPN4ceph9FormatterE
libradosstriper.so.1:_ZNK6coll_t6encodeERN4ceph6buffer4listE
libradosstriper.so.1:_ZNK7Message4dumpEPN4ceph9FormatterE
libradosstriper.so.1:_ZNK7SnapSet12get_filteredERK9pg_pool_t
libradosstriper.so.1:_ZNK7SnapSet15get_clone_bytesE8snapid_t
libradosstriper.so.1:_ZNK7SnapSet4dumpEPN4ceph9FormatterE
libradosstriper.so.1:_ZNK7SnapSet6encodeERN4ceph6buffer4listE
libradosstriper.so.1:_ZNK7fnode_t4dumpEPN4ceph9FormatterE
libradosstriper.so.1:_ZNK7fnode_t6encodeERN4ceph6buffer4listE
libradosstriper.so.1:_ZNK7inode_t19older_is_consistentERKS_
libradosstriper.so.1:_ZNK7inode_t4dumpEPN4ceph9FormatterE
libradosstriper.so.1:_ZNK7inode_t6encodeERN4ceph6buffer4listEm
libradosstriper.so.1:_ZNK7inode_t7compareERKS_Pb
libradosstriper.so.1:_ZNK7mempool6pool_t15allocated_bytesEv
libradosstriper.so.1:_ZNK7mempool6pool_t15allocated_itemsEv
libradosstriper.so.1:_ZNK7mempool6pool_t4dumpEPN4ceph9FormatterE
libradosstriper.so.1:_ZNK7mempool6pool_t9get_statsEPNS_7stats_tEPSt3mapINSt7__cxx1112basic_stringIcSt11char_traitsIcESaIcEEES1_St4lessIS9_ESaISt4pairIKS9_S1_EEE
libradosstriper.so.1:_ZNK8ConfFile12sections_endB5cxx11Ev
libradosstriper.so.1:_ZNK8ConfFile14sections_beginB5cxx11Ev
libradosstriper.so.1:_ZNK8ConfFile4readERKNSt7__cxx1112basic_stringIcSt11char_traitsIcESaIcEEES7_RS5_
libradosstriper.so.1:_ZNK8ConfLineltERKS_
libradosstriper.so.1:_ZNK8LogEntry4dumpEPN4ceph9FormatterE
libradosstriper.so.1:_ZNK8LogEntry6encodeERN4ceph6buffer4listEm
libradosstriper.so.1:_ZNK8Objecter11op_target_t4dumpEPN4ceph9FormatterE
libradosstriper.so.1:_ZNK8Objecter13dump_pool_opsEPN4ceph9FormatterE
libradosstriper.so.1:_ZNK8Objecter15dump_statfs_opsEPN4ceph9FormatterE
libradosstriper.so.1:_ZNK8Objecter16osdmap_full_flagEv
libradosstriper.so.1:_ZNK8Objecter16osdmap_pool_fullEl
libradosstriper.so.1:_ZNK8Objecter17_osdmap_full_flagEv
libradosstriper.so.1:_ZNK8Objecter17_osdmap_pool_fullERK9pg_pool_t
libradosstriper.so.1:_ZNK8Objecter17_osdmap_pool_fullEl
libradosstriper.so.1:_ZNK8Objecter18dump_pool_stat_opsEPN4ceph9FormatterE
libradosstriper.so.1:_ZNK8Objecter21_osdmap_has_pool_fullEv
libradosstriper.so.1:_ZNK8Objecter21get_tracked_conf_keysEv
libradosstriper.so.1:_ZNK8ScrubMap4dumpEPN4ceph9FormatterE
libradosstriper.so.1:_ZNK8ScrubMap6encodeERN4ceph6buffer4listE
libradosstriper.so.1:_ZNK8ScrubMap6object4dumpEPN4ceph9FormatterE
libradosstriper.so.1:_ZNK8ScrubMap6object6encodeERN4ceph6buffer4listE
libradosstriper.so.1:_ZNK8pg_log_t4dumpEPN4ceph9FormatterE
libradosstriper.so.1:_ZNK8pg_log_t5printERSo
libradosstriper.so.1:_ZNK8pg_log_t6encodeERN4ceph6buffer4listE
libradosstriper.so.1:_ZNK9CryptoKey5printERSo
libradosstriper.so.1:_ZNK9CryptoKey6encodeERN4ceph6buffer4listE
libradosstriper.so.1:_ZNK9CryptoKey6to_strERNSt7__cxx1112basic_stringIcSt11char_traitsIcESaIcEEE
libradosstriper.so.1:_ZNK9ECSubRead4dumpEPN4ceph9FormatterE
libradosstriper.so.1:_ZNK9ECSubRead6encodeERN4ceph6buffer4listEm
libradosstriper.so.1:_ZNK9FSMapUser5printERSo
libradosstriper.so.1:_ZNK9FSMapUser6encodeERN4ceph6buffer4listEm
libradosstriper.so.1:_ZNK9FSMapUser9fs_info_t6encodeERN4ceph6buffer4listEm
libradosstriper.so.1:_ZNK9SafeTimer4dumpEPKc
libradosstriper.so.1:_ZNK9hobject_t4dumpEPN4ceph9FormatterE
libradosstriper.so.1:_ZNK9hobject_t6encodeERN4ceph6buffer4listE
libradosstriper.so.1:_ZNK9hobject_t6to_strB5cxx11Ev
libradosstriper.so.1:_ZNK9pg_info_t4dumpEPN4ceph9FormatterE
libradosstriper.so.1:_ZNK9pg_info_t6encodeERN4ceph6buffer4listE
libradosstriper.so.1:_ZNK9pg_pool_t11snap_existsEPKc
libradosstriper.so.1:_ZNK9pg_pool_t12raw_pg_to_pgE4pg_t
libradosstriper.so.1:_ZNK9pg_pool_t13raw_pg_to_ppsE4pg_t
libradosstriper.so.1:_ZNK9pg_pool_t14raw_hash_to_pgEj
libradosstriper.so.1:_ZNK9pg_pool_t15is_removed_snapE8snapid_t
libradosstriper.so.1:_ZNK9pg_pool_t16get_snap_contextEv
libradosstriper.so.1:_ZNK9pg_pool_t18get_pg_num_divisorE4pg_t
libradosstriper.so.1:_ZNK9pg_pool_t18is_pool_snaps_modeEv
libradosstriper.so.1:_ZNK9pg_pool_t19build_removed_snapsER12interval_setI8snapid_tE
libradosstriper.so.1:_ZNK9pg_pool_t20convert_to_pg_shardsERKSt6vectorIiSaIiEEPSt3setI10pg_shard_tSt4lessIS6_ESaIS6_EE
libradosstriper.so.1:_ZNK9pg_pool_t22get_random_pg_positionE4pg_tj
libradosstriper.so.1:_ZNK9pg_pool_t23is_unmanaged_snaps_modeEv
libradosstriper.so.1:_ZNK9pg_pool_t4dumpEPN4ceph9FormatterE
libradosstriper.so.1:_ZNK9pg_pool_t6encodeERN4ceph6buffer4listEm
libradosstriper.so.1:_ZNK9pg_pool_t8hash_keyERKNSt7__cxx1112basic_stringIcSt11char_traitsIcESaIcEEES7_
libradosstriper.so.1:_ZNK9pg_stat_t10dump_briefEPN4ceph9FormatterE
libradosstriper.so.1:_ZNK9pg_stat_t13is_acting_osdEib
libradosstriper.so.1:_ZNK9pg_stat_t4dumpEPN4ceph9FormatterE
libradosstriper.so.1:_ZNK9pg_stat_t6encodeERN4ceph6buffer4listE
libradosstriper.so.1:_ZThn8_N8Objecter11ms_dispatchEP7Message
libradosstriper.so.1:_ZThn8_N8Objecter15ms_handle_resetEP10Connection
libradosstriper.so.1:_ZThn8_N8Objecter17ms_get_authorizerEiPP14AuthAuthorizerb
libradosstriper.so.1:_ZThn8_N8Objecter17ms_handle_connectEP10Connection
libradosstriper.so.1:_ZThn8_N8Objecter17ms_handle_refusedEP10Connection
libradosstriper.so.1:_ZThn8_N8Objecter22ms_handle_remote_resetEP10Connection
libradosstriper.so.1:_ZThn8_N8ObjecterD0Ev
libradosstriper.so.1:_ZThn8_N8ObjecterD1Ev
libradosstriper.so.1:_ZeqRK17object_stat_sum_tS1_
libradosstriper.so.1:_ZeqRK9pg_stat_tS1_
libradosstriper.so.1:_ZlsRSo10mon_rwxa_t
libradosstriper.so.1:_ZlsRSo18code_environment_t
libradosstriper.so.1:_ZlsRSoPK8sockaddr
libradosstriper.so.1:_ZlsRSoRK10ECSubWrite
libradosstriper.so.1:_ZlsRSoRK10EntityName
libradosstriper.so.1:_ZlsRSoRK10ghobject_t
libradosstriper.so.1:_ZlsRSoRK10mds_role_t
libradosstriper.so.1:_ZlsRSoRK10osd_info_t
libradosstriper.so.1:_ZlsRSoRK10pg_shard_t
libradosstriper.so.1:_ZlsRSoRK10shard_id_t
libradosstriper.so.1:_ZlsRSoRK11MonCapGrant
libradosstriper.so.1:_ZlsRSoRK11PushReplyOp
libradosstriper.so.1:_ZlsRSoRK11frag_info_t
libradosstriper.so.1:_ZlsRSoRK11nest_info_t
libradosstriper.so.1:_ZlsRSoRK11osd_xinfo_t
libradosstriper.so.1:_ZlsRSoRK11pg_notify_t
libradosstriper.so.1:_ZlsRSoRK11pool_opts_t
libradosstriper.so.1:_ZlsRSoRK12quota_info_t
libradosstriper.so.1:_ZlsRSoRK13entity_addr_t
libradosstriper.so.1:_ZlsRSoRK13file_layout_t
libradosstriper.so.1:_ZlsRSoRK13object_info_t
libradosstriper.so.1:_ZlsRSoRK13pg_interval_t
libradosstriper.so.1:_ZlsRSoRK14ECSubReadReply
libradosstriper.so.1:_ZlsRSoRK14pg_log_entry_t
libradosstriper.so.1:_ZlsRSoRK14store_statfs_t
libradosstriper.so.1:_ZlsRSoRK15ECSubWriteReply
libradosstriper.so.1:_ZlsRSoRK15osd_peer_stat_t
libradosstriper.so.1:_ZlsRSoRK15pg_missing_item
libradosstriper.so.1:_ZlsRSoRK16StringConstraint
libradosstriper.so.1:_ZlsRSoRK16sockaddr_storage
libradosstriper.so.1:_ZlsRSoRK18ObjectRecoveryInfo
libradosstriper.so.1:_ZlsRSoRK22ObjectRecoveryProgress
libradosstriper.so.1:_ZlsRSoRK24client_writeable_range_t
libradosstriper.so.1:_ZlsRSoRK4Pipe
libradosstriper.so.1:_ZlsRSoRK4pg_t
libradosstriper.so.1:_ZlsRSoRK5OSDOp
libradosstriper.so.1:_ZlsRSoRK5spg_t
libradosstriper.so.1:_ZlsRSoRK6MonCap
libradosstriper.so.1:_ZlsRSoRK6PullOp
libradosstriper.so.1:_ZlsRSoRK6PushOp
libradosstriper.so.1:_ZlsRSoRK7SnapSet
libradosstriper.so.1:_ZlsRSoRK8ConfFile
libradosstriper.so.1:_ZlsRSoRK8ConfLine
libradosstriper.so.1:_ZlsRSoRK9ECSubRead
libradosstriper.so.1:_ZlsRSoRK9TextTable
libradosstriper.so.1:_ZlsRSoRK9hobject_t
libradosstriper.so.1:_ZlsRSoRK9pg_pool_t
libradosstriper.so.1:_ZlsRSoRKN6HitSet6ParamsE
libradosstriper.so.1:_ZltRK10EntityNameS1_
libradosstriper.so.1:ceph_arch_arm_probe
libradosstriper.so.1:ceph_arch_intel_probe
libradosstriper.so.1:ceph_arch_probe
libradosstriper.so.1:ceph_crc32c_intel_baseline
libradosstriper.so.1:ceph_crc32c_intel_fast
libradosstriper.so.1:ceph_crc32c_intel_fast_exists
libradosstriper.so.1:ceph_crc32c_sctp
libradosstriper.so.1:check_for_control_characters
libradosstriper.so.1:check_for_control_characters_cstr
libradosstriper.so.1:check_utf8
libradosstriper.so.1:check_utf8_cstr
libradosstriper.so.1:code_environment_to_str
libradosstriper.so.1:crc32_iscsi_00
libradosstriper.so.1:crc32_iscsi_zero_00
libradosstriper.so.1:crush_add_bucket
libradosstriper.so.1:crush_add_list_bucket_item
libradosstriper.so.1:crush_add_rule
libradosstriper.so.1:crush_add_straw2_bucket_item
libradosstriper.so.1:crush_add_straw_bucket_item
libradosstriper.so.1:crush_add_tree_bucket_item
libradosstriper.so.1:crush_add_uniform_bucket_item
libradosstriper.so.1:crush_addition_is_unsafe
libradosstriper.so.1:crush_adjust_list_bucket_item_weight
libradosstriper.so.1:crush_adjust_straw2_bucket_item_weight
libradosstriper.so.1:crush_adjust_straw_bucket_item_weight
libradosstriper.so.1:crush_adjust_tree_bucket_item_weight
libradosstriper.so.1:crush_adjust_uniform_bucket_item_weight
libradosstriper.so.1:crush_bucket_add_item
libradosstriper.so.1:crush_bucket_adjust_item_weight
libradosstriper.so.1:crush_bucket_alg_name
libradosstriper.so.1:crush_bucket_remove_item
libradosstriper.so.1:crush_calc_straw
libradosstriper.so.1:crush_create
libradosstriper.so.1:crush_destroy
libradosstriper.so.1:crush_destroy_bucket
libradosstriper.so.1:crush_destroy_bucket_list
libradosstriper.so.1:crush_destroy_bucket_straw
libradosstriper.so.1:crush_destroy_bucket_straw2
libradosstriper.so.1:crush_destroy_bucket_tree
libradosstriper.so.1:crush_destroy_bucket_uniform
libradosstriper.so.1:crush_destroy_rule
libradosstriper.so.1:crush_do_rule
libradosstriper.so.1:crush_finalize
libradosstriper.so.1:crush_find_rule
libradosstriper.so.1:crush_get_bucket_item_weight
libradosstriper.so.1:crush_get_next_bucket_id
libradosstriper.so.1:crush_hash32
libradosstriper.so.1:crush_hash32_2
libradosstriper.so.1:crush_hash32_3
libradosstriper.so.1:crush_hash32_4
libradosstriper.so.1:crush_hash32_5
libradosstriper.so.1:crush_hash_name
libradosstriper.so.1:crush_init_workspace
libradosstriper.so.1:crush_make_bucket
libradosstriper.so.1:crush_make_list_bucket
libradosstriper.so.1:crush_make_rule
libradosstriper.so.1:crush_make_straw2_bucket
libradosstriper.so.1:crush_make_straw_bucket
libradosstriper.so.1:crush_make_tree_bucket
libradosstriper.so.1:crush_make_uniform_bucket
libradosstriper.so.1:crush_multiplication_is_unsafe
libradosstriper.so.1:crush_remove_bucket
libradosstriper.so.1:crush_remove_list_bucket_item
libradosstriper.so.1:crush_remove_straw2_bucket_item
libradosstriper.so.1:crush_remove_straw_bucket_item
libradosstriper.so.1:crush_remove_tree_bucket_item
libradosstriper.so.1:crush_remove_uniform_bucket_item
libradosstriper.so.1:crush_reweight_bucket
libradosstriper.so.1:crush_rule_set_step
libradosstriper.so.1:decode_utf8
libradosstriper.so.1:encode_utf8
libradosstriper.so.1:escape_json_attr
libradosstriper.so.1:escape_json_attr_len
libradosstriper.so.1:escape_xml_attr
libradosstriper.so.1:escape_xml_attr_len
libradosstriper.so.1:get_process_name
libradosstriper.so.1:is_control_character
libradosstriper.so.1:pipe_cloexec
libradosstriper.so.1:rados_striper_aio_append
libradosstriper.so.1:rados_striper_aio_flush
libradosstriper.so.1:rados_striper_aio_read
libradosstriper.so.1:rados_striper_aio_remove
libradosstriper.so.1:rados_striper_aio_stat
libradosstriper.so.1:rados_striper_aio_write
libradosstriper.so.1:rados_striper_aio_write_full
libradosstriper.so.1:rados_striper_append
libradosstriper.so.1:rados_striper_create
libradosstriper.so.1:rados_striper_destroy
libradosstriper.so.1:rados_striper_getxattr
libradosstriper.so.1:rados_striper_getxattrs
libradosstriper.so.1:rados_striper_getxattrs_end
libradosstriper.so.1:rados_striper_getxattrs_next
libradosstriper.so.1:rados_striper_multi_aio_create_completion
libradosstriper.so.1:rados_striper_multi_aio_get_return_value
libradosstriper.so.1:rados_striper_multi_aio_is_complete
libradosstriper.so.1:rados_striper_multi_aio_is_complete_and_cb
libradosstriper.so.1:rados_striper_multi_aio_is_safe
libradosstriper.so.1:rados_striper_multi_aio_is_safe_and_cb
libradosstriper.so.1:rados_striper_multi_aio_release
libradosstriper.so.1:rados_striper_multi_aio_wait_for_complete
libradosstriper.so.1:rados_striper_multi_aio_wait_for_complete_and_cb
libradosstriper.so.1:rados_striper_multi_aio_wait_for_safe
libradosstriper.so.1:rados_striper_multi_aio_wait_for_safe_and_cb
libradosstriper.so.1:rados_striper_read
libradosstriper.so.1:rados_striper_remove
libradosstriper.so.1:rados_striper_rmxattr
libradosstriper.so.1:rados_striper_set_object_layout_object_size
libradosstriper.so.1:rados_striper_set_object_layout_stripe_count
libradosstriper.so.1:rados_striper_set_object_layout_stripe_unit
libradosstriper.so.1:rados_striper_setxattr
libradosstriper.so.1:rados_striper_stat
libradosstriper.so.1:rados_striper_trunc
libradosstriper.so.1:rados_striper_write
libradosstriper.so.1:rados_striper_write_full
libradosstriper.so.1:resolve_addrs
libradosstriper.so.1:safe_cat
libradosstriper.so.1:safe_pread
libradosstriper.so.1:safe_pread_exact
libradosstriper.so.1:safe_pwrite
libradosstriper.so.1:safe_read
libradosstriper.so.1:safe_read_exact
libradosstriper.so.1:safe_read_file
libradosstriper.so.1:safe_splice
libradosstriper.so.1:safe_splice_exact
libradosstriper.so.1:safe_write
libradosstriper.so.1:safe_write_file
librbd.so.1:_ZN6librbd12ImageOptions3setEiRKNSt7__cxx1112basic_stringIcSt11char_traitsIcESaIcEEE
librbd.so.1:_ZN6librbd12ImageOptions3setEim
librbd.so.1:_ZN6librbd12ImageOptions5clearEv
librbd.so.1:_ZN6librbd12ImageOptions5unsetEi
librbd.so.1:_ZN6librbd12ImageOptions6is_setEiPb
librbd.so.1:_ZN6librbd12ImageOptionsC1EPv
librbd.so.1:_ZN6librbd12ImageOptionsC1Ev
librbd.so.1:_ZN6librbd12ImageOptionsC2EPv
librbd.so.1:_ZN6librbd12ImageOptionsC2Ev
librbd.so.1:_ZN6librbd12ImageOptionsD1Ev
librbd.so.1:_ZN6librbd12ImageOptionsD2Ev
librbd.so.1:_ZN6librbd15ProgressContextD0Ev
librbd.so.1:_ZN6librbd15ProgressContextD1Ev
librbd.so.1:_ZN6librbd15ProgressContextD2Ev
librbd.so.1:_ZN6librbd3RBD13AioCompletion11is_completeEv
librbd.so.1:_ZN6librbd3RBD13AioCompletion16get_return_valueEv
librbd.so.1:_ZN6librbd3RBD13AioCompletion17wait_for_completeEv
librbd.so.1:_ZN6librbd3RBD13AioCompletion7get_argEv
librbd.so.1:_ZN6librbd3RBD13AioCompletion7releaseEv
librbd.so.1:_ZN6librbd3RBD13AioCompletionC1EPvPFvS2_S2_E
librbd.so.1:_ZN6librbd3RBD13AioCompletionC2EPvPFvS2_S2_E
librbd.so.1:_ZN6librbd3RBD14open_read_onlyERN8librados5IoCtxERNS_5ImageEPKcS7_
librbd.so.1:_ZN6librbd3RBD15mirror_mode_getERN8librados5IoCtxEP17rbd_mirror_mode_t
librbd.so.1:_ZN6librbd3RBD15mirror_mode_setERN8librados5IoCtxE17rbd_mirror_mode_t
librbd.so.1:_ZN6librbd3RBD15mirror_peer_addERN8librados5IoCtxEPNSt7__cxx1112basic_stringIcSt11char_traitsIcESaIcEEERKS9_SC_
librbd.so.1:_ZN6librbd3RBD16mirror_peer_listERN8librados5IoCtxEPSt6vectorINS_13mirror_peer_tESaIS5_EE
librbd.so.1:_ZN6librbd3RBD18aio_open_read_onlyERN8librados5IoCtxERNS_5ImageEPKcS7_PNS0_13AioCompletionE
librbd.so.1:_ZN6librbd3RBD18mirror_peer_removeERN8librados5IoCtxERKNSt7__cxx1112basic_stringIcSt11char_traitsIcESaIcEEE
librbd.so.1:_ZN6librbd3RBD20remove_with_progressERN8librados5IoCtxEPKcRNS_15ProgressContextE
librbd.so.1:_ZN6librbd3RBD22mirror_peer_set_clientERN8librados5IoCtxERKNSt7__cxx1112basic_stringIcSt11char_traitsIcESaIcEEESB_
librbd.so.1:_ZN6librbd3RBD23mirror_peer_set_clusterERN8librados5IoCtxERKNSt7__cxx1112basic_stringIcSt11char_traitsIcESaIcEEESB_
librbd.so.1:_ZN6librbd3RBD24mirror_image_status_listERN8librados5IoCtxERKNSt7__cxx1112basic_stringIcSt11char_traitsIcESaIcEEEmPSt3mapIS9_NS_21mirror_image_status_tESt4lessIS9_ESaISt4pairISA_SD_EEE
librbd.so.1:_ZN6librbd3RBD27mirror_image_status_summaryERN8librados5IoCtxEPSt3mapI31rbd_mirror_image_status_state_tiSt4lessIS5_ESaISt4pairIKS5_iEEE
librbd.so.1:_ZN6librbd3RBD4listERN8librados5IoCtxERSt6vectorINSt7__cxx1112basic_stringIcSt11char_traitsIcESaIcEEESaISA_EE
librbd.so.1:_ZN6librbd3RBD4openERN8librados5IoCtxERNS_5ImageEPKc
librbd.so.1:_ZN6librbd3RBD4openERN8librados5IoCtxERNS_5ImageEPKcS7_
librbd.so.1:_ZN6librbd3RBD5cloneERN8librados5IoCtxEPKcS5_S3_S5_mPi
librbd.so.1:_ZN6librbd3RBD6clone2ERN8librados5IoCtxEPKcS5_S3_S5_mPimi
librbd.so.1:_ZN6librbd3RBD6clone3ERN8librados5IoCtxEPKcS5_S3_S5_RNS_12ImageOptionsE
librbd.so.1:_ZN6librbd3RBD6createERN8librados5IoCtxEPKcmPi
librbd.so.1:_ZN6librbd3RBD6removeERN8librados5IoCtxEPKc
librbd.so.1:_ZN6librbd3RBD6renameERN8librados5IoCtxEPKcS5_
librbd.so.1:_ZN6librbd3RBD7create2ERN8librados5IoCtxEPKcmmPi
librbd.so.1:_ZN6librbd3RBD7create3ERN8librados5IoCtxEPKcmmPimm
librbd.so.1:_ZN6librbd3RBD7create4ERN8librados5IoCtxEPKcmRNS_12ImageOptionsE
librbd.so.1:_ZN6librbd3RBD7versionEPiS1_S1_
librbd.so.1:_ZN6librbd3RBD8aio_openERN8librados5IoCtxERNS_5ImageEPKcS7_PNS0_13AioCompletionE
librbd.so.1:_ZN6librbd3RBDC1Ev
librbd.so.1:_ZN6librbd3RBDC2Ev
librbd.so.1:_ZN6librbd3RBDD1Ev
librbd.so.1:_ZN6librbd3RBDD2Ev
librbd.so.1:_ZN6librbd5Image10aio_write2EmmRN4ceph6buffer4listEPNS_3RBD13AioCompletionEi
librbd.so.1:_ZN6librbd5Image10break_lockERKNSt7__cxx1112basic_stringIcSt11char_traitsIcESaIcEEES8_
librbd.so.1:_ZN6librbd5Image10lock_breakE15rbd_lock_mode_tRKNSt7__cxx1112basic_stringIcSt11char_traitsIcESaIcEEE
librbd.so.1:_ZN6librbd5Image10old_formatEPh
librbd.so.1:_ZN6librbd5Image11aio_discardEmmPNS_3RBD13AioCompletionE
librbd.so.1:_ZN6librbd5Image11lock_sharedERKNSt7__cxx1112basic_stringIcSt11char_traitsIcESaIcEEES8_
librbd.so.1:_ZN6librbd5Image11parent_infoEPNSt7__cxx1112basic_stringIcSt11char_traitsIcESaIcEEES7_S7_
librbd.so.1:_ZN6librbd5Image11snap_createEPKc
librbd.so.1:_ZN6librbd5Image11snap_existsEPKc
librbd.so.1:_ZN6librbd5Image11snap_removeEPKc
librbd.so.1:_ZN6librbd5Image11snap_renameEPKcS2_
librbd.so.1:_ZN6librbd5Image12diff_iterateEPKcmmPFimmiPvES3_
librbd.so.1:_ZN6librbd5Image12list_lockersEPNSt7__cxx114listINS_8locker_tESaIS3_EEEPbPNS1_12basic_stringIcSt11char_traitsIcESaIcEEE
librbd.so.1:_ZN6librbd5Image12lock_acquireE15rbd_lock_mode_t
librbd.so.1:_ZN6librbd5Image12lock_releaseEv
librbd.so.1:_ZN6librbd5Image12metadata_getERKNSt7__cxx1112basic_stringIcSt11char_traitsIcESaIcEEEPS6_
librbd.so.1:_ZN6librbd5Image12metadata_setERKNSt7__cxx1112basic_stringIcSt11char_traitsIcESaIcEEES8_
librbd.so.1:_ZN6librbd5Image12read_iterateEmmPFimmPKcPvES3_
librbd.so.1:_ZN6librbd5Image12snap_exists2EPKcPb
librbd.so.1:_ZN6librbd5Image12snap_protectEPKc
librbd.so.1:_ZN6librbd5Image12snap_remove2EPKcjRNS_15ProgressContextE
librbd.so.1:_ZN6librbd5Image12update_watchEPNS_14UpdateWatchCtxEPm
librbd.so.1:_ZN6librbd5Image13diff_iterate2EPKcmmbbPFimmiPvES3_
librbd.so.1:_ZN6librbd5Image13list_childrenEPSt3setISt4pairINSt7__cxx1112basic_stringIcSt11char_traitsIcESaIcEEES8_ESt4lessIS9_ESaIS9_EE
librbd.so.1:_ZN6librbd5Image13metadata_listERKNSt7__cxx1112basic_stringIcSt11char_traitsIcESaIcEEEmPSt3mapIS6_N4ceph6buffer4listESt4lessIS6_ESaISt4pairIS7_SC_EEE
librbd.so.1:_ZN6librbd5Image13read_iterate2EmmPFimmPKcPvES3_
librbd.so.1:_ZN6librbd5Image13snap_rollbackEPKc
librbd.so.1:_ZN6librbd5Image14lock_exclusiveERKNSt7__cxx1112basic_stringIcSt11char_traitsIcESaIcEEE
librbd.so.1:_ZN6librbd5Image14poll_io_eventsEPPNS_3RBD13AioCompletionEi
librbd.so.1:_ZN6librbd5Image14snap_get_limitEPm
librbd.so.1:_ZN6librbd5Image14snap_set_limitEm
librbd.so.1:_ZN6librbd5Image14snap_unprotectEPKc
librbd.so.1:_ZN6librbd5Image14update_unwatchEm
librbd.so.1:_ZN6librbd5Image15lock_get_ownersEP15rbd_lock_mode_tPNSt7__cxx114listINS3_12basic_stringIcSt11char_traitsIcESaIcEEESaIS9_EEE
librbd.so.1:_ZN6librbd5Image15metadata_removeERKNSt7__cxx1112basic_stringIcSt11char_traitsIcESaIcEEE
librbd.so.1:_ZN6librbd5Image15update_featuresEmb
librbd.so.1:_ZN6librbd5Image16check_object_mapERNS_15ProgressContextE
librbd.so.1:_ZN6librbd5Image16get_data_pool_idEv
librbd.so.1:_ZN6librbd5Image16invalidate_cacheEv
librbd.so.1:_ZN6librbd5Image17snap_is_protectedEPKcPb
librbd.so.1:_ZN6librbd5Image18copy_with_progressERN8librados5IoCtxEPKcRNS_15ProgressContextE
librbd.so.1:_ZN6librbd5Image18rebuild_object_mapERNS_15ProgressContextE
librbd.so.1:_ZN6librbd5Image19copy_with_progress2ERS0_RNS_15ProgressContextE
librbd.so.1:_ZN6librbd5Image19copy_with_progress3ERN8librados5IoCtxEPKcRNS_12ImageOptionsERNS_15ProgressContextE
librbd.so.1:_ZN6librbd5Image19mirror_image_demoteEv
librbd.so.1:_ZN6librbd5Image19mirror_image_enableEv
librbd.so.1:_ZN6librbd5Image19mirror_image_resyncEv
librbd.so.1:_ZN6librbd5Image20mirror_image_disableEb
librbd.so.1:_ZN6librbd5Image20mirror_image_promoteEb
librbd.so.1:_ZN6librbd5Image20resize_with_progressEmRNS_15ProgressContextE
librbd.so.1:_ZN6librbd5Image21flatten_with_progressERNS_15ProgressContextE
librbd.so.1:_ZN6librbd5Image21get_block_name_prefixB5cxx11Ev
librbd.so.1:_ZN6librbd5Image21mirror_image_get_infoEPNS_19mirror_image_info_tEm
librbd.so.1:_ZN6librbd5Image22set_image_notificationEii
librbd.so.1:_ZN6librbd5Image23is_exclusive_lock_ownerEPb
librbd.so.1:_ZN6librbd5Image23mirror_image_get_statusEPNS_21mirror_image_status_tEm
librbd.so.1:_ZN6librbd5Image27snap_rollback_with_progressEPKcRNS_15ProgressContextE
librbd.so.1:_ZN6librbd5Image4copyERN8librados5IoCtxEPKc
librbd.so.1:_ZN6librbd5Image4readEmmRN4ceph6buffer4listE
librbd.so.1:_ZN6librbd5Image4sizeEPm
librbd.so.1:_ZN6librbd5Image4statER16rbd_image_info_tm
librbd.so.1:_ZN6librbd5Image5closeEv
librbd.so.1:_ZN6librbd5Image5copy2ERS0_
librbd.so.1:_ZN6librbd5Image5copy3ERN8librados5IoCtxEPKcRNS_12ImageOptionsE
librbd.so.1:_ZN6librbd5Image5flushEv
librbd.so.1:_ZN6librbd5Image5read2EmmRN4ceph6buffer4listEi
librbd.so.1:_ZN6librbd5Image5writeEmmRN4ceph6buffer4listE
librbd.so.1:_ZN6librbd5Image6get_idEPNSt7__cxx1112basic_stringIcSt11char_traitsIcESaIcEEE
librbd.so.1:_ZN6librbd5Image6resizeEm
librbd.so.1:_ZN6librbd5Image6unlockERKNSt7__cxx1112basic_stringIcSt11char_traitsIcESaIcEEE
librbd.so.1:_ZN6librbd5Image6write2EmmRN4ceph6buffer4listEi
librbd.so.1:_ZN6librbd5Image7discardEmm
librbd.so.1:_ZN6librbd5Image7flattenEv
librbd.so.1:_ZN6librbd5Image7overlapEPm
librbd.so.1:_ZN6librbd5Image7resize2EmbRNS_15ProgressContextE
librbd.so.1:_ZN6librbd5Image8aio_readEmmRN4ceph6buffer4listEPNS_3RBD13AioCompletionE
librbd.so.1:_ZN6librbd5Image8featuresEPm
librbd.so.1:_ZN6librbd5Image8snap_setEPKc
librbd.so.1:_ZN6librbd5Image9aio_closeEPNS_3RBD13AioCompletionE
librbd.so.1:_ZN6librbd5Image9aio_flushEPNS_3RBD13AioCompletionE
librbd.so.1:_ZN6librbd5Image9aio_read2EmmRN4ceph6buffer4listEPNS_3RBD13AioCompletionEi
librbd.so.1:_ZN6librbd5Image9aio_writeEmmRN4ceph6buffer4listEPNS_3RBD13AioCompletionE
librbd.so.1:_ZN6librbd5Image9get_flagsEPm
librbd.so.1:_ZN6librbd5Image9snap_listERSt6vectorINS_11snap_info_tESaIS2_EE
librbd.so.1:_ZN6librbd5ImageC1Ev
librbd.so.1:_ZN6librbd5ImageC2Ev
librbd.so.1:_ZN6librbd5ImageD1Ev
librbd.so.1:_ZN6librbd5ImageD2Ev
librbd.so.1:_ZNK6librbd12ImageOptions3getEiPNSt7__cxx1112basic_stringIcSt11char_traitsIcESaIcEEE
librbd.so.1:_ZNK6librbd12ImageOptions3getEiPm
librbd.so.1:_ZNK6librbd12ImageOptions5emptyEv
librbd.so.1:_ZNK6librbd5Image15get_stripe_unitEv
librbd.so.1:_ZNK6librbd5Image16get_stripe_countEv
librbd.so.1:rbd_aio_close
librbd.so.1:rbd_aio_create_completion
librbd.so.1:rbd_aio_discard
librbd.so.1:rbd_aio_flush
librbd.so.1:rbd_aio_get_arg
librbd.so.1:rbd_aio_get_return_value
librbd.so.1:rbd_aio_is_complete
librbd.so.1:rbd_aio_open
librbd.so.1:rbd_aio_open_read_only
librbd.so.1:rbd_aio_read
librbd.so.1:rbd_aio_read2
librbd.so.1:rbd_aio_release
librbd.so.1:rbd_aio_wait_for_complete
librbd.so.1:rbd_aio_write
librbd.so.1:rbd_aio_write2
librbd.so.1:rbd_break_lock
librbd.so.1:rbd_clone
librbd.so.1:rbd_clone2
librbd.so.1:rbd_clone3
librbd.so.1:rbd_close
librbd.so.1:rbd_copy
librbd.so.1:rbd_copy2
librbd.so.1:rbd_copy3
librbd.so.1:rbd_copy_with_progress
librbd.so.1:rbd_copy_with_progress2
librbd.so.1:rbd_copy_with_progress3
librbd.so.1:rbd_create
librbd.so.1:rbd_create2
librbd.so.1:rbd_create3
librbd.so.1:rbd_create4
librbd.so.1:rbd_diff_iterate
librbd.so.1:rbd_diff_iterate2
librbd.so.1:rbd_discard
librbd.so.1:rbd_flatten
librbd.so.1:rbd_flush
librbd.so.1:rbd_get_block_name_prefix
librbd.so.1:rbd_get_data_pool_id
librbd.so.1:rbd_get_features
librbd.so.1:rbd_get_flags
librbd.so.1:rbd_get_id
librbd.so.1:rbd_get_old_format
librbd.so.1:rbd_get_overlap
librbd.so.1:rbd_get_parent_info
librbd.so.1:rbd_get_size
librbd.so.1:rbd_get_stripe_count
librbd.so.1:rbd_get_stripe_unit
librbd.so.1:rbd_image_options_clear
librbd.so.1:rbd_image_options_create
librbd.so.1:rbd_image_options_destroy
librbd.so.1:rbd_image_options_get_string
librbd.so.1:rbd_image_options_get_uint64
librbd.so.1:rbd_image_options_is_empty
librbd.so.1:rbd_image_options_is_set
librbd.so.1:rbd_image_options_set_string
librbd.so.1:rbd_image_options_set_uint64
librbd.so.1:rbd_image_options_unset
librbd.so.1:rbd_invalidate_cache
librbd.so.1:rbd_is_exclusive_lock_owner
librbd.so.1:rbd_list
librbd.so.1:rbd_list_children
librbd.so.1:rbd_list_lockers
librbd.so.1:rbd_lock_acquire
librbd.so.1:rbd_lock_break
librbd.so.1:rbd_lock_exclusive
librbd.so.1:rbd_lock_get_owners
librbd.so.1:rbd_lock_get_owners_cleanup
librbd.so.1:rbd_lock_release
librbd.so.1:rbd_lock_shared
librbd.so.1:rbd_metadata_get
librbd.so.1:rbd_metadata_list
librbd.so.1:rbd_metadata_remove
librbd.so.1:rbd_metadata_set
librbd.so.1:rbd_mirror_image_demote
librbd.so.1:rbd_mirror_image_disable
librbd.so.1:rbd_mirror_image_enable
librbd.so.1:rbd_mirror_image_get_info
librbd.so.1:rbd_mirror_image_get_status
librbd.so.1:rbd_mirror_image_promote
librbd.so.1:rbd_mirror_image_resync
librbd.so.1:rbd_mirror_image_status_list
librbd.so.1:rbd_mirror_image_status_list_cleanup
librbd.so.1:rbd_mirror_image_status_summary
librbd.so.1:rbd_mirror_mode_get
librbd.so.1:rbd_mirror_mode_set
librbd.so.1:rbd_mirror_peer_add
librbd.so.1:rbd_mirror_peer_list
librbd.so.1:rbd_mirror_peer_list_cleanup
librbd.so.1:rbd_mirror_peer_remove
librbd.so.1:rbd_mirror_peer_set_client
librbd.so.1:rbd_mirror_peer_set_cluster
librbd.so.1:rbd_open
librbd.so.1:rbd_open_read_only
librbd.so.1:rbd_poll_io_events
librbd.so.1:rbd_read
librbd.so.1:rbd_read2
librbd.so.1:rbd_read_iterate
librbd.so.1:rbd_read_iterate2
librbd.so.1:rbd_rebuild_object_map
librbd.so.1:rbd_remove
librbd.so.1:rbd_remove_with_progress
librbd.so.1:rbd_rename
librbd.so.1:rbd_resize
librbd.so.1:rbd_resize2
librbd.so.1:rbd_resize_with_progress
librbd.so.1:rbd_set_image_notification
librbd.so.1:rbd_snap_create
librbd.so.1:rbd_snap_get_limit
librbd.so.1:rbd_snap_is_protected
librbd.so.1:rbd_snap_list
librbd.so.1:rbd_snap_list_end
librbd.so.1:rbd_snap_protect
librbd.so.1:rbd_snap_remove
librbd.so.1:rbd_snap_remove2
librbd.so.1:rbd_snap_rename
librbd.so.1:rbd_snap_rollback
librbd.so.1:rbd_snap_rollback_with_progress
librbd.so.1:rbd_snap_set
librbd.so.1:rbd_snap_set_limit
librbd.so.1:rbd_snap_unprotect
librbd.so.1:rbd_stat
librbd.so.1:rbd_unlock
librbd.so.1:rbd_update_features
librbd.so.1:rbd_update_unwatch
librbd.so.1:rbd_update_watch
librbd.so.1:rbd_version
librbd.so.1:rbd_write
librbd.so.1:rbd_write2
librgw.so.2:XXH32
librgw.so.2:XXH32_canonicalFromHash
librgw.so.2:XXH32_createState
librgw.so.2:XXH32_digest
librgw.so.2:XXH32_freeState
librgw.so.2:XXH32_hashFromCanonical
librgw.so.2:XXH32_reset
librgw.so.2:XXH32_update
librgw.so.2:XXH64
librgw.so.2:XXH64_canonicalFromHash
librgw.so.2:XXH64_createState
librgw.so.2:XXH64_digest
librgw.so.2:XXH64_freeState
librgw.so.2:XXH64_hashFromCanonical
librgw.so.2:XXH64_reset
librgw.so.2:XXH64_update
librgw.so.2:XXH_versionNumber
librgw.so.2:_Z10dump_errnoP9req_state
librgw.so.2:_Z10dump_errnoP9req_statei
librgw.so.2:_Z10dump_errnoRK7rgw_errRNSt7__cxx1112basic_stringIcSt11char_traitsIcESaIcEEE
librgw.so.2:_Z10dump_errnoiRNSt7__cxx1112basic_stringIcSt11char_traitsIcESaIcEEE
librgw.so.2:_Z10dump_ownerP9req_stateR8rgw_userRNSt7__cxx1112basic_stringIcSt11char_traitsIcESaIcEEEPKc
librgw.so.2:_Z10dump_rangeP9req_statemmm
librgw.so.2:_Z10dump_startP9req_state
librgw.so.2:_Z10encode_xmlPKcRK7utime_tPN4ceph9FormatterE
librgw.so.2:_Z10encode_xmlPKcRKN4ceph6buffer4listEPNS1_9FormatterE
librgw.so.2:_Z10encode_xmlPKcRKNSt7__cxx1112basic_stringIcSt11char_traitsIcESaIcEEEPN4ceph9FormatterE
librgw.so.2:_Z10encode_xmlPKcS0_PN4ceph9FormatterE
librgw.so.2:_Z10encode_xmlPKcbPN4ceph9FormatterE
librgw.so.2:_Z10encode_xmlPKciPN4ceph9FormatterE
librgw.so.2:_Z10encode_xmlPKcjPN4ceph9FormatterE
librgw.so.2:_Z10encode_xmlPKclPN4ceph9FormatterE
librgw.so.2:_Z10encode_xmlPKcmPN4ceph9FormatterE
librgw.so.2:_Z10encode_xmlPKcxPN4ceph9FormatterE
librgw.so.2:_Z10encode_xmlPKcyPN4ceph9FormatterE
librgw.so.2:_Z10end_headerP9req_stateP5RGWOpPKclbb
librgw.so.2:_Z10env_to_vecRSt6vectorIPKcSaIS1_EES1_
librgw.so.2:_Z10get_randommm
librgw.so.2:_Z10parse_timePKcPNSt6chrono10time_pointIN4ceph11time_detail10real_clockENS1_8durationImSt5ratioILl1ELl1000000000EEEEEE
librgw.so.2:_Z10rgw_log_opP8RGWRadosP7RGWRESTP9req_stateRKNSt7__cxx1112basic_stringIcSt11char_traitsIcESaIcEEEP12OpsLogSocket
librgw.so.2:_Z10url_decodeRKNSt7__cxx1112basic_stringIcSt11char_traitsIcESaIcEEERS4_b
librgw.so.2:_Z10url_encodeRKNSt7__cxx1112basic_stringIcSt11char_traitsIcESaIcEEE
librgw.so.2:_Z10url_encodeRKNSt7__cxx1112basic_stringIcSt11char_traitsIcESaIcEEERS4_
librgw.so.2:_Z11abort_earlyP9req_stateP5RGWOpiP10RGWHandler
librgw.so.2:_Z11argv_to_veciPPKcRSt6vectorIS0_SaIS0_EE
librgw.so.2:_Z11ceph_gettidv
librgw.so.2:_Z11cls_log_addRN8librados20ObjectWriteOperationER13cls_log_entry
librgw.so.2:_Z11cls_log_addRN8librados20ObjectWriteOperationERK7utime_tRKNSt7__cxx1112basic_stringIcSt11char_traitsIcESaIcEEESC_RN4ceph6buffer4listE
librgw.so.2:_Z11cls_log_addRN8librados20ObjectWriteOperationERNSt7__cxx114listI13cls_log_entrySaIS4_EEEb
librgw.so.2:_Z11cmdmap_dumpRKSt3mapINSt7__cxx1112basic_stringIcSt11char_traitsIcESaIcEEEN5boost7variantIS5_JbldSt6vectorIS5_SaIS5_EES8_IlSaIlEEEEESt4lessIS5_ESaISt4pairIKS5_SD_EEEPN4ceph9FormatterE
librgw.so.2:_Z11dump_bucketP9req_stateR12RGWBucketEnt
librgw.so.2:_Z11dump_headerP9req_stateRKN5boost16basic_string_refIcSt11char_traitsIcEEERK7utime_t
librgw.so.2:_Z11dump_headerP9req_stateRKN5boost16basic_string_refIcSt11char_traitsIcEEERN4ceph6buffer4listE
librgw.so.2:_Z11dump_headerP9req_stateRKN5boost16basic_string_refIcSt11char_traitsIcEEES7_
librgw.so.2:_Z11dump_headerP9req_stateRKN5boost16basic_string_refIcSt11char_traitsIcEEEx
librgw.so.2:_Z11encode_jsonPKcRK11RGWUserCapsPN4ceph9FormatterE
librgw.so.2:_Z11encode_jsonPKcRK11obj_versionPN4ceph9FormatterE
librgw.so.2:_Z11encode_jsonPKcRK7utime_tPN4ceph9FormatterE
librgw.so.2:_Z11encode_jsonPKcRK8rgw_userPN4ceph9FormatterE
librgw.so.2:_Z11encode_jsonPKcRKN4ceph6buffer4listEPNS1_9FormatterE
librgw.so.2:_Z11encode_jsonPKcRKNSt7__cxx1112basic_stringIcSt11char_traitsIcESaIcEEEPN4ceph9FormatterE
librgw.so.2:_Z11encode_jsonPKcS0_PN4ceph9FormatterE
librgw.so.2:_Z11encode_jsonPKcbPN4ceph9FormatterE
librgw.so.2:_Z11encode_jsonPKciPN4ceph9FormatterE
librgw.so.2:_Z11encode_jsonPKcjPN4ceph9FormatterE
librgw.so.2:_Z11encode_jsonPKclPN4ceph9FormatterE
librgw.so.2:_Z11encode_jsonPKcmPN4ceph9FormatterE
librgw.so.2:_Z11encode_jsonPKcxPN4ceph9FormatterE
librgw.so.2:_Z11encode_jsonPKcyPN4ceph9FormatterE
librgw.so.2:_Z11get_str_setRKNSt7__cxx1112basic_stringIcSt11char_traitsIcESaIcEEEPKcRSt3setIS4_St4lessIS4_ESaIS4_EE
librgw.so.2:_Z11get_str_setRKNSt7__cxx1112basic_stringIcSt11char_traitsIcESaIcEEERSt3setIS4_St4lessIS4_ESaIS4_EE
librgw.so.2:_Z11get_str_vecRKNSt7__cxx1112basic_stringIcSt11char_traitsIcESaIcEEEPKcRSt6vectorIS4_SaIS4_EE
librgw.so.2:_Z11get_str_vecRKNSt7__cxx1112basic_stringIcSt11char_traitsIcESaIcEEERSt6vectorIS4_SaIS4_EE
librgw.so.2:_Z11global_initPSt6vectorIPKcSaIS1_EERS3_j18code_environment_tiS1_b
librgw.so.2:_Z11vec_to_argvPKcRSt6vectorIS0_SaIS0_EEPiPPS0_
librgw.so.2:_Z12cls_log_infoRN8librados19ObjectReadOperationEP14cls_log_header
librgw.so.2:_Z12cls_log_listRN8librados19ObjectReadOperationER7utime_tS3_RKNSt7__cxx1112basic_stringIcSt11char_traitsIcESaIcEEEiRNS4_4listI13cls_log_entrySaISD_EEEPS9_Pb
librgw.so.2:_Z12cls_log_trimRN8librados20ObjectWriteOperationERK7utime_tS4_RKNSt7__cxx1112basic_stringIcSt11char_traitsIcESaIcEEESC_
librgw.so.2:_Z12cls_log_trimRN8librados5IoCtxERKNSt7__cxx1112basic_stringIcSt11char_traitsIcESaIcEEERK7utime_tSC_S9_S9_
librgw.so.2:_Z12cpp_strerrorB5cxx11i
librgw.so.2:_Z12get_str_listRKNSt7__cxx1112basic_stringIcSt11char_traitsIcESaIcEEEPKcRNS_4listIS4_SaIS4_EEE
librgw.so.2:_Z12get_str_listRKNSt7__cxx1112basic_stringIcSt11char_traitsIcESaIcEEERNS_4listIS4_SaIS4_EEE
librgw.so.2:_Z13block_signalsPKiP10__sigset_t
librgw.so.2:_Z13ceph_str_hashiPKcj
librgw.so.2:_Z13dump_continueP9req_state
librgw.so.2:_Z13dump_redirectP9req_stateRKNSt7__cxx1112basic_stringIcSt11char_traitsIcESaIcEEE
librgw.so.2:_Z13dump_trans_idP9req_state
librgw.so.2:_Z13parse_iso8601PKcP2tmPjb
librgw.so.2:_Z13parse_rfc2616PKcP2tm
librgw.so.2:_Z13pidfile_writePK11md_config_t
librgw.so.2:_Z13rgw_perf_stopP11CephContext
librgw.so.2:_Z13rgw_rest_initP11CephContextP8RGWRadosR12RGWZoneGroup
librgw.so.2:_Z13rgw_user_initP8RGWRados
librgw.so.2:_Z13strict_strtodPKcPNSt7__cxx1112basic_stringIcSt11char_traitsIcESaIcEEE
librgw.so.2:_Z13strict_strtofPKcPNSt7__cxx1112basic_stringIcSt11char_traitsIcESaIcEEE
librgw.so.2:_Z13strict_strtolPKciPNSt7__cxx1112basic_stringIcSt11char_traitsIcESaIcEEE
librgw.so.2:_Z13string_to_vecRSt6vectorINSt7__cxx1112basic_stringIcSt11char_traitsIcESaIcEEESaIS5_EES5_
librgw.so.2:_Z14calc_hmac_sha1PKciS0_iPc
librgw.so.2:_Z14ceph_clock_nowP11CephContext
librgw.so.2:_Z14cls_rgw_bi_getRN8librados5IoCtxENSt7__cxx1112basic_stringIcSt11char_traitsIcESaIcEEE11BIIndexTypeR15cls_rgw_obj_keyP16rgw_cls_bi_entry
librgw.so.2:_Z14cls_rgw_bi_putRN8librados20ObjectWriteOperationENSt7__cxx1112basic_stringIcSt11char_traitsIcESaIcEEER16rgw_cls_bi_entry
librgw.so.2:_Z14cls_rgw_bi_putRN8librados5IoCtxENSt7__cxx1112basic_stringIcSt11char_traitsIcESaIcEEER16rgw_cls_bi_entry
librgw.so.2:_Z14common_preinitRK18CephInitParameters18code_environment_tiPKc
librgw.so.2:_Z14decode_xml_objR7utime_tP6XMLObj
librgw.so.2:_Z14decode_xml_objRN4ceph6buffer4listEP6XMLObj
librgw.so.2:_Z14decode_xml_objRNSt7__cxx114listI16RGWBWRoutingRuleSaIS1_EEEP6XMLObj
librgw.so.2:_Z14decode_xml_objRbP6XMLObj
librgw.so.2:_Z14decode_xml_objRiP6XMLObj
librgw.so.2:_Z14decode_xml_objRjP6XMLObj
librgw.so.2:_Z14decode_xml_objRlP6XMLObj
librgw.so.2:_Z14decode_xml_objRmP6XMLObj
librgw.so.2:_Z14decode_xml_objRxP6XMLObj
librgw.so.2:_Z14decode_xml_objRyP6XMLObj
librgw.so.2:_Z14dout_emergencyPKc
librgw.so.2:_Z14dout_emergencyRKNSt7__cxx1112basic_stringIcSt11char_traitsIcESaIcEEE
librgw.so.2:_Z14handle_bad_getP11CephContextNSt7__cxx1112basic_stringIcSt11char_traitsIcESaIcEEEPKc
librgw.so.2:_Z14lockdep_lockedPKcib
librgw.so.2:_Z14parse_mime_mapPKc
librgw.so.2:_Z14pidfile_removev
librgw.so.2:_Z14restore_sigsetPK10__sigset_t
librgw.so.2:_Z14rgw_perf_startP11CephContext
librgw.so.2:_Z14rgw_to_iso8601RKNSt6chrono10time_pointIN4ceph11time_detail10real_clockENS_8durationImSt5ratioILl1ELl1000000000EEEEEEPNSt7__cxx1112basic_stringIcSt11char_traitsIcESaIcEEE
librgw.so.2:_Z14rgw_to_iso8601RKNSt6chrono10time_pointIN4ceph11time_detail10real_clockENS_8durationImSt5ratioILl1ELl1000000000EEEEEEPci
librgw.so.2:_Z14rgw_tools_initP11CephContext
librgw.so.2:_Z14sighup_handleri
librgw.so.2:_Z14split_dashdashRKSt6vectorIPKcSaIS1_EERS3_S6_
librgw.so.2:_Z14strict_strtollPKciPNSt7__cxx1112basic_stringIcSt11char_traitsIcESaIcEEE
librgw.so.2:_Z15ceph_decode_cmsP11CephContextRN4ceph6buffer4listES4_
librgw.so.2:_Z15ceph_ioprio_setiii
librgw.so.2:_Z15cls_rgw_bi_listRN8librados5IoCtxENSt7__cxx1112basic_stringIcSt11char_traitsIcESaIcEEERKS7_S9_jPNS2_4listI16rgw_cls_bi_entrySaISB_EEEPb
librgw.so.2:_Z15cls_rgw_gc_listRN8librados5IoCtxERNSt7__cxx1112basic_stringIcSt11char_traitsIcESaIcEEES8_jbRNS2_4listI19cls_rgw_gc_obj_infoSaISA_EEEPb
librgw.so.2:_Z15cls_rgw_lc_listRN8librados5IoCtxERNSt7__cxx1112basic_stringIcSt11char_traitsIcESaIcEEERKS7_jRSt3mapIS7_iSt4lessIS7_ESaISt4pairIS9_iEEE
librgw.so.2:_Z15cls_version_incRN8librados20ObjectWriteOperationE
librgw.so.2:_Z15cls_version_incRN8librados20ObjectWriteOperationER11obj_version11VersionCond
librgw.so.2:_Z15cls_version_setRN8librados20ObjectWriteOperationER11obj_version
librgw.so.2:_Z15decode_json_objR11obj_versionP7JSONObj
librgw.so.2:_Z15decode_json_objR14RGWMDLogStatusP7JSONObj
librgw.so.2:_Z15decode_json_objR7utime_tP7JSONObj
librgw.so.2:_Z15decode_json_objR8rgw_userP7JSONObj
librgw.so.2:_Z15decode_json_objRN4ceph6buffer4listEP7JSONObj
librgw.so.2:_Z15decode_json_objRbP7JSONObj
librgw.so.2:_Z15decode_json_objRiP7JSONObj
librgw.so.2:_Z15decode_json_objRjP7JSONObj
librgw.so.2:_Z15decode_json_objRlP7JSONObj
librgw.so.2:_Z15decode_json_objRmP7JSONObj
librgw.so.2:_Z15decode_json_objRxP7JSONObj
librgw.so.2:_Z15decode_json_objRyP7JSONObj
librgw.so.2:_Z15gen_rand_base64P11CephContextPci
librgw.so.2:_Z15get_name_by_pidB5cxx11i
librgw.so.2:_Z15global_pre_initPSt6vectorIPKcSaIS1_EERS3_j18code_environment_tiS1_
librgw.so.2:_Z15parse_key_valueRNSt7__cxx1112basic_stringIcSt11char_traitsIcESaIcEEEPKcS5_S5_
librgw.so.2:_Z15parse_key_valueRNSt7__cxx1112basic_stringIcSt11char_traitsIcESaIcEEES5_S5_
librgw.so.2:_Z15process_requestP8RGWRadosP7RGWRESTP10RGWRequestRKNSt7__cxx1112basic_stringIcSt11char_traitsIcESaIcEEEP12RGWRestfulIOP12OpsLogSocket
librgw.so.2:_Z15rgw_bucket_initP18RGWMetadataManager
librgw.so.2:_Z15rgw_delete_userP8RGWRadosR11RGWUserInfoR20RGWObjVersionTracker
librgw.so.2:_Z15rgw_link_bucketP8RGWRadosRK8rgw_userR10rgw_bucketNSt6chrono10time_pointIN4ceph11time_detail10real_clockENS6_8durationImSt5ratioILl1ELl1000000000EEEEEEb
librgw.so.2:_Z15rgw_perm_to_strjPci
librgw.so.2:_Z15rgw_str_to_permPKc
librgw.so.2:_Z15rgw_trim_quotesRKNSt7__cxx1112basic_stringIcSt11char_traitsIcESaIcEEE
librgw.so.2:_Z16calc_hash_sha256PKciRNSt7__cxx1112basic_stringIcSt11char_traitsIcESaIcEEE
librgw.so.2:_Z16calc_hmac_sha256PKciS0_iPc
librgw.so.2:_Z16ceph_cap_op_namei
librgw.so.2:_Z16ceph_mds_op_namei
librgw.so.2:_Z16ceph_osd_op_namei
librgw.so.2:_Z16cls_refcount_getRN8librados20ObjectWriteOperationERKNSt7__cxx1112basic_stringIcSt11char_traitsIcESaIcEEEb
librgw.so.2:_Z16cls_refcount_putRN8librados20ObjectWriteOperationERKNSt7__cxx1112basic_stringIcSt11char_traitsIcESaIcEEEb
librgw.so.2:_Z16cls_refcount_setRN8librados20ObjectWriteOperationERNSt7__cxx114listINS2_12basic_stringIcSt11char_traitsIcESaIcEEESaIS8_EEE
librgw.so.2:_Z16cls_statelog_addRN8librados20ObjectWriteOperationER18cls_statelog_entry
librgw.so.2:_Z16cls_statelog_addRN8librados20ObjectWriteOperationERKNSt7__cxx1112basic_stringIcSt11char_traitsIcESaIcEEES9_S9_RK7utime_tjRN4ceph6buffer4listE
librgw.so.2:_Z16cls_statelog_addRN8librados20ObjectWriteOperationERNSt7__cxx114listI18cls_statelog_entrySaIS4_EEE
librgw.so.2:_Z16cls_version_readRN8librados19ObjectReadOperationEP11obj_version
librgw.so.2:_Z16cls_version_readRN8librados5IoCtxERNSt7__cxx1112basic_stringIcSt11char_traitsIcESaIcEEEP11obj_version
librgw.so.2:_Z16cmdmap_from_jsonSt6vectorINSt7__cxx1112basic_stringIcSt11char_traitsIcESaIcEEESaIS5_EEPSt3mapIS5_N5boost7variantIS5_JbldS7_S_IlSaIlEEEEESt4lessIS5_ESaISt4pairIKS5_SD_EEERNS0_18basic_stringstreamIcS3_S4_EE
librgw.so.2:_Z16dump_cmd_to_jsonPN4ceph9FormatterERKNSt7__cxx1112basic_stringIcSt11char_traitsIcESaIcEEE
librgw.so.2:_Z16dump_time_headerP9req_statePKcNSt6chrono10time_pointIN4ceph11time_detail10real_clockENS3_8durationImSt5ratioILl1ELl1000000000EEEEEE
librgw.so.2:_Z16dump_time_to_strB5cxx11RKNSt6chrono10time_pointIN4ceph11time_detail10real_clockENS_8durationImSt5ratioILl1ELl1000000000EEEEEE
librgw.so.2:_Z16get_random_bytesPci
librgw.so.2:_Z16lockdep_registerPKc
librgw.so.2:_Z16rgw_get_errno_s3P15rgw_http_errorsi
librgw.so.2:_Z16rgw_get_token_idRKNSt7__cxx1112basic_stringIcSt11char_traitsIcESaIcEEERS4_
librgw.so.2:_Z16rgw_is_pki_tokenRKNSt7__cxx1112basic_stringIcSt11char_traitsIcESaIcEEE
librgw.so.2:_Z16strict_sistrtollPKcPNSt7__cxx1112basic_stringIcSt11char_traitsIcESaIcEEE
librgw.so.2:_Z17ceph_pool_op_namei
librgw.so.2:_Z17ceph_snap_op_namei
librgw.so.2:_Z17cls_refcount_readRN8librados5IoCtxERNSt7__cxx1112basic_stringIcSt11char_traitsIcESaIcEEEPNS2_4listIS7_SaIS7_EEEb
librgw.so.2:_Z17cls_rgw_clear_olhRN8librados5IoCtxERNSt7__cxx1112basic_stringIcSt11char_traitsIcESaIcEEERK15cls_rgw_obj_keyRKS7_
librgw.so.2:_Z17cls_rgw_gc_removeRN8librados20ObjectWriteOperationERKNSt7__cxx114listINS2_12basic_stringIcSt11char_traitsIcESaIcEEESaIS8_EEE
librgw.so.2:_Z17cls_statelog_listRN8librados19ObjectReadOperationERKNSt7__cxx1112basic_stringIcSt11char_traitsIcESaIcEEES9_S9_S9_iRNS2_4listI18cls_statelog_entrySaISB_EEEPS7_Pb
librgw.so.2:_Z17cls_timeindex_addRN8librados20ObjectWriteOperationER19cls_timeindex_entry
librgw.so.2:_Z17cls_timeindex_addRN8librados20ObjectWriteOperationERK7utime_tRKNSt7__cxx1112basic_stringIcSt11char_traitsIcESaIcEEERKN4ceph6buffer4listE
librgw.so.2:_Z17cls_timeindex_addRN8librados20ObjectWriteOperationERNSt7__cxx114listI19cls_timeindex_entrySaIS4_EEE
librgw.so.2:_Z17cls_version_checkRN8librados15ObjectOperationER11obj_version11VersionCond
librgw.so.2:_Z17dump_epoch_headerP9req_statePKcNSt6chrono10time_pointIN4ceph11time_detail10real_clockENS3_8durationImSt5ratioILl1ELl1000000000EEEEEE
librgw.so.2:_Z17encode_json_plainPKcRK12RGWAccessKeyPN4ceph9FormatterE
librgw.so.2:_Z17global_init_chdirPK11CephContext
librgw.so.2:_Z17lockdep_will_lockPKcib
librgw.so.2:_Z17parse_ip_port_vecPKcRSt6vectorI13entity_addr_tSaIS2_EE
librgw.so.2:_Z17rgw_get_anon_userR11RGWUserInfo
librgw.so.2:_Z17rgw_init_resolverv
librgw.so.2:_Z17rgw_remove_bucketP8RGWRadosR10rgw_bucketb
librgw.so.2:_Z17rgw_remove_objectP8RGWRadosR13RGWBucketInfoR10rgw_bucketR11rgw_obj_key
librgw.so.2:_Z17rgw_tools_cleanupv
librgw.so.2:_Z17rgw_unlink_bucketP8RGWRadosRK8rgw_userRKNSt7__cxx1112basic_stringIcSt11char_traitsIcESaIcEEESB_b
librgw.so.2:_Z17set_req_state_errP9req_statei
librgw.so.2:_Z17set_req_state_errR7rgw_errii
librgw.so.2:_Z18ceph_argparse_flagRSt6vectorIPKcSaIS1_EERN9__gnu_cxx17__normal_iteratorIPS1_S3_EEz
librgw.so.2:_Z18ceph_clock_gettimeP11CephContext
librgw.so.2:_Z18ceph_lease_op_namei
librgw.so.2:_Z18ceph_str_hash_namei
librgw.so.2:_Z18cls_rgw_remove_objRN8librados20ObjectWriteOperationERNSt7__cxx114listINS2_12basic_stringIcSt11char_traitsIcESaIcEEESaIS8_EEE
librgw.so.2:_Z18cls_timeindex_listRN8librados19ObjectReadOperationERK7utime_tS4_RKNSt7__cxx1112basic_stringIcSt11char_traitsIcESaIcEEEiRNS5_4listI19cls_timeindex_entrySaISE_EEEPSA_Pb
librgw.so.2:_Z18cls_timeindex_trimRN8librados20ObjectWriteOperationERK7utime_tS4_RKNSt7__cxx1112basic_stringIcSt11char_traitsIcESaIcEEESC_
librgw.so.2:_Z18cls_timeindex_trimRN8librados5IoCtxERKNSt7__cxx1112basic_stringIcSt11char_traitsIcESaIcEEERK7utime_tSC_S9_S9_
librgw.so.2:_Z18cmddesc_get_prefixRKNSt7__cxx1112basic_stringIcSt11char_traitsIcESaIcEEE
librgw.so.2:_Z18common_init_finishP11CephContext
librgw.so.2:_Z18dump_last_modifiedP9req_stateNSt6chrono10time_pointIN4ceph11time_detail10real_clockENS1_8durationImSt5ratioILl1ELl1000000000EEEEEE
librgw.so.2:_Z18fix_zone_pool_nameSt3setINSt7__cxx1112basic_stringIcSt11char_traitsIcESaIcEEESt4lessIS5_ESaIS5_EERKS5_SB_SB_
librgw.so.2:_Z18git_version_to_strv
librgw.so.2:_Z18install_sighandleriPFviEi
librgw.so.2:_Z18lockdep_dump_locksv
librgw.so.2:_Z18lockdep_unregisteri
librgw.so.2:_Z18queue_async_signali
librgw.so.2:_Z18rgw_decode_b64_cmsP11CephContextRKNSt7__cxx1112basic_stringIcSt11char_traitsIcESaIcEEERN4ceph6buffer4listE
librgw.so.2:_Z18rgw_get_system_objP8RGWRadosR12RGWObjectCtxR10rgw_bucketRKNSt7__cxx1112basic_stringIcSt11char_traitsIcESaIcEEERN4ceph6buffer4listEP20RGWObjVersionTrackerPNSt6chrono10time_pointINSD_11time_detail10real_clockENSJ_8durationImSt5ratioILl1ELl1000000000EEEEEEPSt3mapISA_SF_St4lessISA_ESaISt4pairISB_SF_EEEP20rgw_cache_entry_info
librgw.so.2:_Z18rgw_log_usage_initP11CephContextP8RGWRados
librgw.so.2:_Z18rgw_put_system_objP8RGWRadosR10rgw_bucketRKNSt7__cxx1112basic_stringIcSt11char_traitsIcESaIcEEEPKcmbP20RGWObjVersionTrackerNSt6chrono10time_pointIN4ceph11time_detail10real_clockENSF_8durationImSt5ratioILl1ELl1000000000EEEEEEPSt3mapIS8_NSH_6buffer4listESt4lessIS8_ESaISt4pairIS9_SR_EEE
librgw.so.2:_Z18rgw_string_unquoteRKNSt7__cxx1112basic_stringIcSt11char_traitsIcESaIcEEE
librgw.so.2:_Z18signal_mask_to_strB5cxx11v
librgw.so.2:_Z19ceph_arg_value_typePKcPbS1_
librgw.so.2:_Z19ceph_mds_state_namei
librgw.so.2:_Z19ceph_osd_state_namei
librgw.so.2:_Z19ceph_str_hash_linuxPKcj
librgw.so.2:_Z19ceph_str_hash_validi
librgw.so.2:_Z19ceph_version_to_strv
librgw.so.2:_Z19clog_type_to_stringB5cxx119clog_type
librgw.so.2:_Z19cls_rgw_bucket_initRN8librados20ObjectWriteOperationE
librgw.so.2:_Z19cls_rgw_get_olh_logRN8librados5IoCtxERNSt7__cxx1112basic_stringIcSt11char_traitsIcESaIcEEERNS_19ObjectReadOperationERK15cls_rgw_obj_keymRKS7_PSt3mapImSt6vectorI24rgw_bucket_olh_log_entrySaISI_EESt4lessImESaISt4pairIKmSK_EEEPb
librgw.so.2:_Z19cls_rgw_lc_get_headRN8librados5IoCtxERNSt7__cxx1112basic_stringIcSt11char_traitsIcESaIcEEER19cls_rgw_lc_obj_head
librgw.so.2:_Z19cls_rgw_lc_put_headRN8librados5IoCtxERNSt7__cxx1112basic_stringIcSt11char_traitsIcESaIcEEER19cls_rgw_lc_obj_head
librgw.so.2:_Z19cls_rgw_lc_rm_entryRN8librados5IoCtxERNSt7__cxx1112basic_stringIcSt11char_traitsIcESaIcEEERSt4pairIS7_iE
librgw.so.2:_Z19cls_user_get_headerRN8librados19ObjectReadOperationEP15cls_user_headerPi
librgw.so.2:_Z19dump_access_controlP9req_stateP5RGWOp
librgw.so.2:_Z19dump_access_controlP9req_statePKcS2_S2_S2_j
librgw.so.2:_Z19dump_content_lengthP9req_statem
librgw.so.2:_Z19dump_uri_from_stateP9req_state
librgw.so.2:_Z19global_init_preforkP11CephContext
librgw.so.2:_Z19global_print_bannerv
librgw.so.2:_Z19lockdep_get_free_idv
librgw.so.2:_Z19lockdep_will_unlockPKci
librgw.so.2:_Z19lowercase_http_attrRKNSt7__cxx1112basic_stringIcSt11char_traitsIcESaIcEEE
librgw.so.2:_Z19parse_mime_map_linePKcS0_
librgw.so.2:_Z19rgw_flush_formatterP9req_statePN4ceph9FormatterE
librgw.so.2:_Z19rgw_get_buckets_objRK8rgw_userRNSt7__cxx1112basic_stringIcSt11char_traitsIcESaIcEEE
librgw.so.2:_Z19rgw_store_user_infoP8RGWRadosR11RGWUserInfoPS1_P20RGWObjVersionTrackerNSt6chrono10time_pointIN4ceph11time_detail10real_clockENS6_8durationImSt5ratioILl1ELl1000000000EEEEEEbPSt3mapINSt7__cxx1112basic_stringIcSt11char_traitsIcESaIcEEENS8_6buffer4listESt4lessISM_ESaISt4pairIKSM_SO_EEE
librgw.so.2:_Z19rgw_trim_whitespaceRKNSt7__cxx1112basic_stringIcSt11char_traitsIcESaIcEEE
librgw.so.2:_Z19rgw_uri_escape_charcRNSt7__cxx1112basic_stringIcSt11char_traitsIcESaIcEEE
librgw.so.2:_Z19string_to_clog_typeRKNSt7__cxx1112basic_stringIcSt11char_traitsIcESaIcEEE
librgw.so.2:_Z19unblock_all_signalsP10__sigset_t
librgw.so.2:_Z20ceph_session_op_namei
librgw.so.2:_Z20cls_rgw_gc_set_entryRN8librados20ObjectWriteOperationEjR19cls_rgw_gc_obj_info
librgw.so.2:_Z20cls_rgw_lc_set_entryRN8librados5IoCtxERNSt7__cxx1112basic_stringIcSt11char_traitsIcESaIcEEERSt4pairIS7_iE
librgw.so.2:_Z20cls_rgw_trim_olh_logRN8librados20ObjectWriteOperationERK15cls_rgw_obj_keymRKNSt7__cxx1112basic_stringIcSt11char_traitsIcESaIcEEE
librgw.so.2:_Z20cls_user_bucket_listRN8librados19ObjectReadOperationERKNSt7__cxx1112basic_stringIcSt11char_traitsIcESaIcEEES9_iRNS2_4listI21cls_user_bucket_entrySaISB_EEEPS7_PbPi
librgw.so.2:_Z20cls_user_set_bucketsRN8librados20ObjectWriteOperationERNSt7__cxx114listI21cls_user_bucket_entrySaIS4_EEEb
librgw.so.2:_Z20dump_cmddesc_to_jsonPN4ceph9FormatterERKNSt7__cxx1112basic_stringIcSt11char_traitsIcESaIcEEES9_S9_S9_S9_S9_m
librgw.so.2:_Z20generic_client_usagev
librgw.so.2:_Z20generic_server_usagev
librgw.so.2:_Z20get_process_name_cppB5cxx11v
librgw.so.2:_Z20get_rand_socket_pathv
librgw.so.2:_Z20list_all_buckets_endP9req_state
librgw.so.2:_Z20rgw_bucket_set_attrsP8RGWRadosR13RGWBucketInfoRSt3mapINSt7__cxx1112basic_stringIcSt11char_traitsIcESaIcEEEN4ceph6buffer4listESt4lessIS9_ESaISt4pairIKS9_SC_EEEP20RGWObjVersionTracker
librgw.so.2:_Z20rgw_decode_pki_tokenP11CephContextRKNSt7__cxx1112basic_stringIcSt11char_traitsIcESaIcEEERN4ceph6buffer4listE
librgw.so.2:_Z20rgw_find_mime_by_extRNSt7__cxx1112basic_stringIcSt11char_traitsIcESaIcEEE
librgw.so.2:_Z20rgw_parse_url_bucketRKNSt7__cxx1112basic_stringIcSt11char_traitsIcESaIcEEES6_RS4_S7_
librgw.so.2:_Z20rgw_remove_key_indexP8RGWRadosR12RGWAccessKey
librgw.so.2:_Z20rgw_remove_uid_indexP8RGWRadosR8rgw_user
librgw.so.2:_Z20set_str_from_headersRSt3mapINSt7__cxx1112basic_stringIcSt11char_traitsIcESaIcEEES5_St4lessIS5_ESaISt4pairIKS5_S5_EEERS9_RS5_
librgw.so.2:_Z21ceph_argparse_withargRSt6vectorIPKcSaIS1_EERN9__gnu_cxx17__normal_iteratorIPS1_S3_EEPNSt7__cxx1112basic_stringIcSt11char_traitsIcESaIcEEERSoz
librgw.so.2:_Z21ceph_argparse_withargRSt6vectorIPKcSaIS1_EERN9__gnu_cxx17__normal_iteratorIPS1_S3_EEPNSt7__cxx1112basic_stringIcSt11char_traitsIcESaIcEEEz
librgw.so.2:_Z21ceph_entity_type_namei
librgw.so.2:_Z21ceph_watch_event_namei
librgw.so.2:_Z21cls_rgw_usage_log_addRN8librados20ObjectWriteOperationER18rgw_usage_log_info
librgw.so.2:_Z21cmd_vartype_stringifyRKN5boost7variantINSt7__cxx1112basic_stringIcSt11char_traitsIcESaIcEEEJbldSt6vectorIS6_SaIS6_EES7_IlSaIlEEEEE
librgw.so.2:_Z21gen_rand_alphanumericP11CephContextPci
librgw.so.2:_Z21global_init_daemonizeP11CephContext
librgw.so.2:_Z21intrusive_ptr_add_refP11CephContext
librgw.so.2:_Z21intrusive_ptr_add_refP16RefCountedObject
librgw.so.2:_Z21intrusive_ptr_releaseP11CephContext
librgw.so.2:_Z21intrusive_ptr_releaseP16RefCountedObject
librgw.so.2:_Z21parse_rgw_ldap_bindpwB5cxx11P11CephContext
librgw.so.2:_Z21pretty_version_to_strB5cxx11v
librgw.so.2:_Z21rgw_bucket_store_infoP8RGWRadosRKNSt7__cxx1112basic_stringIcSt11char_traitsIcESaIcEEERN4ceph6buffer4listEbPSt3mapIS6_SB_St4lessIS6_ESaISt4pairIS7_SB_EEEP20RGWObjVersionTrackerNSt6chrono10time_pointINS9_11time_detail10real_clockENSN_8durationImSt5ratioILl1ELl1000000000EEEEEE
librgw.so.2:_Z21rgw_open_cms_envelopeP11CephContextRKNSt7__cxx1112basic_stringIcSt11char_traitsIcESaIcEEERS6_
librgw.so.2:_Z21rgw_read_user_bucketsP8RGWRadosRK8rgw_userR14RGWUserBucketsRKNSt7__cxx1112basic_stringIcSt11char_traitsIcESaIcEEESD_mbPbm
librgw.so.2:_Z21rgw_shutdown_resolverv
librgw.so.2:_Z22ceph_osd_watch_op_namei
librgw.so.2:_Z22ceph_str_hash_rjenkinsPKcj
librgw.so.2:_Z22cls_rgw_gc_defer_entryRN8librados20ObjectWriteOperationEjRKNSt7__cxx1112basic_stringIcSt11char_traitsIcESaIcEEE
librgw.so.2:_Z22cls_rgw_usage_log_readRN8librados5IoCtxERNSt7__cxx1112basic_stringIcSt11char_traitsIcESaIcEEES8_mmjS8_RSt3mapI15rgw_user_bucket19rgw_usage_log_entrySt4lessISA_ESaISt4pairIKSA_SB_EEEPb
librgw.so.2:_Z22cls_rgw_usage_log_trimRN8librados20ObjectWriteOperationERNSt7__cxx1112basic_stringIcSt11char_traitsIcESaIcEEEmm
librgw.so.2:_Z22cls_user_remove_bucketRN8librados20ObjectWriteOperationERK15cls_user_bucket
librgw.so.2:_Z22dump_bucket_from_stateP9req_state
librgw.so.2:_Z22list_all_buckets_startP9req_state
librgw.so.2:_Z22render_log_object_nameRKNSt7__cxx1112basic_stringIcSt11char_traitsIcESaIcEEEP2tmRS4_S6_
librgw.so.2:_Z22rgw_log_usage_finalizev
librgw.so.2:_Z22rgw_parse_op_type_listRKNSt7__cxx1112basic_stringIcSt11char_traitsIcESaIcEEEPj
librgw.so.2:_Z22rgw_remove_email_indexP8RGWRadosRNSt7__cxx1112basic_stringIcSt11char_traitsIcESaIcEEE
librgw.so.2:_Z22string_to_syslog_levelNSt7__cxx1112basic_stringIcSt11char_traitsIcESaIcEEE
librgw.so.2:_Z22verify_user_permissionP9req_stateP22RGWAccessControlPolicyi
librgw.so.2:_Z22verify_user_permissionP9req_statei
librgw.so.2:_Z23cls_rgw_bucket_link_olhRN8librados5IoCtxERKNSt7__cxx1112basic_stringIcSt11char_traitsIcESaIcEEERK15cls_rgw_obj_keyRN4ceph6buffer4listEbS9_P25rgw_bucket_dir_entry_metamNSt6chrono10time_pointINSD_11time_detail10real_clockENSJ_8durationImSt5ratioILl1ELl1000000000EEEEEEbb
librgw.so.2:_Z23cls_rgw_obj_check_mtimeRN8librados15ObjectOperationERKNSt6chrono10time_pointIN4ceph11time_detail10real_clockENS2_8durationImSt5ratioILl1ELl1000000000EEEEEEb17RGWCheckMTimeType
librgw.so.2:_Z23cls_rgw_suggest_changesRN8librados20ObjectWriteOperationERN4ceph6buffer4listE
librgw.so.2:_Z23create_data_log_trim_crP8RGWRadosP14RGWHTTPManageri7utime_t
librgw.so.2:_Z23rgw_policy_from_attrsetP11CephContextRSt3mapINSt7__cxx1112basic_stringIcSt11char_traitsIcESaIcEEEN4ceph6buffer4listESt4lessIS7_ESaISt4pairIKS7_SA_EEEP22RGWAccessControlPolicy
librgw.so.2:_Z23rgw_rest_read_all_inputP9req_statePPcPii
librgw.so.2:_Z23rgw_user_sync_all_statsP8RGWRadosRK8rgw_user
librgw.so.2:_Z23str_to_ceph_entity_typePKc
librgw.so.2:_Z24camelcase_dash_http_attrRKNSt7__cxx1112basic_stringIcSt11char_traitsIcESaIcEEE
librgw.so.2:_Z24ceph_argparse_early_argsRSt6vectorIPKcSaIS1_EEjiPNSt7__cxx1112basic_stringIcSt11char_traitsIcESaIcEEESB_
librgw.so.2:_Z24ceph_resolve_file_searchRKNSt7__cxx1112basic_stringIcSt11char_traitsIcESaIcEEERS4_
librgw.so.2:_Z24cls_rgw_obj_store_pg_verRN8librados20ObjectWriteOperationERKNSt7__cxx1112basic_stringIcSt11char_traitsIcESaIcEEE
librgw.so.2:_Z24cls_statelog_check_stateRN8librados15ObjectOperationERKNSt7__cxx1112basic_stringIcSt11char_traitsIcESaIcEEES9_S9_j
librgw.so.2:_Z24get_zones_pool_names_setP11CephContextP8RGWRadosRKNSt7__cxx114listINS3_12basic_stringIcSt11char_traitsIcESaIcEEESaIS9_EEERKS9_RSt3setIS9_St4lessIS9_ESA_E
librgw.so.2:_Z24lowercase_dash_http_attrRKNSt7__cxx1112basic_stringIcSt11char_traitsIcESaIcEEE
librgw.so.2:_Z24rgw_format_ops_log_entryR13rgw_log_entryPN4ceph9FormatterE
librgw.so.2:_Z24rgw_get_s3_header_digestRKNSt7__cxx1112basic_stringIcSt11char_traitsIcESaIcEEES6_RS4_
librgw.so.2:_Z24rgw_get_user_info_by_uidP8RGWRadosRK8rgw_userR11RGWUserInfoP20RGWObjVersionTrackerPNSt6chrono10time_pointIN4ceph11time_detail10real_clockENS8_8durationImSt5ratioILl1ELl1000000000EEEEEEP20rgw_cache_entry_infoPSt3mapINSt7__cxx1112basic_stringIcSt11char_traitsIcESaIcEEENSA_6buffer4listESt4lessISR_ESaISt4pairIKSR_ST_EEE
librgw.so.2:_Z24verify_bucket_permissionP9req_stateP22RGWAccessControlPolicyS2_i
librgw.so.2:_Z24verify_bucket_permissionP9req_statei
librgw.so.2:_Z24verify_object_permissionP9req_stateP22RGWAccessControlPolicyS2_S2_i
librgw.so.2:_Z24verify_object_permissionP9req_statei
librgw.so.2:_Z25ceph_argparse_binary_flagRSt6vectorIPKcSaIS1_EERN9__gnu_cxx17__normal_iteratorIPS1_S3_EEPiPSoz
librgw.so.2:_Z25ceph_argparse_double_dashRSt6vectorIPKcSaIS1_EERN9__gnu_cxx17__normal_iteratorIPS1_S3_EE
librgw.so.2:_Z25clog_type_to_syslog_level9clog_type
librgw.so.2:_Z25cls_log_add_prepare_entryR13cls_log_entryRK7utime_tRKNSt7__cxx1112basic_stringIcSt11char_traitsIcESaIcEEESB_RN4ceph6buffer4listE
librgw.so.2:_Z25cls_rgw_bucket_prepare_opRN8librados20ObjectWriteOperationE11RGWModifyOpRNSt7__cxx1112basic_stringIcSt11char_traitsIcESaIcEEERK15cls_rgw_obj_keyRKS8_bt
librgw.so.2:_Z25cls_rgw_encode_suggestioncR20rgw_bucket_dir_entryRN4ceph6buffer4listE
librgw.so.2:_Z25cls_rgw_lc_get_next_entryRN8librados5IoCtxERNSt7__cxx1112basic_stringIcSt11char_traitsIcESaIcEEES8_RSt4pairIS7_iE
librgw.so.2:_Z25cls_user_get_header_asyncRN8librados5IoCtxERNSt7__cxx1112basic_stringIcSt11char_traitsIcESaIcEEEP19RGWGetUserHeader_CB
librgw.so.2:_Z25dump_cmd_and_help_to_jsonPN4ceph9FormatterERKNSt7__cxx1112basic_stringIcSt11char_traitsIcESaIcEEES9_S9_
librgw.so.2:_Z25init_async_signal_handlerv
librgw.so.2:_Z25rgw_build_bucket_policiesP8RGWRadosP9req_state
librgw.so.2:_Z25rgw_build_object_policiesP8RGWRadosP9req_stateb
librgw.so.2:_Z25rgw_get_user_attrs_by_uidP8RGWRadosRK8rgw_userRSt3mapINSt7__cxx1112basic_stringIcSt11char_traitsIcESaIcEEEN4ceph6buffer4listESt4lessISA_ESaISt4pairIKSA_SD_EEEP20RGWObjVersionTracker
librgw.so.2:_Z25rgw_hash_s3_string_sha256PKciRNSt7__cxx1112basic_stringIcSt11char_traitsIcESaIcEEE
librgw.so.2:_Z25rgw_process_authenticatedP15RGWHandler_RESTRP5RGWOpP10RGWRequestP9req_stateb
librgw.so.2:_Z25rgw_register_sync_modulesP21RGWSyncModulesManager
librgw.so.2:_Z25string_to_syslog_facilityNSt7__cxx1112basic_stringIcSt11char_traitsIcESaIcEEE
librgw.so.2:_Z26cls_rgw_bucket_complete_opRN8librados20ObjectWriteOperationE11RGWModifyOpRNSt7__cxx1112basic_stringIcSt11char_traitsIcESaIcEEER20rgw_bucket_entry_verRK15cls_rgw_obj_keyR25rgw_bucket_dir_entry_metaPNS3_4listISC_SaISC_EEEbt
librgw.so.2:_Z26global_init_postfork_startP11CephContext
librgw.so.2:_Z26rgw_bucket_sync_user_statsP8RGWRadosRK8rgw_userR10rgw_bucket
librgw.so.2:_Z26rgw_bucket_sync_user_statsP8RGWRadosRKNSt7__cxx1112basic_stringIcSt11char_traitsIcESaIcEEES8_
librgw.so.2:_Z26rgw_get_user_info_by_emailP8RGWRadosRNSt7__cxx1112basic_stringIcSt11char_traitsIcESaIcEEER11RGWUserInfoP20RGWObjVersionTrackerPNSt6chrono10time_pointIN4ceph11time_detail10real_clockENSC_8durationImSt5ratioILl1ELl1000000000EEEEEE
librgw.so.2:_Z26rgw_get_user_info_by_swiftP8RGWRadosRKNSt7__cxx1112basic_stringIcSt11char_traitsIcESaIcEEER11RGWUserInfoP20RGWObjVersionTrackerPNSt6chrono10time_pointIN4ceph11time_detail10real_clockENSD_8durationImSt5ratioILl1ELl1000000000EEEEEE
librgw.so.2:_Z26rgw_make_bucket_entry_nameRKNSt7__cxx1112basic_stringIcSt11char_traitsIcESaIcEEES6_
librgw.so.2:_Z26rgw_make_bucket_entry_nameRKNSt7__cxx1112basic_stringIcSt11char_traitsIcESaIcEEES6_RS4_
librgw.so.2:_Z27ceph_ioprio_string_to_classRKNSt7__cxx1112basic_stringIcSt11char_traitsIcESaIcEEE
librgw.so.2:_Z27cls_rgw_bucket_update_statsRN8librados20ObjectWriteOperationEbRKSt3mapIh25rgw_bucket_category_statsSt4lessIhESaISt4pairIKhS3_EEE
librgw.so.2:_Z27complain_about_parse_errorsP11CephContextPSt5dequeINSt7__cxx1112basic_stringIcSt11char_traitsIcESaIcEEESaIS7_EE
librgw.so.2:_Z27gen_rand_alphanumeric_lowerP11CephContextPNSt7__cxx1112basic_stringIcSt11char_traitsIcESaIcEEEi
librgw.so.2:_Z27gen_rand_alphanumeric_lowerP11CephContextPci
librgw.so.2:_Z27gen_rand_alphanumeric_plainP11CephContextPci
librgw.so.2:_Z27gen_rand_alphanumeric_upperP11CephContextPci
librgw.so.2:_Z27global_init_postfork_finishP11CephContext
librgw.so.2:_Z27global_init_shutdown_stderrP11CephContext
librgw.so.2:_Z27rgw_bucket_parse_bucket_keyP11CephContextRKNSt7__cxx1112basic_stringIcSt11char_traitsIcESaIcEEEP10rgw_bucketPi
librgw.so.2:_Z27rgw_remove_bucket_bypass_gcP8RGWRadosR10rgw_bucketib
librgw.so.2:_Z27rgw_remove_swift_name_indexP8RGWRadosRNSt7__cxx1112basic_stringIcSt11char_traitsIcESaIcEEE
librgw.so.2:_Z28calc_hash_sha256_open_streamv
librgw.so.2:_Z28cls_rgw_get_dir_header_asyncRN8librados5IoCtxERNSt7__cxx1112basic_stringIcSt11char_traitsIcESaIcEEEP18RGWGetDirHeader_CB
librgw.so.2:_Z28cls_user_complete_stats_syncRN8librados20ObjectWriteOperationE
librgw.so.2:_Z28install_standard_sighandlersv
librgw.so.2:_Z28rgw_bucket_delete_bucket_objP8RGWRadosRKNSt7__cxx1112basic_stringIcSt11char_traitsIcESaIcEEES8_R20RGWObjVersionTracker
librgw.so.2:_Z28rgw_get_user_info_from_indexP8RGWRadosRKNSt7__cxx1112basic_stringIcSt11char_traitsIcESaIcEEER10rgw_bucketR11RGWUserInfoP20RGWObjVersionTrackerPNSt6chrono10time_pointIN4ceph11time_detail10real_clockENSF_8durationImSt5ratioILl1ELl1000000000EEEEEE
librgw.so.2:_Z29calc_hash_sha256_close_streamB5cxx11PPN4ceph6crypto6SHA256E
librgw.so.2:_Z29ceph_osd_alloc_hint_flag_namei
librgw.so.2:_Z29check_bad_user_bucket_mappingP8RGWRadosRK8rgw_userb
librgw.so.2:_Z29cls_statelog_remove_by_clientRN8librados20ObjectWriteOperationERKNSt7__cxx1112basic_stringIcSt11char_traitsIcESaIcEEES9_
librgw.so.2:_Z29cls_statelog_remove_by_objectRN8librados20ObjectWriteOperationERKNSt7__cxx1112basic_stringIcSt11char_traitsIcESaIcEEES9_
librgw.so.2:_Z29lockdep_register_ceph_contextP11CephContext
librgw.so.2:_Z29register_async_signal_handleriPFviE
librgw.so.2:_Z29rgw_flush_formatter_and_resetP9req_statePN4ceph9FormatterE
librgw.so.2:_Z29shutdown_async_signal_handlerv
librgw.so.2:_Z30calc_hash_sha256_update_streamPN4ceph6crypto6SHA256EPKci
librgw.so.2:_Z30cls_rgw_bucket_unlink_instanceRN8librados5IoCtxERKNSt7__cxx1112basic_stringIcSt11char_traitsIcESaIcEEERK15cls_rgw_obj_keyS9_S9_mb
librgw.so.2:_Z30cls_rgw_obj_check_attrs_prefixRN8librados15ObjectOperationERKNSt7__cxx1112basic_stringIcSt11char_traitsIcESaIcEEEb
librgw.so.2:_Z30cls_statelog_add_prepare_entryR18cls_statelog_entryRKNSt7__cxx1112basic_stringIcSt11char_traitsIcESaIcEEES8_S8_RK7utime_tjRN4ceph6buffer4listE
librgw.so.2:_Z30lowercase_underscore_http_attrRKNSt7__cxx1112basic_stringIcSt11char_traitsIcESaIcEEE
librgw.so.2:_Z30rgw_bucket_instance_key_to_oidRNSt7__cxx1112basic_stringIcSt11char_traitsIcESaIcEEE
librgw.so.2:_Z30rgw_bucket_instance_oid_to_keyRNSt7__cxx1112basic_stringIcSt11char_traitsIcESaIcEEE
librgw.so.2:_Z30rgw_bucket_instance_store_infoP8RGWRadosRNSt7__cxx1112basic_stringIcSt11char_traitsIcESaIcEEERN4ceph6buffer4listEbPSt3mapIS6_SA_St4lessIS6_ESaISt4pairIKS6_SA_EEEP20RGWObjVersionTrackerNSt6chrono10time_pointINS8_11time_detail10real_clockENSN_8durationImSt5ratioILl1ELl1000000000EEEEEE
librgw.so.2:_Z30rgw_create_s3_canonical_headerPKcS0_S0_S0_RSt3mapINSt7__cxx1112basic_stringIcSt11char_traitsIcESaIcEEES7_St4lessIS7_ESaISt4pairIKS7_S7_EEES0_SF_RS7_
librgw.so.2:_Z30rgw_create_s3_canonical_headerR8req_infoP7utime_tRNSt7__cxx1112basic_stringIcSt11char_traitsIcESaIcEEEb
librgw.so.2:_Z30uppercase_underscore_http_attrRKNSt7__cxx1112basic_stringIcSt11char_traitsIcESaIcEEE
librgw.so.2:_Z31cls_timeindex_add_prepare_entryR19cls_timeindex_entryRK7utime_tRKNSt7__cxx1112basic_stringIcSt11char_traitsIcESaIcEEERKN4ceph6buffer4listE
librgw.so.2:_Z31lockdep_unregister_ceph_contextP11CephContext
librgw.so.2:_Z31rgw_auth_transform_old_authinfoP9req_state
librgw.so.2:_Z31rgw_create_s3_v4_string_to_signP11CephContextRKNSt7__cxx1112basic_stringIcSt11char_traitsIcESaIcEEES8_S8_S8_RS6_
librgw.so.2:_Z31rgw_get_user_info_by_access_keyP8RGWRadosRNSt7__cxx1112basic_stringIcSt11char_traitsIcESaIcEEER11RGWUserInfoP20RGWObjVersionTrackerPNSt6chrono10time_pointIN4ceph11time_detail10real_clockENSC_8durationImSt5ratioILl1ELl1000000000EEEEEE
librgw.so.2:_Z31unregister_async_signal_handleriPFviE
librgw.so.2:_Z32global_init_preload_erasure_codePK11CephContext
librgw.so.2:_Z32rgw_bucket_instance_remove_entryP8RGWRadosRNSt7__cxx1112basic_stringIcSt11char_traitsIcESaIcEEEP20RGWObjVersionTracker
librgw.so.2:_Z32rgw_bucket_parse_bucket_instanceRKNSt7__cxx1112basic_stringIcSt11char_traitsIcESaIcEEEPS4_Pi
librgw.so.2:_Z33rgw_assemble_s3_v4_string_to_signPKcS0_S0_S0_RNSt7__cxx1112basic_stringIcSt11char_traitsIcESaIcEEE
librgw.so.2:_Z33rgw_calculate_s3_v4_aws_signatureP9req_stateRKNSt7__cxx1112basic_stringIcSt11char_traitsIcESaIcEEES8_S8_S8_S8_RS6_
librgw.so.2:_Z33rgw_compression_info_from_attrsetRSt3mapINSt7__cxx1112basic_stringIcSt11char_traitsIcESaIcEEEN4ceph6buffer4listESt4lessIS5_ESaISt4pairIKS5_S8_EEERbR18RGWCompressionInfo
librgw.so.2:_Z33verify_requester_payer_permissionP9req_state
librgw.so.2:_Z34rgw_create_s3_v4_canonical_requestP9req_stateRKNSt7__cxx1112basic_stringIcSt11char_traitsIcESaIcEEES8_S8_S8_S8_bRS6_S9_
librgw.so.2:_Z35gen_rand_alphanumeric_no_underscoreP11CephContextPci
librgw.so.2:_Z36rgw_assemble_s3_v4_canonical_requestPKcS0_S0_S0_S0_S0_RNSt7__cxx1112basic_stringIcSt11char_traitsIcESaIcEEE
librgw.so.2:_Z37register_async_signal_handler_oneshotiPFviE
librgw.so.2:_Z39rgw_perms_from_aclspec_default_strategyRK8rgw_userRKSt3mapINSt7__cxx1112basic_stringIcSt11char_traitsIcESaIcEEEiSt4lessIS8_ESaISt4pairIKS8_iEEE
librgw.so.2:_Z7hex2strPKciPci
librgw.so.2:_Z7hexdumpNSt7__cxx1112basic_stringIcSt11char_traitsIcESaIcEEEPKci
librgw.so.2:_Z7is_crlfPKc
librgw.so.2:_Z8validatePN11md_config_t29option_rbd_default_features_tEPNSt7__cxx1112basic_stringIcSt11char_traitsIcESaIcEEES8_
librgw.so.2:_Z9dump_bodyP9req_statePKcm
librgw.so.2:_Z9dump_bodyP9req_stateRKNSt7__cxx1112basic_stringIcSt11char_traitsIcESaIcEEE
librgw.so.2:_Z9dump_bodyP9req_stateRN4ceph6buffer4listE
librgw.so.2:_Z9dump_etagP9req_stateRKN5boost16basic_string_refIcSt11char_traitsIcEEEb
librgw.so.2:_Z9dump_etagP9req_stateRN4ceph6buffer4listEb
librgw.so.2:_Z9dump_timeP9req_statePKcPNSt6chrono10time_pointIN4ceph11time_detail10real_clockENS3_8durationImSt5ratioILl1ELl1000000000EEEEEE
librgw.so.2:_Z9recv_bodyP9req_statePcm
librgw.so.2:_ZN10Compressor17get_comp_alg_nameEi
librgw.so.2:_ZN10Compressor17get_comp_alg_typeERKNSt7__cxx1112basic_stringIcSt11char_traitsIcESaIcEEE
librgw.so.2:_ZN10Compressor18get_comp_mode_nameEi
librgw.so.2:_ZN10Compressor18get_comp_mode_typeERKNSt7__cxx1112basic_stringIcSt11char_traitsIcESaIcEEE
librgw.so.2:_ZN10Compressor6createEP11CephContextRKNSt7__cxx1112basic_stringIcSt11char_traitsIcESaIcEEE
librgw.so.2:_ZN10Compressor6createEP11CephContexti
librgw.so.2:_ZN10EntityName22get_valid_types_as_strB5cxx11Ev
librgw.so.2:_ZN10EntityName3setERKNSt7__cxx1112basic_stringIcSt11char_traitsIcESaIcEEES7_
librgw.so.2:_ZN10EntityName3setEjRKNSt7__cxx1112basic_stringIcSt11char_traitsIcESaIcEEE
librgw.so.2:_ZN10EntityName6set_idERKNSt7__cxx1112basic_stringIcSt11char_traitsIcESaIcEEE
librgw.so.2:_ZN10EntityName8from_strERKNSt7__cxx1112basic_stringIcSt11char_traitsIcESaIcEEE
librgw.so.2:_ZN10EntityName8set_nameE13entity_name_t
librgw.so.2:_ZN10EntityName8set_typeEPKc
librgw.so.2:_ZN10EntityName8set_typeEj
librgw.so.2:_ZN10EntityNameC1Ev
librgw.so.2:_ZN10EntityNameC2Ev
librgw.so.2:_ZN10JSONParser11handle_dataEPKci
librgw.so.2:_ZN10JSONParser5parseEPKc
librgw.so.2:_ZN10JSONParser5parseEPKci
librgw.so.2:_ZN10JSONParser5parseEi
librgw.so.2:_ZN10JSONParser5parseEv
librgw.so.2:_ZN10JSONParserC1Ev
librgw.so.2:_ZN10JSONParserC2Ev
librgw.so.2:_ZN10JSONParserD0Ev
librgw.so.2:_ZN10JSONParserD1Ev
librgw.so.2:_ZN10JSONParserD2Ev
librgw.so.2:_ZN10LogSummary23generate_test_instancesERNSt7__cxx114listIPS_SaIS2_EEE
librgw.so.2:_ZN10LogSummary6decodeERN4ceph6buffer4list8iteratorE
librgw.so.2:_ZN10RGWCopyObj11init_commonEv
librgw.so.2:_ZN10RGWCopyObj11progress_cbEl
librgw.so.2:_ZN10RGWCopyObj17verify_permissionEv
librgw.so.2:_ZN10RGWCopyObj19parse_copy_locationERKNSt7__cxx1112basic_stringIcSt11char_traitsIcESaIcEEERS5_R11rgw_obj_key
librgw.so.2:_ZN10RGWCopyObj7executeEv
librgw.so.2:_ZN10RGWCopyObj8pre_execEv
librgw.so.2:_ZN10RGWGetACLs17verify_permissionEv
librgw.so.2:_ZN10RGWGetACLs7executeEv
librgw.so.2:_ZN10RGWGetACLs8pre_execEv
librgw.so.2:_ZN10RGWGetCORS17verify_permissionEv
librgw.so.2:_ZN10RGWGetCORS7executeEv
librgw.so.2:_ZN10RGWHandler13error_handlerEiPNSt7__cxx1112basic_stringIcSt11char_traitsIcESaIcEEE
librgw.so.2:_ZN10RGWHandler19do_init_permissionsEv
librgw.so.2:_ZN10RGWHandler19do_read_permissionsEP5RGWOpb
librgw.so.2:_ZN10RGWHandler4initEP8RGWRadosP9req_statePN3rgw2io11BasicClientE
librgw.so.2:_ZN10RGWHandlerD0Ev
librgw.so.2:_ZN10RGWHandlerD1Ev
librgw.so.2:_ZN10RGWHandlerD2Ev
librgw.so.2:_ZN10RGWOLHInfo23generate_test_instancesERNSt7__cxx114listIPS_SaIS2_EEE
librgw.so.2:_ZN10RGWOpState11renew_stateERKNSt7__cxx1112basic_stringIcSt11char_traitsIcESaIcEEES7_S7_NS_7OpStateE
librgw.so.2:_ZN10RGWOpState14state_from_strERKNSt7__cxx1112basic_stringIcSt11char_traitsIcESaIcEEEPNS_7OpStateE
librgw.so.2:_ZN10RGWOpState19dump_entry_internalERK18cls_statelog_entryPN4ceph9FormatterE
librgw.so.2:_ZN10RGWOpState9set_stateERKNSt7__cxx1112basic_stringIcSt11char_traitsIcESaIcEEES7_S7_NS_7OpStateE
librgw.so.2:_ZN10RGWOpStateC1EP8RGWRados
librgw.so.2:_ZN10RGWOpStateC2EP8RGWRados
librgw.so.2:_ZN10RGWPostObj17verify_permissionEv
librgw.so.2:_ZN10RGWPostObj7executeEv
librgw.so.2:_ZN10RGWPostObj8pre_execEv
librgw.so.2:_ZN10RGWProcess5RGWWQ11_dump_queueEv
librgw.so.2:_ZN10RGWPutACLs17verify_permissionEv
librgw.so.2:_ZN10RGWPutACLs7executeEv
librgw.so.2:_ZN10RGWPutACLs8pre_execEv
librgw.so.2:_ZN10RGWPutCORS17verify_permissionEv
librgw.so.2:_ZN10RGWPutCORS7executeEv
librgw.so.2:_ZN10RGWRESTMgr16get_resource_mgrEP9req_stateRKNSt7__cxx1112basic_stringIcSt11char_traitsIcESaIcEEEPS7_
librgw.so.2:_ZN10RGWRESTMgr17register_resourceENSt7__cxx1112basic_stringIcSt11char_traitsIcESaIcEEEPS_
librgw.so.2:_ZN10RGWRESTMgr20register_default_mgrEPS_
librgw.so.2:_ZN10RGWRESTMgrD0Ev
librgw.so.2:_ZN10RGWRESTMgrD1Ev
librgw.so.2:_ZN10RGWRESTMgrD2Ev
librgw.so.2:_ZN10RGWRequest10log_formatEP9req_statePKcz
librgw.so.2:_ZN10RGWRequest3logEP9req_statePKc
librgw.so.2:_ZN10RGWRequest8log_initEv
librgw.so.2:_ZN10RGWSubUser11decode_jsonEP7JSONObj
librgw.so.2:_ZN10RGWSubUser23generate_test_instancesERNSt7__cxx114listIPS_SaIS2_EEE
librgw.so.2:_ZN10ThreadPool10set_ioprioEii
librgw.so.2:_ZN10ThreadPool13start_threadsEv
librgw.so.2:_ZN10ThreadPool16join_old_threadsEv
librgw.so.2:_ZN10ThreadPool18handle_conf_changeEPK11md_config_tRKSt3setINSt7__cxx1112basic_stringIcSt11char_traitsIcESaIcEEESt4lessIS9_ESaIS9_EE
librgw.so.2:_ZN10ThreadPool4stopEb
librgw.so.2:_ZN10ThreadPool5drainEPNS_10WorkQueue_E
librgw.so.2:_ZN10ThreadPool5pauseEv
librgw.so.2:_ZN10ThreadPool5startEv
librgw.so.2:_ZN10ThreadPool6workerEPNS_10WorkThreadE
librgw.so.2:_ZN10ThreadPool7unpauseEv
librgw.so.2:_ZN10ThreadPool8TPHandle16reset_tp_timeoutEv
librgw.so.2:_ZN10ThreadPool8TPHandle18suspend_tp_timeoutEv
librgw.so.2:_ZN10ThreadPool9pause_newEv
librgw.so.2:_ZN10ThreadPoolC1EP11CephContextNSt7__cxx1112basic_stringIcSt11char_traitsIcESaIcEEES7_iPKc
librgw.so.2:_ZN10ThreadPoolC2EP11CephContextNSt7__cxx1112basic_stringIcSt11char_traitsIcESaIcEEES7_iPKc
librgw.so.2:_ZN10ThreadPoolD0Ev
librgw.so.2:_ZN10ThreadPoolD1Ev
librgw.so.2:_ZN10ThreadPoolD2Ev
librgw.so.2:_ZN10XMLObjIter3setERKSt17_Rb_tree_iteratorISt4pairIKNSt7__cxx1112basic_stringIcSt11char_traitsIcESaIcEEEP6XMLObjEESE_
librgw.so.2:_ZN10XMLObjIter8get_nextEv
librgw.so.2:_ZN10XMLObjIterC1Ev
librgw.so.2:_ZN10XMLObjIterC2Ev
librgw.so.2:_ZN10XMLObjIterD1Ev
librgw.so.2:_ZN10XMLObjIterD2Ev
librgw.so.2:_ZN10rgw_bucket11decode_jsonEP7JSONObj
librgw.so.2:_ZN10rgw_bucket23generate_test_instancesERNSt7__cxx114listIPS_SaIS2_EEE
librgw.so.2:_ZN11ACLGrant_S312group_to_uriE16ACLGroupTypeEnumRNSt7__cxx1112basic_stringIcSt11char_traitsIcESaIcEEE
librgw.so.2:_ZN11ACLGrant_S312uri_to_groupERNSt7__cxx1112basic_stringIcSt11char_traitsIcESaIcEEE
librgw.so.2:_ZN11ACLGrant_S36to_xmlEP11CephContextRSo
librgw.so.2:_ZN11ACLGrant_S37xml_endEPKc
librgw.so.2:_ZN11ACLOwner_S36to_xmlERSo
librgw.so.2:_ZN11ACLOwner_S37xml_endEPKc
librgw.so.2:_ZN11AdminSocket15bind_and_listenERKNSt7__cxx1112basic_stringIcSt11char_traitsIcESaIcEEEPi
librgw.so.2:_ZN11AdminSocket16register_commandENSt7__cxx1112basic_stringIcSt11char_traitsIcESaIcEEES5_P15AdminSocketHookS5_
librgw.so.2:_ZN11AdminSocket18unregister_commandENSt7__cxx1112basic_stringIcSt11char_traitsIcESaIcEEE
librgw.so.2:_ZN11AdminSocket20create_shutdown_pipeB5cxx11EPiS0_
librgw.so.2:_ZN11AdminSocket21destroy_shutdown_pipeB5cxx11Ev
librgw.so.2:_ZN11AdminSocket4initERKNSt7__cxx1112basic_stringIcSt11char_traitsIcESaIcEEE
librgw.so.2:_ZN11AdminSocket5chownEjj
librgw.so.2:_ZN11AdminSocket5entryEv
librgw.so.2:_ZN11AdminSocket8shutdownEv
librgw.so.2:_ZN11AdminSocket9do_acceptEv
librgw.so.2:_ZN11AdminSocketC1EP11CephContext
librgw.so.2:_ZN11AdminSocketC2EP11CephContext
librgw.so.2:_ZN11AdminSocketD0Ev
librgw.so.2:_ZN11AdminSocketD1Ev
librgw.so.2:_ZN11AdminSocketD2Ev
librgw.so.2:_ZN11CephContext10do_commandENSt7__cxx1112basic_stringIcSt11char_traitsIcESaIcEEERSt3mapIS5_N5boost7variantIS5_JbldSt6vectorIS5_SaIS5_EES9_IlSaIlEEEEESt4lessIS5_ESaISt4pairIKS5_SE_EEES5_PN4ceph6buffer4listE
librgw.so.2:_ZN11CephContext11init_cryptoEv
librgw.so.2:_ZN11CephContext11reopen_logsEv
librgw.so.2:_ZN11CephContext14set_init_flagsEi
librgw.so.2:_ZN11CephContext16get_admin_socketEv
librgw.so.2:_ZN11CephContext18get_crypto_handlerEi
librgw.so.2:_ZN11CephContext19enable_perf_counterEv
librgw.so.2:_ZN11CephContext19join_service_threadEv
librgw.so.2:_ZN11CephContext19refresh_perf_valuesEv
librgw.so.2:_ZN11CephContext20disable_perf_counterEv
librgw.so.2:_ZN11CephContext20start_service_threadEv
librgw.so.2:_ZN11CephContext27get_perfcounters_collectionEv
librgw.so.2:_ZN11CephContext34check_experimental_feature_enabledERKNSt7__cxx1112basic_stringIcSt11char_traitsIcESaIcEEE
librgw.so.2:_ZN11CephContext34check_experimental_feature_enabledERKNSt7__cxx1112basic_stringIcSt11char_traitsIcESaIcEEEPSo
librgw.so.2:_ZN11CephContext3putEv
librgw.so.2:_ZN11CephContextC1Eji
librgw.so.2:_ZN11CephContextC2Eji
librgw.so.2:_ZN11CephContextD1Ev
librgw.so.2:_ZN11CephContextD2Ev
librgw.so.2:_ZN11JSONObjIter3setERKSt17_Rb_tree_iteratorISt4pairIKNSt7__cxx1112basic_stringIcSt11char_traitsIcESaIcEEEP7JSONObjEESE_
librgw.so.2:_ZN11JSONObjIterC1Ev
librgw.so.2:_ZN11JSONObjIterC2Ev
librgw.so.2:_ZN11JSONObjIterD1Ev
librgw.so.2:_ZN11JSONObjIterD2Ev
librgw.so.2:_ZN11JSONObjIterdeEv
librgw.so.2:_ZN11JSONObjIterppEv
librgw.so.2:_ZN11LogEntryKey23generate_test_instancesERNSt7__cxx114listIPS_SaIS2_EEE
librgw.so.2:_ZN11LogEntryKey6decodeERN4ceph6buffer4list8iteratorE
librgw.so.2:_ZN11ObjectCache10remove_lruERNSt7__cxx1112basic_stringIcSt11char_traitsIcESaIcEEERSt14_List_iteratorIS5_E
librgw.so.2:_ZN11ObjectCache11chain_cacheEP15RGWChainedCache
librgw.so.2:_ZN11ObjectCache11set_enabledEb
librgw.so.2:_ZN11ObjectCache14invalidate_allEv
librgw.so.2:_ZN11ObjectCache17chain_cache_entryERNSt7__cxx114listIP20rgw_cache_entry_infoSaIS3_EEEPN15RGWChainedCache5EntryE
librgw.so.2:_ZN11ObjectCache17do_invalidate_allEv
librgw.so.2:_ZN11ObjectCache3getERNSt7__cxx1112basic_stringIcSt11char_traitsIcESaIcEEER15ObjectCacheInfojP20rgw_cache_entry_info
librgw.so.2:_ZN11ObjectCache3putERNSt7__cxx1112basic_stringIcSt11char_traitsIcESaIcEEER15ObjectCacheInfoP20rgw_cache_entry_info
librgw.so.2:_ZN11ObjectCache6removeERNSt7__cxx1112basic_stringIcSt11char_traitsIcESaIcEEE
librgw.so.2:_ZN11ObjectCache9touch_lruERNSt7__cxx1112basic_stringIcSt11char_traitsIcESaIcEEER16ObjectCacheEntryRSt14_List_iteratorIS5_E
librgw.so.2:_ZN11RGWCORSRule12dump_originsEv
librgw.so.2:_ZN11RGWCORSRule17is_header_allowedEPKcm
librgw.so.2:_ZN11RGWCORSRule17is_origin_presentEPKc
librgw.so.2:_ZN11RGWCORSRule18format_exp_headersERNSt7__cxx1112basic_stringIcSt11char_traitsIcESaIcEEE
librgw.so.2:_ZN11RGWCORSRule19has_wildcard_originEv
librgw.so.2:_ZN11RGWCORSRule23erase_origin_if_presentERNSt7__cxx1112basic_stringIcSt11char_traitsIcESaIcEEEPb
librgw.so.2:_ZN11RGWDeleteLC17verify_permissionEv
librgw.so.2:_ZN11RGWDeleteLC7executeEv
librgw.so.2:_ZN11RGWDeleteLC8pre_execEv
librgw.so.2:_ZN11RGWGetUsage17verify_permissionEv
librgw.so.2:_ZN11RGWGetUsage7executeEv
librgw.so.2:_ZN11RGWHTTPArgs5parseEv
librgw.so.2:_ZN11RGWHTTPArgs6appendERKNSt7__cxx1112basic_stringIcSt11char_traitsIcESaIcEEES7_
librgw.so.2:_ZN11RGWHTTPArgs7sys_getERKNSt7__cxx1112basic_stringIcSt11char_traitsIcESaIcEEEPb
librgw.so.2:_ZN11RGWHTTPArgs8get_boolEPKcPbS2_
librgw.so.2:_ZN11RGWHTTPArgs8get_boolEPKcPbb
librgw.so.2:_ZN11RGWHTTPArgs8get_boolERKNSt7__cxx1112basic_stringIcSt11char_traitsIcESaIcEEEPbS8_
librgw.so.2:_ZN11RGWNameToId11decode_jsonEP7JSONObj
librgw.so.2:_ZN11RGWRESTConn12get_resourceERKNSt7__cxx1112basic_stringIcSt11char_traitsIcESaIcEEEPSt6vectorISt4pairIS5_S5_ESaISA_EEPSt3mapIS5_S5_St4lessIS5_ESaIS9_IS6_S5_EEERN4ceph6buffer4listEP14RGWHTTPManager
librgw.so.2:_ZN11RGWRESTConn12put_obj_initERK8rgw_userR7rgw_objmRSt3mapINSt7__cxx1112basic_stringIcSt11char_traitsIcESaIcEEEN4ceph6buffer4listESt4lessISB_ESaISt4pairIKSB_SE_EEEPP25RGWRESTStreamWriteRequest
librgw.so.2:_ZN11RGWRESTConn16complete_requestEP22RGWRESTStreamRWRequestRNSt7__cxx1112basic_stringIcSt11char_traitsIcESaIcEEEPNSt6chrono10time_pointIN4ceph11time_detail10real_clockENS9_8durationImSt5ratioILl1ELl1000000000EEEEEEPmRSt3mapIS7_S7_St4lessIS7_ESaISt4pairIKS7_S7_EEE
librgw.so.2:_ZN11RGWRESTConn16complete_requestEP25RGWRESTStreamWriteRequestRNSt7__cxx1112basic_stringIcSt11char_traitsIcESaIcEEEPNSt6chrono10time_pointIN4ceph11time_detail10real_clockENS9_8durationImSt5ratioILl1ELl1000000000EEEEEE
librgw.so.2:_ZN11RGWRESTConn7forwardERK8rgw_userR8req_infoP11obj_versionmPN4ceph6buffer4listESA_
librgw.so.2:_ZN11RGWRESTConn7get_objERK8rgw_userP8req_infoR7rgw_objPKNSt6chrono10time_pointIN4ceph11time_detail10real_clockENS7_8durationImSt5ratioILl1ELl1000000000EEEEEESI_jmbbbP12RGWGetDataCBPP22RGWRESTStreamRWRequest
librgw.so.2:_ZN11RGWRESTConn7get_urlB5cxx11Ev
librgw.so.2:_ZN11RGWRESTConn7get_urlERNSt7__cxx1112basic_stringIcSt11char_traitsIcESaIcEEE
librgw.so.2:_ZN11RGWRESTConnC1EP11CephContextP8RGWRadosRKNSt7__cxx1112basic_stringIcSt11char_traitsIcESaIcEEERKNS4_4listIS9_SaIS9_EEE
librgw.so.2:_ZN11RGWRESTConnC2EP11CephContextP8RGWRadosRKNSt7__cxx1112basic_stringIcSt11char_traitsIcESaIcEEERKNS4_4listIS9_SaIS9_EEE
librgw.so.2:_ZN11RGWResolver13resolve_cnameERKNSt7__cxx1112basic_stringIcSt11char_traitsIcESaIcEEERS5_Pb
librgw.so.2:_ZN11RGWResolverC1Ev
librgw.so.2:_ZN11RGWResolverC2Ev
librgw.so.2:_ZN11RGWResolverD1Ev
librgw.so.2:_ZN11RGWResolverD2Ev
librgw.so.2:_ZN11RGWSetAttrs17verify_permissionEv
librgw.so.2:_ZN11RGWSetAttrs7executeEv
librgw.so.2:_ZN11RGWSetAttrs8pre_execEv
librgw.so.2:_ZN11RGWStateLog10dump_entryERK18cls_statelog_entryPN4ceph9FormatterE
librgw.so.2:_ZN11RGWStateLog10open_ioctxERN8librados5IoCtxE
librgw.so.2:_ZN11RGWStateLog11store_entryERKNSt7__cxx1112basic_stringIcSt11char_traitsIcESaIcEEES7_S7_jPN4ceph6buffer4listEPj
librgw.so.2:_ZN11RGWStateLog12list_entriesEPviRNSt7__cxx114listI18cls_statelog_entrySaIS3_EEEPb
librgw.so.2:_ZN11RGWStateLog12remove_entryERKNSt7__cxx1112basic_stringIcSt11char_traitsIcESaIcEEES7_S7_
librgw.so.2:_ZN11RGWStateLog13get_shard_numERKNSt7__cxx1112basic_stringIcSt11char_traitsIcESaIcEEE
librgw.so.2:_ZN11RGWStateLog17init_list_entriesERKNSt7__cxx1112basic_stringIcSt11char_traitsIcESaIcEEES7_S7_PPv
librgw.so.2:_ZN11RGWStateLog19finish_list_entriesEPv
librgw.so.2:_ZN11RGWStateLog7get_oidERKNSt7__cxx1112basic_stringIcSt11char_traitsIcESaIcEEE
librgw.so.2:_ZN11RGWStateLog7oid_strEiRNSt7__cxx1112basic_stringIcSt11char_traitsIcESaIcEEE
librgw.so.2:_ZN11RGWUserCaps10remove_capERKNSt7__cxx1112basic_stringIcSt11char_traitsIcESaIcEEE
librgw.so.2:_ZN11RGWUserCaps11decode_jsonEP7JSONObj
librgw.so.2:_ZN11RGWUserCaps14parse_cap_permERKNSt7__cxx1112basic_stringIcSt11char_traitsIcESaIcEEEPj
librgw.so.2:_ZN11RGWUserCaps15add_from_stringERKNSt7__cxx1112basic_stringIcSt11char_traitsIcESaIcEEE
librgw.so.2:_ZN11RGWUserCaps17is_valid_cap_typeERKNSt7__cxx1112basic_stringIcSt11char_traitsIcESaIcEEE
librgw.so.2:_ZN11RGWUserCaps18remove_from_stringERKNSt7__cxx1112basic_stringIcSt11char_traitsIcESaIcEEE
librgw.so.2:_ZN11RGWUserCaps7add_capERKNSt7__cxx1112basic_stringIcSt11char_traitsIcESaIcEEE
librgw.so.2:_ZN11RGWUserCaps7get_capERKNSt7__cxx1112basic_stringIcSt11char_traitsIcESaIcEEERS5_Pj
librgw.so.2:_ZN11RGWUserCaps9check_capERKNSt7__cxx1112basic_stringIcSt11char_traitsIcESaIcEEEj
librgw.so.2:_ZN11RGWUserInfo11decode_jsonEP7JSONObj
librgw.so.2:_ZN11RGWUserInfo23generate_test_instancesERNSt7__cxx114listIPS_SaIS2_EEE
librgw.so.2:_ZN11RGW_Auth_S312authorize_v2EP8RGWRadosP9req_state
librgw.so.2:_ZN11RGW_Auth_S312authorize_v4EP8RGWRadosP9req_stateb
librgw.so.2:_ZN11RGW_Auth_S321authorize_v4_completeEP8RGWRadosP9req_stateRKNSt7__cxx1112basic_stringIcSt11char_traitsIcESaIcEEEb
librgw.so.2:_ZN11RGW_Auth_S328authorize_aws4_auth_completeEP8RGWRadosP9req_state
librgw.so.2:_ZN11RGW_Auth_S39authorizeEP8RGWRadosP9req_state
librgw.so.2:_ZN11json_spirit13read_or_throwERKNSt7__cxx1112basic_stringIcSt11char_traitsIcESaIcEEERNS_10Value_implINS_10Config_mapIS5_EEEE
librgw.so.2:_ZN11json_spirit13read_or_throwERKNSt7__cxx1112basic_stringIcSt11char_traitsIcESaIcEEERNS_10Value_implINS_13Config_vectorIS5_EEEE
librgw.so.2:_ZN11json_spirit13read_or_throwERN9__gnu_cxx17__normal_iteratorIPKcNSt7__cxx1112basic_stringIcSt11char_traitsIcESaIcEEEEESA_RNS_10Value_implINS_10Config_mapIS9_EEEE
librgw.so.2:_ZN11json_spirit13read_or_throwERN9__gnu_cxx17__normal_iteratorIPKcNSt7__cxx1112basic_stringIcSt11char_traitsIcESaIcEEEEESA_RNS_10Value_implINS_13Config_vectorIS9_EEEE
librgw.so.2:_ZN11json_spirit13read_or_throwERSiRNS_10Value_implINS_10Config_mapINSt7__cxx1112basic_stringIcSt11char_traitsIcESaIcEEEEEEE
librgw.so.2:_ZN11json_spirit13read_or_throwERSiRNS_10Value_implINS_13Config_vectorINSt7__cxx1112basic_stringIcSt11char_traitsIcESaIcEEEEEEE
librgw.so.2:_ZN11json_spirit15write_formattedERKNS_10Value_implINS_10Config_mapINSt7__cxx1112basic_stringIcSt11char_traitsIcESaIcEEEEEEE
librgw.so.2:_ZN11json_spirit15write_formattedERKNS_10Value_implINS_10Config_mapINSt7__cxx1112basic_stringIcSt11char_traitsIcESaIcEEEEEEERSo
librgw.so.2:_ZN11json_spirit15write_formattedERKNS_10Value_implINS_13Config_vectorINSt7__cxx1112basic_stringIcSt11char_traitsIcESaIcEEEEEEE
librgw.so.2:_ZN11json_spirit15write_formattedERKNS_10Value_implINS_13Config_vectorINSt7__cxx1112basic_stringIcSt11char_traitsIcESaIcEEEEEEERSo
librgw.so.2:_ZN11json_spirit19unicode_str_to_utf8INSt7__cxx1112basic_stringIcSt11char_traitsIcESaIcEEEN9__gnu_cxx17__normal_iteratorIPKcS6_EEEET_RT0_
librgw.so.2:_ZN11json_spirit4readERKNSt7__cxx1112basic_stringIcSt11char_traitsIcESaIcEEERNS_10Value_implINS_10Config_mapIS5_EEEE
librgw.so.2:_ZN11json_spirit4readERKNSt7__cxx1112basic_stringIcSt11char_traitsIcESaIcEEERNS_10Value_implINS_13Config_vectorIS5_EEEE
librgw.so.2:_ZN11json_spirit4readERN9__gnu_cxx17__normal_iteratorIPKcNSt7__cxx1112basic_stringIcSt11char_traitsIcESaIcEEEEESA_RNS_10Value_implINS_10Config_mapIS9_EEEE
librgw.so.2:_ZN11json_spirit4readERN9__gnu_cxx17__normal_iteratorIPKcNSt7__cxx1112basic_stringIcSt11char_traitsIcESaIcEEEEESA_RNS_10Value_implINS_13Config_vectorIS9_EEEE
librgw.so.2:_ZN11json_spirit4readERSiRNS_10Value_implINS_10Config_mapINSt7__cxx1112basic_stringIcSt11char_traitsIcESaIcEEEEEEE
librgw.so.2:_ZN11json_spirit4readERSiRNS_10Value_implINS_13Config_vectorINSt7__cxx1112basic_stringIcSt11char_traitsIcESaIcEEEEEEE
librgw.so.2:_ZN11json_spirit5writeERKNS_10Value_implINS_10Config_mapINSt7__cxx1112basic_stringIcSt11char_traitsIcESaIcEEEEEEERSoj
librgw.so.2:_ZN11json_spirit5writeERKNS_10Value_implINS_10Config_mapINSt7__cxx1112basic_stringIcSt11char_traitsIcESaIcEEEEEEEj
librgw.so.2:_ZN11json_spirit5writeERKNS_10Value_implINS_13Config_vectorINSt7__cxx1112basic_stringIcSt11char_traitsIcESaIcEEEEEEERSoj
librgw.so.2:_ZN11json_spirit5writeERKNS_10Value_implINS_13Config_vectorINSt7__cxx1112basic_stringIcSt11char_traitsIcESaIcEEEEEEEj
librgw.so.2:_ZN11md_config_t10injectargsERKNSt7__cxx1112basic_stringIcSt11char_traitsIcESaIcEEEPSo
librgw.so.2:_ZN11md_config_t10parse_argvERSt6vectorIPKcSaIS2_EE
librgw.so.2:_ZN11md_config_t11init_subsysEv
librgw.so.2:_ZN11md_config_t11set_val_rawEPKcPKNS_13config_optionE
librgw.so.2:_ZN11md_config_t11show_configEPN4ceph9FormatterE
librgw.so.2:_ZN11md_config_t11show_configERSo
librgw.so.2:_ZN11md_config_t12_show_configEPSoPN4ceph9FormatterE
librgw.so.2:_ZN11md_config_t12add_observerEP15md_config_obs_t
librgw.so.2:_ZN11md_config_t12parse_optionERSt6vectorIPKcSaIS2_EERN9__gnu_cxx17__normal_iteratorIPS2_S4_EEPSo
librgw.so.2:_ZN11md_config_t12set_val_implERKNSt7__cxx1112basic_stringIcSt11char_traitsIcESaIcEEEPKNS_13config_optionEPS5_
librgw.so.2:_ZN11md_config_t13apply_changesEPSo
librgw.so.2:_ZN11md_config_t14_apply_changesEPSo
librgw.so.2:_ZN11md_config_t14set_val_or_dieEPKcS1_
librgw.so.2:_ZN11md_config_t15_internal_fieldERKNSt7__cxx1112basic_stringIcSt11char_traitsIcESaIcEEE
librgw.so.2:_ZN11md_config_t15expand_all_metaEv
librgw.so.2:_ZN11md_config_t15remove_observerEP15md_config_obs_t
librgw.so.2:_ZN11md_config_t16parse_injectargsERSt6vectorIPKcSaIS2_EEPSo
librgw.so.2:_ZN11md_config_t18call_all_observersEv
librgw.so.2:_ZN11md_config_t18parse_config_filesEPKcPSoi
librgw.so.2:_ZN11md_config_t23parse_config_files_implERKNSt7__cxx114listINS0_12basic_stringIcSt11char_traitsIcESaIcEEESaIS6_EEEPSo
librgw.so.2:_ZN11md_config_t25validate_default_settingsEv
librgw.so.2:_ZN11md_config_t27complain_about_parse_errorsEP11CephContext
librgw.so.2:_ZN11md_config_t4diffEPKS_PSt3mapINSt7__cxx1112basic_stringIcSt11char_traitsIcESaIcEEESt4pairIS8_S8_ESt4lessIS8_ESaIS9_IKS8_SA_EEEPSt3setIS8_SC_SaIS8_EE
librgw.so.2:_ZN11md_config_t7set_valEPKcS1_bb
librgw.so.2:_ZN11md_config_t9parse_envEv
librgw.so.2:_ZN11md_config_tC1Ev
librgw.so.2:_ZN11md_config_tC2Ev
librgw.so.2:_ZN11md_config_tD1Ev
librgw.so.2:_ZN11md_config_tD2Ev
librgw.so.2:_ZN12CrushWrapper11insert_itemEP11CephContextifNSt7__cxx1112basic_stringIcSt11char_traitsIcESaIcEEERKSt3mapIS7_S7_St4lessIS7_ESaISt4pairIKS7_S7_EEE
librgw.so.2:_ZN12CrushWrapper11link_bucketEP11CephContextiRKSt3mapINSt7__cxx1112basic_stringIcSt11char_traitsIcESaIcEEES8_St4lessIS8_ESaISt4pairIKS8_S8_EEE
librgw.so.2:_ZN12CrushWrapper11move_bucketEP11CephContextiRKSt3mapINSt7__cxx1112basic_stringIcSt11char_traitsIcESaIcEEES8_St4lessIS8_ESaISt4pairIKS8_S8_EEE
librgw.so.2:_ZN12CrushWrapper11remove_itemEP11CephContextib
librgw.so.2:_ZN12CrushWrapper11remove_ruleEi
librgw.so.2:_ZN12CrushWrapper11rename_itemERKNSt7__cxx1112basic_stringIcSt11char_traitsIcESaIcEEES7_PSo
librgw.so.2:_ZN12CrushWrapper11update_itemEP11CephContextifNSt7__cxx1112basic_stringIcSt11char_traitsIcESaIcEEERKSt3mapIS7_S7_St4lessIS7_ESaISt4pairIKS7_S7_EEE
librgw.so.2:_ZN12CrushWrapper12get_childrenEiPNSt7__cxx114listIiSaIiEEE
librgw.so.2:_ZN12CrushWrapper13parse_loc_mapERKSt6vectorINSt7__cxx1112basic_stringIcSt11char_traitsIcESaIcEEESaIS6_EEPSt3mapIS6_S6_St4lessIS6_ESaISt4pairIKS6_S6_EEE
librgw.so.2:_ZN12CrushWrapper13rename_bucketERKNSt7__cxx1112basic_stringIcSt11char_traitsIcESaIcEEES7_PSo
librgw.so.2:_ZN12CrushWrapper14check_item_locEP11CephContextiRKSt3mapINSt7__cxx1112basic_stringIcSt11char_traitsIcESaIcEEES8_St4lessIS8_ESaISt4pairIKS8_S8_EEEPi
librgw.so.2:_ZN12CrushWrapper17_bucket_is_in_useEP11CephContexti
librgw.so.2:_ZN12CrushWrapper17get_full_locationB5cxx11Ei
librgw.so.2:_ZN12CrushWrapper17remove_item_underEP11CephContextiib
librgw.so.2:_ZN12CrushWrapper18_remove_item_underEP11CephContextiib
librgw.so.2:_ZN12CrushWrapper18add_simple_rulesetENSt7__cxx1112basic_stringIcSt11char_traitsIcESaIcEEES5_S5_S5_iPSo
librgw.so.2:_ZN12CrushWrapper18adjust_item_weightEP11CephContextii
librgw.so.2:_ZN12CrushWrapper18is_valid_crush_locEP11CephContextRKSt3mapINSt7__cxx1112basic_stringIcSt11char_traitsIcESaIcEEES8_St4lessIS8_ESaISt4pairIKS8_S8_EEE
librgw.so.2:_ZN12CrushWrapper18parse_loc_multimapERKSt6vectorINSt7__cxx1112basic_stringIcSt11char_traitsIcESaIcEEESaIS6_EEPSt8multimapIS6_S6_St4lessIS6_ESaISt4pairIKS6_S6_EEE
librgw.so.2:_ZN12CrushWrapper19create_or_move_itemEP11CephContextifNSt7__cxx1112basic_stringIcSt11char_traitsIcESaIcEEERKSt3mapIS7_S7_St4lessIS7_ESaISt4pairIKS7_S7_EEE
librgw.so.2:_ZN12CrushWrapper19decode_crush_bucketEPP12crush_bucketRN4ceph6buffer4list8iteratorE
librgw.so.2:_ZN12CrushWrapper19is_valid_crush_nameERKNSt7__cxx1112basic_stringIcSt11char_traitsIcESaIcEEE
librgw.so.2:_ZN12CrushWrapper20get_immediate_parentB5cxx11EiPi
librgw.so.2:_ZN12CrushWrapper20get_parent_hierarchyB5cxx11Ei
librgw.so.2:_ZN12CrushWrapper21add_simple_ruleset_atENSt7__cxx1112basic_stringIcSt11char_traitsIcESaIcEEES5_S5_S5_iiPSo
librgw.so.2:_ZN12CrushWrapper21adjust_subtree_weightEP11CephContextii
librgw.so.2:_ZN12CrushWrapper22get_item_weight_in_locEiRKSt3mapINSt7__cxx1112basic_stringIcSt11char_traitsIcESaIcEEES6_St4lessIS6_ESaISt4pairIKS6_S6_EEE
librgw.so.2:_ZN12CrushWrapper23generate_test_instancesERNSt7__cxx114listIPS_SaIS2_EEE
librgw.so.2:_ZN12CrushWrapper23get_immediate_parent_idEiPi
librgw.so.2:_ZN12CrushWrapper23get_rule_weight_osd_mapEjPSt3mapIifSt4lessIiESaISt4pairIKifEEE
librgw.so.2:_ZN12CrushWrapper25adjust_item_weight_in_locEP11CephContextiiRKSt3mapINSt7__cxx1112basic_stringIcSt11char_traitsIcESaIcEEES8_St4lessIS8_ESaISt4pairIKS8_S8_EEE
librgw.so.2:_ZN12CrushWrapper25get_full_location_orderedEiRSt6vectorISt4pairINSt7__cxx1112basic_stringIcSt11char_traitsIcESaIcEEES7_ESaIS8_EE
librgw.so.2:_ZN12CrushWrapper27_maybe_remove_last_instanceEP11CephContextib
librgw.so.2:_ZN12CrushWrapper28get_common_ancestor_distanceEP11CephContextiRKSt8multimapINSt7__cxx1112basic_stringIcSt11char_traitsIcESaIcEEES8_St4lessIS8_ESaISt4pairIKS8_S8_EEE
librgw.so.2:_ZN12CrushWrapper45get_osd_pool_default_crush_replicated_rulesetEP11CephContext
librgw.so.2:_ZN12CrushWrapper46_get_osd_pool_default_crush_replicated_rulesetEP11CephContextb
librgw.so.2:_ZN12CrushWrapper6decodeERN4ceph6buffer4list8iteratorE
librgw.so.2:_ZN12CrushWrapper8reweightEP11CephContext
librgw.so.2:_ZN12OpsLogSocket15formatter_to_blERN4ceph6buffer4listE
librgw.so.2:_ZN12OpsLogSocket15init_connectionERN4ceph6buffer4listE
librgw.so.2:_ZN12OpsLogSocket3logER13rgw_log_entry
librgw.so.2:_ZN12OpsLogSocketC1EP11CephContextm
librgw.so.2:_ZN12OpsLogSocketC2EP11CephContextm
librgw.so.2:_ZN12OpsLogSocketD0Ev
librgw.so.2:_ZN12OpsLogSocketD1Ev
librgw.so.2:_ZN12OpsLogSocketD2Ev
librgw.so.2:_ZN12PerfCounters14dump_formattedEPN4ceph9FormatterEbRKNSt7__cxx1112basic_stringIcSt11char_traitsIcESaIcEEE
librgw.so.2:_ZN12PerfCounters3decEim
librgw.so.2:_ZN12PerfCounters3incEim
librgw.so.2:_ZN12PerfCounters3setEim
librgw.so.2:_ZN12PerfCounters4tincEi7utime_t
librgw.so.2:_ZN12PerfCounters4tincEiNSt6chrono8durationImSt5ratioILl1ELl1000000000EEEE
librgw.so.2:_ZN12PerfCounters4tsetEi7utime_t
librgw.so.2:_ZN12PerfCounters5resetEv
librgw.so.2:_ZN12PerfCountersC1EP11CephContextRKNSt7__cxx1112basic_stringIcSt11char_traitsIcESaIcEEEii
librgw.so.2:_ZN12PerfCountersC2EP11CephContextRKNSt7__cxx1112basic_stringIcSt11char_traitsIcESaIcEEEii
librgw.so.2:_ZN12PerfCountersD1Ev
librgw.so.2:_ZN12PerfCountersD2Ev
librgw.so.2:_ZN12RGWAccessKey11decode_jsonEP7JSONObj
librgw.so.2:_ZN12RGWAccessKey11decode_jsonEP7JSONObjb
librgw.so.2:_ZN12RGWAccessKey23generate_test_instancesERNSt7__cxx114listIPS_SaIS2_EEE
librgw.so.2:_ZN12RGWBucketEnt23generate_test_instancesERNSt7__cxx114listIPS_SaIS2_EEE
librgw.so.2:_ZN12RGWCoroutine12collect_nextEPiPP18RGWCoroutinesStack
librgw.so.2:_ZN12RGWCoroutine12set_sleepingEb
librgw.so.2:_ZN12RGWCoroutine14drain_childrenEiP18RGWCoroutinesStack
librgw.so.2:_ZN12RGWCoroutine14set_io_blockedEb
librgw.so.2:_ZN12RGWCoroutine14wait_for_childEv
librgw.so.2:_ZN12RGWCoroutine4callEPS_
librgw.so.2:_ZN12RGWCoroutine4waitERK7utime_t
librgw.so.2:_ZN12RGWCoroutine5spawnEPS_b
librgw.so.2:_ZN12RGWCoroutine6Status10set_statusB5cxx11Ev
librgw.so.2:_ZN12RGWCoroutine6wakeupEv
librgw.so.2:_ZN12RGWCoroutine7collectEPiP18RGWCoroutinesStack
librgw.so.2:_ZN12RGWCoroutine8io_blockEi
librgw.so.2:_ZN12RGWCoroutineD0Ev
librgw.so.2:_ZN12RGWCoroutineD1Ev
librgw.so.2:_ZN12RGWCoroutineD2Ev
librgw.so.2:_ZN12RGWDeleteObj17verify_permissionEv
librgw.so.2:_ZN12RGWDeleteObj19handle_slo_manifestERN4ceph6buffer4listE
librgw.so.2:_ZN12RGWDeleteObj7executeEv
librgw.so.2:_ZN12RGWDeleteObj8pre_execEv
librgw.so.2:_ZN12RGWMultiPart7xml_endEPKc
librgw.so.2:_ZN12RGWObjectCtx10invalidateER7rgw_obj
librgw.so.2:_ZN12RGWObjectCtx10set_atomicER7rgw_obj
librgw.so.2:_ZN12RGWObjectCtx17set_prefetch_dataER7rgw_obj
librgw.so.2:_ZN12RGWObjectCtx9get_stateER7rgw_obj
librgw.so.2:_ZN12RGWPeriodMap11decode_jsonEP7JSONObj
librgw.so.2:_ZN12RGWPeriodMap6decodeERN4ceph6buffer4list8iteratorE
librgw.so.2:_ZN12RGWPeriodMap6updateERK12RGWZoneGroupP11CephContext
librgw.so.2:_ZN12RGWPolicyEnv17match_policy_varsERSt3mapINSt7__cxx1112basic_stringIcSt11char_traitsIcESaIcEEEb12ltstr_nocaseSaISt4pairIKS6_bEEERS6_
librgw.so.2:_ZN12RGWPolicyEnv7add_varERKNSt7__cxx1112basic_stringIcSt11char_traitsIcESaIcEEES7_
librgw.so.2:_ZN12RGWPolicyEnv7get_varERKNSt7__cxx1112basic_stringIcSt11char_traitsIcESaIcEEERS5_
librgw.so.2:_ZN12RGWPolicyEnv9get_valueERKNSt7__cxx1112basic_stringIcSt11char_traitsIcESaIcEEERS5_RSt3mapIS5_b12ltstr_nocaseSaISt4pairIS6_bEEE
librgw.so.2:_ZN12RGWQuotaInfo11decode_jsonEP7JSONObj
librgw.so.2:_ZN12RGWRegionMap11decode_jsonEP7JSONObj
librgw.so.2:_ZN12RGWRegionMap6decodeERN4ceph6buffer4list8iteratorE
librgw.so.2:_ZN12RGWRestfulIO21grab_aws4_sha256_hashB5cxx11Ev
librgw.so.2:_ZN12RGWRestfulIO9recv_bodyEPcmb
librgw.so.2:_ZN12RGWStatObjCR12send_requestEv
librgw.so.2:_ZN12RGWStatObjCR15request_cleanupEv
librgw.so.2:_ZN12RGWStatObjCR16request_completeEv
librgw.so.2:_ZN12RGWStatObjCRC1EP22RGWAsyncRadosProcessorP8RGWRadosRK7rgw_objPmPNSt6chrono10time_pointIN4ceph11time_detail10real_clockENS8_8durationImSt5ratioILl1ELl1000000000EEEEEES7_P20RGWObjVersionTracker
librgw.so.2:_ZN12RGWStatObjCRC2EP22RGWAsyncRadosProcessorP8RGWRadosRK7rgw_objPmPNSt6chrono10time_pointIN4ceph11time_detail10real_clockENS8_8durationImSt5ratioILl1ELl1000000000EEEEEES7_P20RGWObjVersionTracker
librgw.so.2:_ZN12RGWXMLParser11handle_dataEPKci
librgw.so.2:_ZN12RGWXMLParser4initEv
librgw.so.2:_ZN12RGWXMLParser5parseEPKcii
librgw.so.2:_ZN12RGWXMLParser7xml_endEPKc
librgw.so.2:_ZN12RGWXMLParser9xml_startEPKcPS1_
librgw.so.2:_ZN12RGWXMLParserC1Ev
librgw.so.2:_ZN12RGWXMLParserC2Ev
librgw.so.2:_ZN12RGWXMLParserD0Ev
librgw.so.2:_ZN12RGWXMLParserD1Ev
librgw.so.2:_ZN12RGWXMLParserD2Ev
librgw.so.2:_ZN12RGWZoneGroup11decode_jsonEP7JSONObj
librgw.so.2:_ZN12RGWZoneGroup11remove_zoneERKNSt7__cxx1112basic_stringIcSt11char_traitsIcESaIcEEE
librgw.so.2:_ZN12RGWZoneGroup11rename_zoneERK13RGWZoneParams
librgw.so.2:_ZN12RGWZoneGroup13get_pool_nameB5cxx11EP11CephContext
librgw.so.2:_ZN12RGWZoneGroup14create_defaultEb
librgw.so.2:_ZN12RGWZoneGroup14set_as_defaultEb
librgw.so.2:_ZN12RGWZoneGroup15get_default_oidB5cxx11Eb
librgw.so.2:_ZN12RGWZoneGroup15read_default_idERNSt7__cxx1112basic_stringIcSt11char_traitsIcESaIcEEEb
librgw.so.2:_ZN12RGWZoneGroup19get_info_oid_prefixB5cxx11Eb
librgw.so.2:_ZN12RGWZoneGroup19get_predefined_nameB5cxx11EP11CephContext
librgw.so.2:_ZN12RGWZoneGroup19post_process_paramsEv
librgw.so.2:_ZN12RGWZoneGroup20get_names_oid_prefixB5cxx11Ev
librgw.so.2:_ZN12RGWZoneGroup23generate_test_instancesERNSt7__cxx114listIPS_SaIS2_EEE
librgw.so.2:_ZN12RGWZoneGroup8add_zoneERK13RGWZoneParamsPbS3_RKNSt7__cxx114listINS4_12basic_stringIcSt11char_traitsIcESaIcEEESaISA_EEEPKSA_S3_RSC_SH_
librgw.so.2:_ZN13ACLPermission23generate_test_instancesERNSt7__cxx114listIPS_SaIS2_EEE
librgw.so.2:_ZN13CrushLocation15init_on_startupEv
librgw.so.2:_ZN13CrushLocation16update_from_confEv
librgw.so.2:_ZN13CrushLocation16update_from_hookEv
librgw.so.2:_ZN13CrushLocation6_parseERKNSt7__cxx1112basic_stringIcSt11char_traitsIcESaIcEEE
librgw.so.2:_ZN13CryptoHandler6createEi
librgw.so.2:_ZN13KeystoneToken11decode_jsonEP7JSONObj
librgw.so.2:_ZN13KeystoneToken4Role11decode_jsonEP7JSONObj
librgw.so.2:_ZN13KeystoneToken4User11decode_jsonEP7JSONObj
librgw.so.2:_ZN13KeystoneToken5Token11decode_jsonEP7JSONObj
librgw.so.2:_ZN13KeystoneToken5parseEP11CephContextRKNSt7__cxx1112basic_stringIcSt11char_traitsIcESaIcEEERN4ceph6buffer4listE
librgw.so.2:_ZN13KeystoneToken6Domain11decode_jsonEP7JSONObj
librgw.so.2:_ZN13KeystoneToken7Project11decode_jsonEP7JSONObj
librgw.so.2:_ZN13RGWBucketInfo11decode_jsonEP7JSONObj
librgw.so.2:_ZN13RGWBucketInfo23generate_test_instancesERNSt7__cxx114listIPS_SaIS2_EEE
librgw.so.2:_ZN13RGWBulkDelete17verify_permissionEv
librgw.so.2:_ZN13RGWBulkDelete7Deleter12delete_chunkERKNSt7__cxx114listINS_11acct_path_tESaIS3_EEE
librgw.so.2:_ZN13RGWBulkDelete7Deleter13delete_singleERKNS_11acct_path_tE
librgw.so.2:_ZN13RGWBulkDelete7Deleter17verify_permissionER13RGWBucketInfoRSt3mapINSt7__cxx1112basic_stringIcSt11char_traitsIcESaIcEEEN4ceph6buffer4listESt4lessIS9_ESaISt4pairIKS9_SC_EEER8ACLOwner
librgw.so.2:_ZN13RGWBulkDelete7executeEv
librgw.so.2:_ZN13RGWBulkDelete8pre_execEv
librgw.so.2:_ZN13RGWDeleteCORS17verify_permissionEv
librgw.so.2:_ZN13RGWDeleteCORS7executeEv
librgw.so.2:_ZN13RGWHTTPClient12init_requestEPKcS1_P17rgw_http_req_data
librgw.so.2:_ZN13RGWHTTPClient14send_http_dataEPvmmS0_
librgw.so.2:_ZN13RGWHTTPClient15get_req_retcodeEv
librgw.so.2:_ZN13RGWHTTPClient17receive_http_dataEPvmmS0_
librgw.so.2:_ZN13RGWHTTPClient19receive_http_headerEPvmmS0_
librgw.so.2:_ZN13RGWHTTPClient21simple_send_http_dataEPvmmS0_
librgw.so.2:_ZN13RGWHTTPClient24simple_receive_http_dataEPvmmS0_
librgw.so.2:_ZN13RGWHTTPClient26simple_receive_http_headerEPvmmS0_
librgw.so.2:_ZN13RGWHTTPClient4waitEv
librgw.so.2:_ZN13RGWHTTPClient6to_strB5cxx11Ev
librgw.so.2:_ZN13RGWHTTPClient7processEPKcS1_
librgw.so.2:_ZN13RGWHTTPClientD0Ev
librgw.so.2:_ZN13RGWHTTPClientD1Ev
librgw.so.2:_ZN13RGWHTTPClientD2Ev
librgw.so.2:_ZN13RGWListBucket14parse_max_keysEv
librgw.so.2:_ZN13RGWListBucket17verify_permissionEv
librgw.so.2:_ZN13RGWListBucket7executeEv
librgw.so.2:_ZN13RGWListBucket8pre_execEv
librgw.so.2:_ZN13RGWOmapAppend13flush_pendingEv
librgw.so.2:_ZN13RGWOmapAppend6appendERKNSt7__cxx1112basic_stringIcSt11char_traitsIcESaIcEEE
librgw.so.2:_ZN13RGWOmapAppend6finishEv
librgw.so.2:_ZN13RGWOmapAppend7operateEv
librgw.so.2:_ZN13RGWOmapAppendC1EP22RGWAsyncRadosProcessorP8RGWRadosR10rgw_bucketRKNSt7__cxx1112basic_stringIcSt11char_traitsIcESaIcEEEm
librgw.so.2:_ZN13RGWOmapAppendC2EP22RGWAsyncRadosProcessorP8RGWRadosR10rgw_bucketRKNSt7__cxx1112basic_stringIcSt11char_traitsIcESaIcEEEm
librgw.so.2:_ZN13RGWRESTMgr_S311get_handlerEP9req_stateRKNSt7__cxx1112basic_stringIcSt11char_traitsIcESaIcEEE
librgw.so.2:_ZN13RGWStatBucket17verify_permissionEv
librgw.so.2:_ZN13RGWStatBucket7executeEv
librgw.so.2:_ZN13RGWStatBucket8pre_execEv
librgw.so.2:_ZN13RGWZoneParams11decode_jsonEP7JSONObj
librgw.so.2:_ZN13RGWZoneParams13get_pool_nameB5cxx11EP11CephContext
librgw.so.2:_ZN13RGWZoneParams14create_defaultEb
librgw.so.2:_ZN13RGWZoneParams14fix_pool_namesEv
librgw.so.2:_ZN13RGWZoneParams14set_as_defaultEb
librgw.so.2:_ZN13RGWZoneParams15get_default_oidB5cxx11Eb
librgw.so.2:_ZN13RGWZoneParams15read_default_idERNSt7__cxx1112basic_stringIcSt11char_traitsIcESaIcEEEb
librgw.so.2:_ZN13RGWZoneParams19get_info_oid_prefixB5cxx11Eb
librgw.so.2:_ZN13RGWZoneParams19get_predefined_nameB5cxx11EP11CephContext
librgw.so.2:_ZN13RGWZoneParams20get_names_oid_prefixB5cxx11Ev
librgw.so.2:_ZN13RGWZoneParams23generate_test_instancesERNSt7__cxx114listIPS_SaIS2_EEE
librgw.so.2:_ZN13RGWZoneParams4initEP11CephContextP8RGWRadosbb
librgw.so.2:_ZN13RGWZoneParams6createEb
librgw.so.2:_ZN13SignalHandler16register_handlerEiPFviEb
librgw.so.2:_ZN13SignalHandler18unregister_handlerEiPFviE
librgw.so.2:_ZN13entity_addr_t23generate_test_instancesERNSt7__cxx114listIPS_SaIS2_EEE
librgw.so.2:_ZN13entity_addr_t5parseEPKcPS1_
librgw.so.2:_ZN13entity_inst_t23generate_test_instancesERNSt7__cxx114listIPS_SaIS2_EEE
librgw.so.2:_ZN13entity_name_t23generate_test_instancesERNSt7__cxx114listIPS_SaIS2_EEE
librgw.so.2:_ZN13rgw_log_entry23generate_test_instancesERNSt7__cxx114listIPS_SaIS2_EEE
librgw.so.2:_ZN13rgw_slo_entry11decode_jsonEP7JSONObj
librgw.so.2:_ZN14ACLGranteeType23generate_test_instancesERNSt7__cxx114listIPS_SaIS2_EEE
librgw.so.2:_ZN14ObjectMetaInfo23generate_test_instancesERNSt7__cxx114listIPS_SaIS2_EEE
librgw.so.2:_ZN14RGWCORSRule_S36to_xmlERN4ceph12XMLFormatterE
librgw.so.2:_ZN14RGWCORSRule_S37xml_endEPKc
librgw.so.2:_ZN14RGWHTTPManager10ReqsThread5entryEv
librgw.so.2:_ZN14RGWHTTPManager11add_requestEP13RGWHTTPClientPKcS3_
librgw.so.2:_ZN14RGWHTTPManager12link_requestEP17rgw_http_req_data
librgw.so.2:_ZN14RGWHTTPManager12set_threadedEv
librgw.so.2:_ZN14RGWHTTPManager13signal_threadEv
librgw.so.2:_ZN14RGWHTTPManager14finish_requestEP17rgw_http_req_datai
librgw.so.2:_ZN14RGWHTTPManager14remove_requestEP13RGWHTTPClient
librgw.so.2:_ZN14RGWHTTPManager14unlink_requestEP17rgw_http_req_data
librgw.so.2:_ZN14RGWHTTPManager15_finish_requestEP17rgw_http_req_datai
librgw.so.2:_ZN14RGWHTTPManager15_unlink_requestEP17rgw_http_req_data
librgw.so.2:_ZN14RGWHTTPManager16complete_requestEP17rgw_http_req_data
librgw.so.2:_ZN14RGWHTTPManager16process_requestsEbPb
librgw.so.2:_ZN14RGWHTTPManager16register_requestEP17rgw_http_req_data
librgw.so.2:_ZN14RGWHTTPManager17_complete_requestEP17rgw_http_req_data
librgw.so.2:_ZN14RGWHTTPManager17complete_requestsEv
librgw.so.2:_ZN14RGWHTTPManager17reqs_thread_entryEv
librgw.so.2:_ZN14RGWHTTPManager18unregister_requestEP17rgw_http_req_data
librgw.so.2:_ZN14RGWHTTPManager23manage_pending_requestsEv
librgw.so.2:_ZN14RGWHTTPManager4stopEv
librgw.so.2:_ZN14RGWHTTPManagerC1EP11CephContextP20RGWCompletionManager
librgw.so.2:_ZN14RGWHTTPManagerC2EP11CephContextP20RGWCompletionManager
librgw.so.2:_ZN14RGWHTTPManagerD1Ev
librgw.so.2:_ZN14RGWHTTPManagerD2Ev
librgw.so.2:_ZN14RGWListBuckets17verify_permissionEv
librgw.so.2:_ZN14RGWListBuckets7executeEv
librgw.so.2:_ZN14RGWMetaSyncEnv10status_oidB5cxx11Ev
librgw.so.2:_ZN14RGWMetaSyncEnv14shard_obj_nameB5cxx11Ei
librgw.so.2:_ZN14RGWMetaSyncEnv4initEP11CephContextP8RGWRadosP11RGWRESTConnP22RGWAsyncRadosProcessorP14RGWHTTPManagerP18RGWSyncErrorLogger
librgw.so.2:_ZN14RGWMetadataLog12list_entriesEPviRNSt7__cxx114listI13cls_log_entrySaIS3_EEEPNS1_12basic_stringIcSt11char_traitsIcESaIcEEEPb
librgw.so.2:_ZN14RGWMetadataLog13mark_modifiedEi
librgw.so.2:_ZN14RGWMetadataLog14get_info_asyncEiP28RGWMetadataLogInfoCompletion
librgw.so.2:_ZN14RGWMetadataLog14lock_exclusiveEiNSt6chrono8durationImSt5ratioILl1ELl1000000000EEEERNSt7__cxx1112basic_stringIcSt11char_traitsIcESaIcEEESB_
librgw.so.2:_ZN14RGWMetadataLog17init_list_entriesEiRKNSt6chrono10time_pointIN4ceph11time_detail10real_clockENS0_8durationImSt5ratioILl1ELl1000000000EEEEEESB_RNSt7__cxx1112basic_stringIcSt11char_traitsIcESaIcEEEPPv
librgw.so.2:_ZN14RGWMetadataLog19read_clear_modifiedERSt3setIiSt4lessIiESaIiEE
librgw.so.2:_ZN14RGWMetadataLog21complete_list_entriesEPv
librgw.so.2:_ZN14RGWMetadataLog22store_entries_in_shardERNSt7__cxx114listI13cls_log_entrySaIS2_EEEiPN8librados13AioCompletionE
librgw.so.2:_ZN14RGWMetadataLog4trimEiRKNSt6chrono10time_pointIN4ceph11time_detail10real_clockENS0_8durationImSt5ratioILl1ELl1000000000EEEEEESB_RKNSt7__cxx1112basic_stringIcSt11char_traitsIcESaIcEEESJ_
librgw.so.2:_ZN14RGWMetadataLog6unlockEiRNSt7__cxx1112basic_stringIcSt11char_traitsIcESaIcEEES6_
librgw.so.2:_ZN14RGWMetadataLog8get_infoEiP18RGWMetadataLogInfo
librgw.so.2:_ZN14RGWMetadataLog9add_entryEP18RGWMetadataHandlerRKNSt7__cxx1112basic_stringIcSt11char_traitsIcESaIcEEES9_RN4ceph6buffer4listE
librgw.so.2:_ZN14RGWObjManifest12append_rulesERS_RSt17_Rb_tree_iteratorISt4pairIKm18RGWObjManifestRuleEEPNSt7__cxx1112basic_stringIcSt11char_traitsIcESaIcEEE
librgw.so.2:_ZN14RGWObjManifest12obj_iterator15update_locationEv
librgw.so.2:_ZN14RGWObjManifest12obj_iterator19update_explicit_posEv
librgw.so.2:_ZN14RGWObjManifest12obj_iterator4seekEm
librgw.so.2:_ZN14RGWObjManifest12obj_iteratorppEv
librgw.so.2:_ZN14RGWObjManifest15append_explicitERS_
librgw.so.2:_ZN14RGWObjManifest19convert_to_explicitEv
librgw.so.2:_ZN14RGWObjManifest21get_implicit_locationEmmmPNSt7__cxx1112basic_stringIcSt11char_traitsIcESaIcEEEP7rgw_obj
librgw.so.2:_ZN14RGWObjManifest23generate_test_instancesERNSt7__cxx114listIPS_SaIS2_EEE
librgw.so.2:_ZN14RGWObjManifest6appendERS_
librgw.so.2:_ZN14RGWObjManifest7obj_endEv
librgw.so.2:_ZN14RGWObjManifest8get_ruleEmP18RGWObjManifestRule
librgw.so.2:_ZN14RGWObjManifest8obj_findEm
librgw.so.2:_ZN14RGWObjManifest9generator11create_nextEm
librgw.so.2:_ZN14RGWObjManifest9generator12create_beginEP11CephContextPS_R10rgw_bucketR7rgw_obj
librgw.so.2:_ZN14RGWObjManifest9obj_beginEv
librgw.so.2:_ZN14RGWOptionsCORS19get_response_paramsERNSt7__cxx1112basic_stringIcSt11char_traitsIcESaIcEEES6_Pj
librgw.so.2:_ZN14RGWOptionsCORS21validate_cors_requestEP20RGWCORSConfiguration
librgw.so.2:_ZN14RGWOptionsCORS7executeEv
librgw.so.2:_ZN14RGWRESTFlusher8do_flushEv
librgw.so.2:_ZN14RGWRESTFlusher8do_startEi
librgw.so.2:_ZN14RGWRadosThread4stopEv
librgw.so.2:_ZN14RGWRadosThread5startEv
librgw.so.2:_ZN14RGWRadosThread6Worker5entryEv
librgw.so.2:_ZN14RGWStatAccount17verify_permissionEv
librgw.so.2:_ZN14RGWStatAccount7executeEv
librgw.so.2:_ZN14RGWSubUserPool11execute_addER19RGWUserAdminOpStatePNSt7__cxx1112basic_stringIcSt11char_traitsIcESaIcEEEb
librgw.so.2:_ZN14RGWSubUserPool14execute_modifyER19RGWUserAdminOpStatePNSt7__cxx1112basic_stringIcSt11char_traitsIcESaIcEEEb
librgw.so.2:_ZN14RGWSubUserPool14execute_removeER19RGWUserAdminOpStatePNSt7__cxx1112basic_stringIcSt11char_traitsIcESaIcEEEb
librgw.so.2:_ZN14RGWSubUserPool3addER19RGWUserAdminOpStatePNSt7__cxx1112basic_stringIcSt11char_traitsIcESaIcEEE
librgw.so.2:_ZN14RGWSubUserPool3addER19RGWUserAdminOpStatePNSt7__cxx1112basic_stringIcSt11char_traitsIcESaIcEEEb
librgw.so.2:_ZN14RGWSubUserPool4initER19RGWUserAdminOpState
librgw.so.2:_ZN14RGWSubUserPool6existsENSt7__cxx1112basic_stringIcSt11char_traitsIcESaIcEEE
librgw.so.2:_ZN14RGWSubUserPool6modifyER19RGWUserAdminOpStatePNSt7__cxx1112basic_stringIcSt11char_traitsIcESaIcEEE
librgw.so.2:_ZN14RGWSubUserPool6modifyER19RGWUserAdminOpStatePNSt7__cxx1112basic_stringIcSt11char_traitsIcESaIcEEEb
librgw.so.2:_ZN14RGWSubUserPool6removeER19RGWUserAdminOpStatePNSt7__cxx1112basic_stringIcSt11char_traitsIcESaIcEEE
librgw.so.2:_ZN14RGWSubUserPool6removeER19RGWUserAdminOpStatePNSt7__cxx1112basic_stringIcSt11char_traitsIcESaIcEEEb
librgw.so.2:_ZN14RGWSubUserPool8check_opER19RGWUserAdminOpStatePNSt7__cxx1112basic_stringIcSt11char_traitsIcESaIcEEE
librgw.so.2:_ZN14RGWSubUserPoolC1EP7RGWUser
librgw.so.2:_ZN14RGWSubUserPoolC2EP7RGWUser
librgw.so.2:_ZN14RGWSubUserPoolD1Ev
librgw.so.2:_ZN14RGWSubUserPoolD2Ev
librgw.so.2:_ZN14RGWSyncBackoff13backoff_sleepEv
librgw.so.2:_ZN14RGWSyncBackoff16update_wait_timeEv
librgw.so.2:_ZN14RGWSyncBackoff7backoffEP12RGWCoroutine
librgw.so.2:_ZN14RGWUserCapPool3addER19RGWUserAdminOpStatePNSt7__cxx1112basic_stringIcSt11char_traitsIcESaIcEEE
librgw.so.2:_ZN14RGWUserCapPool3addER19RGWUserAdminOpStatePNSt7__cxx1112basic_stringIcSt11char_traitsIcESaIcEEEb
librgw.so.2:_ZN14RGWUserCapPool4initER19RGWUserAdminOpState
librgw.so.2:_ZN14RGWUserCapPool6removeER19RGWUserAdminOpStatePNSt7__cxx1112basic_stringIcSt11char_traitsIcESaIcEEE
librgw.so.2:_ZN14RGWUserCapPool6removeER19RGWUserAdminOpStatePNSt7__cxx1112basic_stringIcSt11char_traitsIcESaIcEEEb
librgw.so.2:_ZN14RGWUserCapPoolC1EP7RGWUser
librgw.so.2:_ZN14RGWUserCapPoolC2EP7RGWUser
librgw.so.2:_ZN14RGWUserCapPoolD1Ev
librgw.so.2:_ZN14RGWUserCapPoolD2Ev
librgw.so.2:_ZN14SimpleThrottle12wait_for_retEv
librgw.so.2:_ZN14SimpleThrottle6end_opEi
librgw.so.2:_ZN14SimpleThrottle8start_opEv
librgw.so.2:_ZN14SimpleThrottleC1Emb
librgw.so.2:_ZN14SimpleThrottleC2Emb
librgw.so.2:_ZN14SimpleThrottleD1Ev
librgw.so.2:_ZN14SimpleThrottleD2Ev
librgw.so.2:_ZN14rgw_bucket_dir23generate_test_instancesERNSt7__cxx114listIPS_SaIS2_EEE
librgw.so.2:_ZN14rgw_mdlog_info11decode_jsonEP7JSONObj
librgw.so.2:_ZN15BackoffThrottle10set_paramsEdddddmPSo
librgw.so.2:_ZN15BackoffThrottle11get_currentEv
librgw.so.2:_ZN15BackoffThrottle3getEm
librgw.so.2:_ZN15BackoffThrottle3putEm
librgw.so.2:_ZN15BackoffThrottle4takeEm
librgw.so.2:_ZN15BackoffThrottle7get_maxEv
librgw.so.2:_ZN15KeystoneService15get_api_versionEv
librgw.so.2:_ZN15KeystoneService16get_keystone_urlEP11CephContextRNSt7__cxx1112basic_stringIcSt11char_traitsIcESaIcEEE
librgw.so.2:_ZN15KeystoneService24get_keystone_admin_tokenEP11CephContextRNSt7__cxx1112basic_stringIcSt11char_traitsIcESaIcEEE
librgw.so.2:_ZN15LCExpiration_S37xml_endEPKc
librgw.so.2:_ZN15ObjectCacheInfo23generate_test_instancesERNSt7__cxx114listIPS_SaIS2_EEE
librgw.so.2:_ZN15OrderedThrottle12wait_for_retEv
librgw.so.2:_ZN15OrderedThrottle20complete_pending_opsEv
librgw.so.2:_ZN15OrderedThrottle6end_opEi
librgw.so.2:_ZN15OrderedThrottle8start_opEP7Context
librgw.so.2:_ZN15OrderedThrottle9finish_opEmi
librgw.so.2:_ZN15OrderedThrottleC1Emb
librgw.so.2:_ZN15OrderedThrottleC2Emb
librgw.so.2:_ZN15RGWAsyncStatObj13_send_requestEv
librgw.so.2:_ZN15RGWCreateBucket17verify_permissionEv
librgw.so.2:_ZN15RGWCreateBucket7executeEv
librgw.so.2:_ZN15RGWCreateBucket8pre_execEv
librgw.so.2:_ZN15RGWDataNotifier7processEv
librgw.so.2:_ZN15RGWDeleteBucket17verify_permissionEv
librgw.so.2:_ZN15RGWDeleteBucket7executeEv
librgw.so.2:_ZN15RGWDeleteBucket8pre_execEv
librgw.so.2:_ZN15RGWHandler_REST16init_permissionsEP5RGWOp
librgw.so.2:_ZN15RGWHandler_REST16read_permissionsEP5RGWOp
librgw.so.2:_ZN15RGWHandler_REST18allocate_formatterEP9req_stateib
librgw.so.2:_ZN15RGWHandler_REST20validate_bucket_nameERKNSt7__cxx1112basic_stringIcSt11char_traitsIcESaIcEEE
librgw.so.2:_ZN15RGWHandler_REST20validate_object_nameERKNSt7__cxx1112basic_stringIcSt11char_traitsIcESaIcEEE
librgw.so.2:_ZN15RGWHandler_REST20validate_tenant_nameERKNSt7__cxx1112basic_stringIcSt11char_traitsIcESaIcEEE
librgw.so.2:_ZN15RGWHandler_REST6get_opEP8RGWRados
librgw.so.2:_ZN15RGWHandler_REST6put_opEP5RGWOp
librgw.so.2:_ZN15RGWMetaNotifier7processEv
librgw.so.2:_ZN15RGWPeriodConfig11decode_jsonEP7JSONObj
librgw.so.2:_ZN15RGWPeriodPuller4pullERKNSt7__cxx1112basic_stringIcSt11char_traitsIcESaIcEEER9RGWPeriod
librgw.so.2:_ZN15RGWQuotaHandler12free_handlerEPS_
librgw.so.2:_ZN15RGWQuotaHandler16generate_handlerEP8RGWRadosb
librgw.so.2:_ZN15RGWRedirectInfo11decode_jsonEP7JSONObj
librgw.so.2:_ZN15RGWStoreManager13close_storageEP8RGWRados
librgw.so.2:_ZN15RGWStoreManager21init_storage_providerEP11CephContextbbbb
librgw.so.2:_ZN15RGWStoreManager25init_raw_storage_providerEP11CephContext
librgw.so.2:_ZN15RGWZoneGroupMap11decode_jsonEP7JSONObj
librgw.so.2:_ZN15RGWZoneGroupMap4readEP11CephContextP8RGWRados
librgw.so.2:_ZN15RGWZoneGroupMap6decodeERN4ceph6buffer4list8iteratorE
librgw.so.2:_ZN15cls_rgw_obj_key11decode_jsonEP7JSONObj
librgw.so.2:_ZN15rgw_data_change11decode_jsonEP7JSONObj
librgw.so.2:_ZN15rgw_mdlog_entry11decode_jsonEP7JSONObj
librgw.so.2:_ZN16ACLPermission_S36to_xmlERSo
librgw.so.2:_ZN16ACLPermission_S37xml_endEPKc
librgw.so.2:_ZN16OutputDataSocket13append_outputERN4ceph6buffer4listE
librgw.so.2:_ZN16OutputDataSocket15bind_and_listenERKNSt7__cxx1112basic_stringIcSt11char_traitsIcESaIcEEEPi
librgw.so.2:_ZN16OutputDataSocket16close_connectionEi
librgw.so.2:_ZN16OutputDataSocket17handle_connectionEi
librgw.so.2:_ZN16OutputDataSocket20create_shutdown_pipeB5cxx11EPiS0_
librgw.so.2:_ZN16OutputDataSocket4initERKNSt7__cxx1112basic_stringIcSt11char_traitsIcESaIcEEE
librgw.so.2:_ZN16OutputDataSocket5entryEv
librgw.so.2:_ZN16OutputDataSocket8shutdownEv
librgw.so.2:_ZN16OutputDataSocket9do_acceptEv
librgw.so.2:_ZN16OutputDataSocket9dump_dataEi
librgw.so.2:_ZN16OutputDataSocketC1EP11CephContextm
librgw.so.2:_ZN16OutputDataSocketC2EP11CephContextm
librgw.so.2:_ZN16OutputDataSocketD0Ev
librgw.so.2:_ZN16OutputDataSocketD1Ev
librgw.so.2:_ZN16OutputDataSocketD2Ev
librgw.so.2:_ZN16RGWAccessKeyPool10modify_keyER19RGWUserAdminOpStatePNSt7__cxx1112basic_stringIcSt11char_traitsIcESaIcEEE
librgw.so.2:_ZN16RGWAccessKeyPool11execute_addER19RGWUserAdminOpStatePNSt7__cxx1112basic_stringIcSt11char_traitsIcESaIcEEEb
librgw.so.2:_ZN16RGWAccessKeyPool12generate_keyER19RGWUserAdminOpStatePNSt7__cxx1112basic_stringIcSt11char_traitsIcESaIcEEE
librgw.so.2:_ZN16RGWAccessKeyPool14execute_removeER19RGWUserAdminOpStatePNSt7__cxx1112basic_stringIcSt11char_traitsIcESaIcEEEb
librgw.so.2:_ZN16RGWAccessKeyPool18check_existing_keyER19RGWUserAdminOpState
librgw.so.2:_ZN16RGWAccessKeyPool19remove_subuser_keysER19RGWUserAdminOpStatePNSt7__cxx1112basic_stringIcSt11char_traitsIcESaIcEEEb
librgw.so.2:_ZN16RGWAccessKeyPool3addER19RGWUserAdminOpStatePNSt7__cxx1112basic_stringIcSt11char_traitsIcESaIcEEE
librgw.so.2:_ZN16RGWAccessKeyPool3addER19RGWUserAdminOpStatePNSt7__cxx1112basic_stringIcSt11char_traitsIcESaIcEEEb
librgw.so.2:_ZN16RGWAccessKeyPool4initER19RGWUserAdminOpState
librgw.so.2:_ZN16RGWAccessKeyPool6removeER19RGWUserAdminOpStatePNSt7__cxx1112basic_stringIcSt11char_traitsIcESaIcEEE
librgw.so.2:_ZN16RGWAccessKeyPool6removeER19RGWUserAdminOpStatePNSt7__cxx1112basic_stringIcSt11char_traitsIcESaIcEEEb
librgw.so.2:_ZN16RGWAccessKeyPool8check_opER19RGWUserAdminOpStatePNSt7__cxx1112basic_stringIcSt11char_traitsIcESaIcEEE
librgw.so.2:_ZN16RGWAccessKeyPoolC1EP7RGWUser
librgw.so.2:_ZN16RGWAccessKeyPoolC2EP7RGWUser
librgw.so.2:_ZN16RGWAccessKeyPoolD1Ev
librgw.so.2:_ZN16RGWAccessKeyPoolD2Ev
librgw.so.2:_ZN16RGWBWRoutingRule10apply_ruleERKNSt7__cxx1112basic_stringIcSt11char_traitsIcESaIcEEES7_S7_PS5_Pi
librgw.so.2:_ZN16RGWBWRoutingRule10decode_xmlEP6XMLObj
librgw.so.2:_ZN16RGWBWRoutingRule11decode_jsonEP7JSONObj
librgw.so.2:_ZN16RGWBucketAdminOp10get_policyEP8RGWRadosR21RGWBucketAdminOpStateR19RGWFormatterFlusher
librgw.so.2:_ZN16RGWBucketAdminOp10get_policyEP8RGWRadosR21RGWBucketAdminOpStateR22RGWAccessControlPolicy
librgw.so.2:_ZN16RGWBucketAdminOp11check_indexEP8RGWRadosR21RGWBucketAdminOpStateR19RGWFormatterFlusher
librgw.so.2:_ZN16RGWBucketAdminOp13remove_bucketEP8RGWRadosR21RGWBucketAdminOpStatebb
librgw.so.2:_ZN16RGWBucketAdminOp13remove_objectEP8RGWRadosR21RGWBucketAdminOpState
librgw.so.2:_ZN16RGWBucketAdminOp14dump_s3_policyEP8RGWRadosR21RGWBucketAdminOpStateRSo
librgw.so.2:_ZN16RGWBucketAdminOp4infoEP8RGWRadosR21RGWBucketAdminOpStateR19RGWFormatterFlusher
librgw.so.2:_ZN16RGWBucketAdminOp4linkEP8RGWRadosR21RGWBucketAdminOpStatePNSt7__cxx1112basic_stringIcSt11char_traitsIcESaIcEEE
librgw.so.2:_ZN16RGWBucketAdminOp6unlinkEP8RGWRadosR21RGWBucketAdminOpState
librgw.so.2:_ZN16RGWInitMultipart17verify_permissionEv
librgw.so.2:_ZN16RGWInitMultipart7executeEv
librgw.so.2:_ZN16RGWInitMultipart8pre_execEv
librgw.so.2:_ZN16RGWListMultipart17verify_permissionEv
librgw.so.2:_ZN16RGWListMultipart7executeEv
librgw.so.2:_ZN16RGWListMultipart8pre_execEv
librgw.so.2:_ZN16RGWLogSyncModule15create_instanceEP11CephContextRSt3mapINSt7__cxx1112basic_stringIcSt11char_traitsIcESaIcEEES8_St4lessIS8_ESaISt4pairIKS8_S8_EEEPSt10shared_ptrI21RGWSyncModuleInstanceE
librgw.so.2:_ZN16RGWObjectExpirer10going_downEv
librgw.so.2:_ZN16RGWObjectExpirer10trim_chunkERKNSt7__cxx1112basic_stringIcSt11char_traitsIcESaIcEEERK7utime_tSA_S7_S7_
librgw.so.2:_ZN16RGWObjectExpirer13garbage_chunkERNSt7__cxx114listI19cls_timeindex_entrySaIS2_EEERb
librgw.so.2:_ZN16RGWObjectExpirer14stop_processorEv
librgw.so.2:_ZN16RGWObjectExpirer15start_processorEv
librgw.so.2:_ZN16RGWObjectExpirer16init_bucket_infoERKNSt7__cxx1112basic_stringIcSt11char_traitsIcESaIcEEES7_S7_R13RGWBucketInfo
librgw.so.2:_ZN16RGWObjectExpirer18inspect_all_shardsERK7utime_tS2_
librgw.so.2:_ZN16RGWObjectExpirer20process_single_shardERKNSt7__cxx1112basic_stringIcSt11char_traitsIcESaIcEEERK7utime_tSA_
librgw.so.2:_ZN16RGWObjectExpirer21garbage_single_objectER17objexp_hint_entry
librgw.so.2:_ZN16RGWObjectExpirer8OEWorker4stopEv
librgw.so.2:_ZN16RGWObjectExpirer8OEWorker5entryEv
librgw.so.2:_ZN16RGWPeriodHistory4Impl11make_cursorEN5boost9intrusive13tree_iteratorINS2_8bhtraitsINS_7HistoryENS2_19avltree_node_traitsIPvLb0EEELNS2_14link_mode_typeE1ENS2_7dft_tagELj5EEELb1EEEj
librgw.so.2:_ZN16RGWPeriodHistory4Impl13insert_lockedEO9RGWPeriod
librgw.so.2:_ZN16RGWPeriodHistory4Impl5mergeEN5boost9intrusive13tree_iteratorINS2_8bhtraitsINS_7HistoryENS2_19avltree_node_traitsIPvLb0EEELNS2_14link_mode_typeE1ENS2_7dft_tagELj5EEELb0EEESC_
librgw.so.2:_ZN16RGWPeriodHistory4Impl6attachEO9RGWPeriod
librgw.so.2:_ZN16RGWPeriodHistory4Impl6insertEO9RGWPeriod
librgw.so.2:_ZN16RGWPeriodHistory4Impl6lookupEj
librgw.so.2:_ZN16RGWPeriodHistory4ImplC1EP11CephContextPNS_6PullerERK9RGWPeriod
librgw.so.2:_ZN16RGWPeriodHistory4ImplC2EP11CephContextPNS_6PullerERK9RGWPeriod
librgw.so.2:_ZN16RGWPeriodHistory4ImplD1Ev
librgw.so.2:_ZN16RGWPeriodHistory4ImplD2Ev
librgw.so.2:_ZN16RGWPeriodHistory6attachEO9RGWPeriod
librgw.so.2:_ZN16RGWPeriodHistory6insertEO9RGWPeriod
librgw.so.2:_ZN16RGWPeriodHistory6lookupEj
librgw.so.2:_ZN16RGWPeriodHistoryC1EP11CephContextPNS_6PullerERK9RGWPeriod
librgw.so.2:_ZN16RGWPeriodHistoryC2EP11CephContextPNS_6PullerERK9RGWPeriod
librgw.so.2:_ZN16RGWPeriodHistoryD1Ev
librgw.so.2:_ZN16RGWPeriodHistoryD2Ev
librgw.so.2:_ZN16RGWRemoteDataLog13read_log_infoEP16rgw_datalog_info
librgw.so.2:_ZN16RGWRemoteDataLog14get_shard_infoEi
librgw.so.2:_ZN16RGWRemoteDataLog16init_sync_statusEi
librgw.so.2:_ZN16RGWRemoteDataLog16read_sync_statusEP20rgw_data_sync_status
librgw.so.2:_ZN16RGWRemoteDataLog27read_source_log_shards_infoEPSt3mapIi21RGWDataChangesLogInfoSt4lessIiESaISt4pairIKiS1_EEE
librgw.so.2:_ZN16RGWRemoteDataLog27read_source_log_shards_nextESt3mapIiNSt7__cxx1112basic_stringIcSt11char_traitsIcESaIcEEESt4lessIiESaISt4pairIKiS6_EEEPS0_Ii22rgw_datalog_shard_dataS8_SaIS9_ISA_SE_EEE
librgw.so.2:_ZN16RGWRemoteDataLog4initERKNSt7__cxx1112basic_stringIcSt11char_traitsIcESaIcEEEP11RGWRESTConnP18RGWSyncErrorLoggerRSt10shared_ptrI21RGWSyncModuleInstanceE
librgw.so.2:_ZN16RGWRemoteDataLog6finishEv
librgw.so.2:_ZN16RGWRemoteDataLog6wakeupEiRSt3setINSt7__cxx1112basic_stringIcSt11char_traitsIcESaIcEEESt4lessIS6_ESaIS6_EE
librgw.so.2:_ZN16RGWRemoteDataLog8run_syncEi
librgw.so.2:_ZN16RGWRemoteMetaLog13init_sync_envEP14RGWMetaSyncEnv
librgw.so.2:_ZN16RGWRemoteMetaLog13read_log_infoEP14rgw_mdlog_info
librgw.so.2:_ZN16RGWRemoteMetaLog15store_sync_infoEv
librgw.so.2:_ZN16RGWRemoteMetaLog16init_sync_statusEv
librgw.so.2:_ZN16RGWRemoteMetaLog16read_sync_statusEv
librgw.so.2:_ZN16RGWRemoteMetaLog27read_master_log_shards_infoEPNSt7__cxx1112basic_stringIcSt11char_traitsIcESaIcEEEPSt3mapIi18RGWMetadataLogInfoSt4lessIiESaISt4pairIKiS8_EEE
librgw.so.2:_ZN16RGWRemoteMetaLog27read_master_log_shards_nextERKNSt7__cxx1112basic_stringIcSt11char_traitsIcESaIcEEESt3mapIiS5_St4lessIiESaISt4pairIKiS5_EEEPS8_Ii20rgw_mdlog_shard_dataSA_SaISB_ISC_SG_EEE
librgw.so.2:_ZN16RGWRemoteMetaLog4initEv
librgw.so.2:_ZN16RGWRemoteMetaLog6finishEv
librgw.so.2:_ZN16RGWRemoteMetaLog6wakeupEi
librgw.so.2:_ZN16RGWRemoteMetaLog8run_syncEv
librgw.so.2:_ZN16RGWRemoteMetaLogD0Ev
librgw.so.2:_ZN16RGWRemoteMetaLogD1Ev
librgw.so.2:_ZN16RGWRemoteMetaLogD2Ev
librgw.so.2:_ZN16RGWSystemMetaObj10delete_objEb
librgw.so.2:_ZN16RGWSystemMetaObj10store_infoEb
librgw.so.2:_ZN16RGWSystemMetaObj10store_nameEb
librgw.so.2:_ZN16RGWSystemMetaObj11decode_jsonEP7JSONObj
librgw.so.2:_ZN16RGWSystemMetaObj11use_defaultEb
librgw.so.2:_ZN16RGWSystemMetaObj12read_defaultER27RGWDefaultSystemMetaObjInfoRKNSt7__cxx1112basic_stringIcSt11char_traitsIcESaIcEEE
librgw.so.2:_ZN16RGWSystemMetaObj14set_as_defaultEb
librgw.so.2:_ZN16RGWSystemMetaObj15read_default_idERNSt7__cxx1112basic_stringIcSt11char_traitsIcESaIcEEEb
librgw.so.2:_ZN16RGWSystemMetaObj4initEP11CephContextP8RGWRadosbb
librgw.so.2:_ZN16RGWSystemMetaObj4readEv
librgw.so.2:_ZN16RGWSystemMetaObj5writeEb
librgw.so.2:_ZN16RGWSystemMetaObj6createEb
librgw.so.2:_ZN16RGWSystemMetaObj6renameERKNSt7__cxx1112basic_stringIcSt11char_traitsIcESaIcEEE
librgw.so.2:_ZN16RGWSystemMetaObj7read_idERKNSt7__cxx1112basic_stringIcSt11char_traitsIcESaIcEEERS5_
librgw.so.2:_ZN16RGWSystemMetaObj9read_infoERKNSt7__cxx1112basic_stringIcSt11char_traitsIcESaIcEEEb
librgw.so.2:_ZN16entity_addrvec_t23generate_test_instancesERNSt7__cxx114listIPS_SaIS2_EEE
librgw.so.2:_ZN16entity_addrvec_t6decodeERN4ceph6buffer4list8iteratorE
librgw.so.2:_ZN16rgw_bi_log_entry11decode_jsonEP7JSONObj
librgw.so.2:_ZN16rgw_bi_log_entry23generate_test_instancesERNSt7__cxx114listIPS_SaIS2_EEE
librgw.so.2:_ZN16rgw_cls_bi_entry11decode_jsonEP7JSONObjP15cls_rgw_obj_key
librgw.so.2:_ZN16rgw_cls_bi_entry8get_infoEP15cls_rgw_obj_keyPhP25rgw_bucket_category_stats
librgw.so.2:_ZN16rgw_datalog_info11decode_jsonEP7JSONObj
librgw.so.2:_ZN17AdminSocketClient10do_requestENSt7__cxx1112basic_stringIcSt11char_traitsIcESaIcEEEPS5_
librgw.so.2:_ZN17AdminSocketClient4pingB5cxx11EPb
librgw.so.2:_ZN17AdminSocketClientC1ERKNSt7__cxx1112basic_stringIcSt11char_traitsIcESaIcEEE
librgw.so.2:_ZN17AdminSocketClientC2ERKNSt7__cxx1112basic_stringIcSt11char_traitsIcESaIcEEE
librgw.so.2:_ZN17C_OrderedThrottle6finishEi
librgw.so.2:_ZN17RGWAbortMultipart17verify_permissionEv
librgw.so.2:_ZN17RGWAbortMultipart7executeEv
librgw.so.2:_ZN17RGWAbortMultipart8pre_execEv
librgw.so.2:_ZN17RGWAsyncRemoveObj13_send_requestEv
librgw.so.2:_ZN17RGWBWRedirectInfo10decode_xmlEP6XMLObj
librgw.so.2:_ZN17RGWBWRedirectInfo11decode_jsonEP7JSONObj
librgw.so.2:_ZN17RGWBWRoutingRules11decode_jsonEP7JSONObj
librgw.so.2:_ZN17RGWBWRoutingRules19check_key_conditionERKNSt7__cxx1112basic_stringIcSt11char_traitsIcESaIcEEEPP16RGWBWRoutingRule
librgw.so.2:_ZN17RGWBWRoutingRules26check_error_code_conditionEiPP16RGWBWRoutingRule
librgw.so.2:_ZN17RGWBWRoutingRules34check_key_and_error_code_conditionERKNSt7__cxx1112basic_stringIcSt11char_traitsIcESaIcEEEiPP16RGWBWRoutingRule
librgw.so.2:_ZN17RGWDataChangesLog10choose_oidERK16rgw_bucket_shard
librgw.so.2:_ZN17RGWDataChangesLog10going_downEv
librgw.so.2:_ZN17RGWDataChangesLog11_get_changeERK16rgw_bucket_shardRSt10shared_ptrINS_12ChangeStatusEE
librgw.so.2:_ZN17RGWDataChangesLog12list_entriesERKNSt6chrono10time_pointIN4ceph11time_detail10real_clockENS0_8durationImSt5ratioILl1ELl1000000000EEEEEESB_iRNSt7__cxx114listI25rgw_data_change_log_entrySaISE_EEERNS_9LogMarkerEPb
librgw.so.2:_ZN17RGWDataChangesLog12list_entriesEiRKNSt6chrono10time_pointIN4ceph11time_detail10real_clockENS0_8durationImSt5ratioILl1ELl1000000000EEEEEESB_iRNSt7__cxx114listI25rgw_data_change_log_entrySaISE_EEERKNSC_12basic_stringIcSt11char_traitsIcESaIcEEEPSM_Pb
librgw.so.2:_ZN17RGWDataChangesLog12trim_entriesERKNSt6chrono10time_pointIN4ceph11time_detail10real_clockENS0_8durationImSt5ratioILl1ELl1000000000EEEEEESB_RKNSt7__cxx1112basic_stringIcSt11char_traitsIcESaIcEEESJ_
librgw.so.2:_ZN17RGWDataChangesLog12trim_entriesEiRKNSt6chrono10time_pointIN4ceph11time_detail10real_clockENS0_8durationImSt5ratioILl1ELl1000000000EEEEEESB_RKNSt7__cxx1112basic_stringIcSt11char_traitsIcESaIcEEESJ_
librgw.so.2:_ZN17RGWDataChangesLog13mark_modifiedEiRK16rgw_bucket_shard
librgw.so.2:_ZN17RGWDataChangesLog13renew_entriesEv
librgw.so.2:_ZN17RGWDataChangesLog14register_renewER16rgw_bucket_shard
librgw.so.2:_ZN17RGWDataChangesLog14update_renewedER16rgw_bucket_shardRNSt6chrono10time_pointIN4ceph11time_detail10real_clockENS2_8durationImSt5ratioILl1ELl1000000000EEEEEE
librgw.so.2:_ZN17RGWDataChangesLog16get_log_shard_idER10rgw_bucketi
librgw.so.2:_ZN17RGWDataChangesLog18ChangesRenewThread4stopEv
librgw.so.2:_ZN17RGWDataChangesLog18ChangesRenewThread5entryEv
librgw.so.2:_ZN17RGWDataChangesLog19read_clear_modifiedERSt3mapIiSt3setINSt7__cxx1112basic_stringIcSt11char_traitsIcESaIcEEESt4lessIS7_ESaIS7_EES8_IiESaISt4pairIKiSB_EEE
librgw.so.2:_ZN17RGWDataChangesLog8get_infoEiP21RGWDataChangesLogInfo
librgw.so.2:_ZN17RGWDataChangesLog9add_entryER10rgw_bucketi
librgw.so.2:_ZN17RGWDataChangesLogD1Ev
librgw.so.2:_ZN17RGWDataChangesLogD2Ev
librgw.so.2:_ZN17RGWDeleteMultiObj17verify_permissionEv
librgw.so.2:_ZN17RGWDeleteMultiObj7executeEv
librgw.so.2:_ZN17RGWDeleteMultiObj8pre_execEv
librgw.so.2:_ZN17RGWFrontendConfig12parse_configERKNSt7__cxx1112basic_stringIcSt11char_traitsIcESaIcEEERSt3mapIS5_S5_St4lessIS5_ESaISt4pairIS6_S5_EEE
librgw.so.2:_ZN17RGWFrontendConfig7get_valERKNSt7__cxx1112basic_stringIcSt11char_traitsIcESaIcEEES7_PS5_
librgw.so.2:_ZN17RGWFrontendConfig7get_valERKNSt7__cxx1112basic_stringIcSt11char_traitsIcESaIcEEEiPi
librgw.so.2:_ZN17RGWGetHealthCheck7executeEv
librgw.so.2:_ZN17RGWLCXMLParser_S39alloc_objEPKc
librgw.so.2:_ZN17RGWLDAPAuthEngine4initEP11CephContext
librgw.so.2:_ZN17RGWMetadataObject11get_versionEv
librgw.so.2:_ZN17RGWMultiDelDelete7xml_endEPKc
librgw.so.2:_ZN17RGWMultiDelObject7xml_endEPKc
librgw.so.2:_ZN17RGWMultiXMLParser9alloc_objEPKc
librgw.so.2:_ZN17RGWPutLC_ObjStore10get_paramsEv
librgw.so.2:_ZN17RGWShardCollectCR7operateEv
librgw.so.2:_ZN17RGWUploadPartInfo23generate_test_instancesERNSt7__cxx114listIPS_SaIS2_EEE
librgw.so.2:_ZN17RGWUserStatsCache11sync_bucketERK8rgw_userR10rgw_bucket
librgw.so.2:_ZN17RGWUserStatsCache13data_modifiedERK8rgw_userR10rgw_bucket
librgw.so.2:_ZN17RGWUserStatsCache14sync_all_usersEv
librgw.so.2:_ZN17RGWUserStatsCache24fetch_stats_from_storageERK8rgw_userR10rgw_bucketR15RGWStorageStats
librgw.so.2:_ZN17RGWUserStatsCache9sync_userERK8rgw_user
librgw.so.2:_ZN17ShardedThreadPool13start_threadsEv
librgw.so.2:_ZN17ShardedThreadPool24shardedthreadpool_workerEj
librgw.so.2:_ZN17ShardedThreadPool4stopEv
librgw.so.2:_ZN17ShardedThreadPool5drainEv
librgw.so.2:_ZN17ShardedThreadPool5pauseEv
librgw.so.2:_ZN17ShardedThreadPool5startEv
librgw.so.2:_ZN17ShardedThreadPool7unpauseEv
librgw.so.2:_ZN17ShardedThreadPool9pause_newEv
librgw.so.2:_ZN17ShardedThreadPoolC1EP11CephContextNSt7__cxx1112basic_stringIcSt11char_traitsIcESaIcEEES7_j
librgw.so.2:_ZN17ShardedThreadPoolC2EP11CephContextNSt7__cxx1112basic_stringIcSt11char_traitsIcESaIcEEES7_j
librgw.so.2:_ZN17rgw_datalog_entry11decode_jsonEP7JSONObj
librgw.so.2:_ZN18CephInitParametersC1Ej
librgw.so.2:_ZN18CephInitParametersC2Ej
librgw.so.2:_ZN18RGWACLXMLParser_S39alloc_objEPKc
librgw.so.2:_ZN18RGWCacheNotifyInfo23generate_test_instancesERNSt7__cxx114listIPS_SaIS2_EEE
librgw.so.2:_ZN18RGWCoroutinesStack12collect_nextEP12RGWCoroutinePiPPS_
librgw.so.2:_ZN18RGWCoroutinesStack13unblock_stackEPPS_
librgw.so.2:_ZN18RGWCoroutinesStack18get_completion_mgrEv
librgw.so.2:_ZN18RGWCoroutinesStack26create_completion_notifierEv
librgw.so.2:_ZN18RGWCoroutinesStack4callEP12RGWCoroutine
librgw.so.2:_ZN18RGWCoroutinesStack4waitERK7utime_t
librgw.so.2:_ZN18RGWCoroutinesStack5spawnEP12RGWCoroutineS1_b
librgw.so.2:_ZN18RGWCoroutinesStack5spawnEP12RGWCoroutineb
librgw.so.2:_ZN18RGWCoroutinesStack6unwindEi
librgw.so.2:_ZN18RGWCoroutinesStack6wakeupEv
librgw.so.2:_ZN18RGWCoroutinesStack7collectEP12RGWCoroutinePiPS_
librgw.so.2:_ZN18RGWCoroutinesStack7collectEPiPS_
librgw.so.2:_ZN18RGWCoroutinesStack7operateEP16RGWCoroutinesEnv
librgw.so.2:_ZN18RGWCoroutinesStack9error_strB5cxx11Ev
librgw.so.2:_ZN18RGWCoroutinesStackC1EP11CephContextP20RGWCoroutinesManagerP12RGWCoroutine
librgw.so.2:_ZN18RGWCoroutinesStackC2EP11CephContextP20RGWCoroutinesManagerP12RGWCoroutine
librgw.so.2:_ZN18RGWCoroutinesStackD0Ev
librgw.so.2:_ZN18RGWCoroutinesStackD1Ev
librgw.so.2:_ZN18RGWCoroutinesStackD2Ev
librgw.so.2:_ZN18RGWFormatter_Plain10dump_floatEPKcd
librgw.so.2:_ZN18RGWFormatter_Plain10write_dataEPKcz
librgw.so.2:_ZN18RGWFormatter_Plain11dump_streamEPKc
librgw.so.2:_ZN18RGWFormatter_Plain11dump_stringEPKcRKNSt7__cxx1112basic_stringIcSt11char_traitsIcESaIcEEE
librgw.so.2:_ZN18RGWFormatter_Plain13close_sectionEv
librgw.so.2:_ZN18RGWFormatter_Plain13dump_unsignedEPKcm
librgw.so.2:_ZN18RGWFormatter_Plain14dump_format_vaEPKcS1_bS1_P13__va_list_tag
librgw.so.2:_ZN18RGWFormatter_Plain14dump_value_intEPKcS1_z
librgw.so.2:_ZN18RGWFormatter_Plain14write_raw_dataEPKc
librgw.so.2:_ZN18RGWFormatter_Plain18open_array_sectionEPKc
librgw.so.2:_ZN18RGWFormatter_Plain19open_object_sectionEPKc
librgw.so.2:_ZN18RGWFormatter_Plain24open_array_section_in_nsEPKcS1_
librgw.so.2:_ZN18RGWFormatter_Plain25open_object_section_in_nsEPKcS1_
librgw.so.2:_ZN18RGWFormatter_Plain5flushERSo
librgw.so.2:_ZN18RGWFormatter_Plain5resetEv
librgw.so.2:_ZN18RGWFormatter_Plain8dump_intEPKcl
librgw.so.2:_ZN18RGWFormatter_Plain9reset_bufEv
librgw.so.2:_ZN18RGWFormatter_PlainC1Eb
librgw.so.2:_ZN18RGWFormatter_PlainC2Eb
librgw.so.2:_ZN18RGWFormatter_PlainD0Ev
librgw.so.2:_ZN18RGWFormatter_PlainD1Ev
librgw.so.2:_ZN18RGWFormatter_PlainD2Ev
librgw.so.2:_ZN18RGWGetObj_ObjStore10get_paramsEv
librgw.so.2:_ZN18RGWHTTPTransceiver9send_dataEPvm
librgw.so.2:_ZN18RGWHandler_Auth_S34initEP8RGWRadosP9req_statePN3rgw2io11BasicClientE
librgw.so.2:_ZN18RGWHandler_REST_S313postauth_initEv
librgw.so.2:_ZN18RGWHandler_REST_S316init_from_headerEP9req_stateib
librgw.so.2:_ZN18RGWHandler_REST_S34initEP8RGWRadosP9req_statePN3rgw2io11BasicClientE
librgw.so.2:_ZN18RGWMetadataLogData11decode_jsonEP7JSONObj
librgw.so.2:_ZN18RGWMetadataLogData6decodeERN4ceph6buffer4list8iteratorE
librgw.so.2:_ZN18RGWMetadataLogInfo11decode_jsonEP7JSONObj
librgw.so.2:_ZN18RGWMetadataManager10pre_modifyEP18RGWMetadataHandlerRNSt7__cxx1112basic_stringIcSt11char_traitsIcESaIcEEERKS7_R18RGWMetadataLogDataP20RGWObjVersionTracker14RGWMDLogStatus
librgw.so.2:_ZN18RGWMetadataManager11get_handlerERKNSt7__cxx1112basic_stringIcSt11char_traitsIcESaIcEEE
librgw.so.2:_ZN18RGWMetadataManager11post_modifyEP18RGWMetadataHandlerRKNSt7__cxx1112basic_stringIcSt11char_traitsIcESaIcEEES9_R18RGWMetadataLogDataP20RGWObjVersionTrackeri
librgw.so.2:_ZN18RGWMetadataManager12find_handlerERKNSt7__cxx1112basic_stringIcSt11char_traitsIcESaIcEEEPP18RGWMetadataHandlerRS5_
librgw.so.2:_ZN18RGWMetadataManager12get_sectionsERNSt7__cxx114listINS0_12basic_stringIcSt11char_traitsIcESaIcEEESaIS6_EEE
librgw.so.2:_ZN18RGWMetadataManager12remove_entryEP18RGWMetadataHandlerRNSt7__cxx1112basic_stringIcSt11char_traitsIcESaIcEEEP20RGWObjVersionTracker
librgw.so.2:_ZN18RGWMetadataManager13store_in_heapEP18RGWMetadataHandlerRKNSt7__cxx1112basic_stringIcSt11char_traitsIcESaIcEEERN4ceph6buffer4listEP20RGWObjVersionTrackerNSt6chrono10time_pointINSA_11time_detail10real_clockENSG_8durationImSt5ratioILl1ELl1000000000EEEEEEPSt3mapIS7_SC_St4lessIS7_ESaISt4pairIS8_SC_EEE
librgw.so.2:_ZN18RGWMetadataManager14dump_log_entryER13cls_log_entryPN4ceph9FormatterE
librgw.so.2:_ZN18RGWMetadataManager14list_keys_initERNSt7__cxx1112basic_stringIcSt11char_traitsIcESaIcEEEPPv
librgw.so.2:_ZN18RGWMetadataManager14list_keys_nextEPviRNSt7__cxx114listINS1_12basic_stringIcSt11char_traitsIcESaIcEEESaIS7_EEEPb
librgw.so.2:_ZN18RGWMetadataManager14lock_exclusiveERNSt7__cxx1112basic_stringIcSt11char_traitsIcESaIcEEENSt6chrono8durationImSt5ratioILl1ELl1000000000EEEES6_
librgw.so.2:_ZN18RGWMetadataManager16get_log_shard_idERKNSt7__cxx1112basic_stringIcSt11char_traitsIcESaIcEEES7_Pi
librgw.so.2:_ZN18RGWMetadataManager16register_handlerEP18RGWMetadataHandler
librgw.so.2:_ZN18RGWMetadataManager16remove_from_heapEP18RGWMetadataHandlerRKNSt7__cxx1112basic_stringIcSt11char_traitsIcESaIcEEEP20RGWObjVersionTracker
librgw.so.2:_ZN18RGWMetadataManager18list_keys_completeEPv
librgw.so.2:_ZN18RGWMetadataManager18parse_metadata_keyERKNSt7__cxx1112basic_stringIcSt11char_traitsIcESaIcEEERS5_S8_
librgw.so.2:_ZN18RGWMetadataManager22init_oldest_log_periodEv
librgw.so.2:_ZN18RGWMetadataManager3getERNSt7__cxx1112basic_stringIcSt11char_traitsIcESaIcEEEPN4ceph9FormatterE
librgw.so.2:_ZN18RGWMetadataManager3putERNSt7__cxx1112basic_stringIcSt11char_traitsIcESaIcEEERN4ceph6buffer4listEN18RGWMetadataHandler11sync_type_tEP11obj_version
librgw.so.2:_ZN18RGWMetadataManager4initERKNSt7__cxx1112basic_stringIcSt11char_traitsIcESaIcEEE
librgw.so.2:_ZN18RGWMetadataManager6removeERNSt7__cxx1112basic_stringIcSt11char_traitsIcESaIcEEE
librgw.so.2:_ZN18RGWMetadataManager6unlockERNSt7__cxx1112basic_stringIcSt11char_traitsIcESaIcEEES6_
librgw.so.2:_ZN18RGWMetadataManager7get_logERKNSt7__cxx1112basic_stringIcSt11char_traitsIcESaIcEEE
librgw.so.2:_ZN18RGWMetadataManager8heap_oidEP18RGWMetadataHandlerRKNSt7__cxx1112basic_stringIcSt11char_traitsIcESaIcEEERK11obj_version
librgw.so.2:_ZN18RGWMetadataManager9put_entryEP18RGWMetadataHandlerRKNSt7__cxx1112basic_stringIcSt11char_traitsIcESaIcEEERN4ceph6buffer4listEbP20RGWObjVersionTrackerNSt6chrono10time_pointINSA_11time_detail10real_clockENSG_8durationImSt5ratioILl1ELl1000000000EEEEEEPSt3mapIS7_SC_St4lessIS7_ESaISt4pairIS8_SC_EEE
librgw.so.2:_ZN18RGWMetadataManagerC1EP11CephContextP8RGWRados
librgw.so.2:_ZN18RGWMetadataManagerC2EP11CephContextP8RGWRados
librgw.so.2:_ZN18RGWMetadataManagerD1Ev
librgw.so.2:_ZN18RGWMetadataManagerD2Ev
librgw.so.2:_ZN18RGWObjManifestPart23generate_test_instancesERNSt7__cxx114listIPS_SaIS2_EEE
librgw.so.2:_ZN18RGWOpStateSingleOp11renew_stateEv
librgw.so.2:_ZN18RGWOpStateSingleOp9set_stateEN10RGWOpState7OpStateE
librgw.so.2:_ZN18RGWOpStateSingleOpC1EP8RGWRadosRKNSt7__cxx1112basic_stringIcSt11char_traitsIcESaIcEEES9_S9_
librgw.so.2:_ZN18RGWOpStateSingleOpC2EP8RGWRadosRKNSt7__cxx1112basic_stringIcSt11char_traitsIcESaIcEEES9_S9_
librgw.so.2:_ZN18RGWProcessFrontend4stopEv
librgw.so.2:_ZN18RGWPutObjProcessor3ctxEv
librgw.so.2:_ZN18RGWPutObjProcessor8completeEmRKNSt7__cxx1112basic_stringIcSt11char_traitsIcESaIcEEEPNSt6chrono10time_pointIN4ceph11time_detail10real_clockENS8_8durationImSt5ratioILl1ELl1000000000EEEEEESH_RSt3mapIS5_NSA_6buffer4listESt4lessIS5_ESaISt4pairIS6_SL_EEESH_PKcSU_
librgw.so.2:_ZN18RGWPutObj_Compress11handle_dataERN4ceph6buffer4listElPPvP7rgw_objPb
librgw.so.2:_ZN18RGWPutObj_ObjStore10get_paramsEv
librgw.so.2:_ZN18RGWPutObj_ObjStore13verify_paramsEv
librgw.so.2:_ZN18RGWPutObj_ObjStore35get_padding_last_aws4_chunk_encodedERN4ceph6buffer4listEm
librgw.so.2:_ZN18RGWPutObj_ObjStore8get_dataERN4ceph6buffer4listE
librgw.so.2:_ZN18RGWRESTStreamOutCB11handle_dataERN4ceph6buffer4listEll
librgw.so.2:_ZN18RGWRemoteBucketLog11run_sync_crEv
librgw.so.2:_ZN18RGWRemoteBucketLog19init_sync_status_crEv
librgw.so.2:_ZN18RGWRemoteBucketLog19read_sync_status_crEP26rgw_bucket_shard_sync_info
librgw.so.2:_ZN18RGWRemoteBucketLog4initERKNSt7__cxx1112basic_stringIcSt11char_traitsIcESaIcEEEP11RGWRESTConnRK10rgw_bucketiP18RGWSyncErrorLoggerRSt10shared_ptrI21RGWSyncModuleInstanceE
librgw.so.2:_ZN18RGWSimpleCoroutine10state_initEv
librgw.so.2:_ZN18RGWSimpleCoroutine12call_cleanupEv
librgw.so.2:_ZN18RGWSimpleCoroutine18state_all_completeEv
librgw.so.2:_ZN18RGWSimpleCoroutine18state_send_requestEv
librgw.so.2:_ZN18RGWSimpleCoroutine22state_request_completeEv
librgw.so.2:_ZN18RGWSimpleCoroutine7operateEv
librgw.so.2:_ZN18RGWSimpleCoroutineD0Ev
librgw.so.2:_ZN18RGWSimpleCoroutineD1Ev
librgw.so.2:_ZN18RGWSimpleCoroutineD2Ev
librgw.so.2:_ZN18RGWSyncDebugLogger3logERKNSt7__cxx1112basic_stringIcSt11char_traitsIcESaIcEEE
librgw.so.2:_ZN18RGWSyncDebugLogger4initEP11CephContextRKNSt7__cxx1112basic_stringIcSt11char_traitsIcESaIcEEES9_S9_S9_b
librgw.so.2:_ZN18RGWSyncDebugLogger6finishEi
librgw.so.2:_ZN18RGWSyncDebugLoggerD1Ev
librgw.so.2:_ZN18RGWSyncDebugLoggerD2Ev
librgw.so.2:_ZN18RGWSyncErrorLogger12log_error_crERKNSt7__cxx1112basic_stringIcSt11char_traitsIcESaIcEEES7_S7_jS7_
librgw.so.2:_ZN18RGWSyncErrorLogger13get_shard_oidERKNSt7__cxx1112basic_stringIcSt11char_traitsIcESaIcEEEi
librgw.so.2:_ZN18RGWSyncErrorLoggerC1EP8RGWRadosRKNSt7__cxx1112basic_stringIcSt11char_traitsIcESaIcEEEi
librgw.so.2:_ZN18RGWSyncErrorLoggerC2EP8RGWRadosRKNSt7__cxx1112basic_stringIcSt11char_traitsIcESaIcEEEi
librgw.so.2:_ZN18RGWUserAdminOp_Key6createEP8RGWRadosR19RGWUserAdminOpStateR19RGWFormatterFlusher
librgw.so.2:_ZN18RGWUserAdminOp_Key6removeEP8RGWRadosR19RGWUserAdminOpStateR19RGWFormatterFlusher
librgw.so.2:_ZN18rgw_meta_sync_info11decode_jsonEP7JSONObj
librgw.so.2:_ZN19PerfCountersBuilder11add_u64_avgEiPKcS1_S1_
librgw.so.2:_ZN19PerfCountersBuilder12add_time_avgEiPKcS1_S1_
librgw.so.2:_ZN19PerfCountersBuilder15add_u64_counterEiPKcS1_S1_
librgw.so.2:_ZN19PerfCountersBuilder20create_perf_countersEv
librgw.so.2:_ZN19PerfCountersBuilder7add_u64EiPKcS1_S1_
librgw.so.2:_ZN19PerfCountersBuilder8add_implEiPKcS1_S1_i
librgw.so.2:_ZN19PerfCountersBuilder8add_timeEiPKcS1_S1_
librgw.so.2:_ZN19PerfCountersBuilderC1EP11CephContextRKNSt7__cxx1112basic_stringIcSt11char_traitsIcESaIcEEEii
librgw.so.2:_ZN19PerfCountersBuilderC2EP11CephContextRKNSt7__cxx1112basic_stringIcSt11char_traitsIcESaIcEEEii
librgw.so.2:_ZN19PerfCountersBuilderD1Ev
librgw.so.2:_ZN19PerfCountersBuilderD2Ev
librgw.so.2:_ZN19RGWBackoffControlCR7operateEv
librgw.so.2:_ZN19RGWBucketEntryPoint11decode_jsonEP7JSONObj
librgw.so.2:_ZN19RGWBucketStatsCache24fetch_stats_from_storageERK8rgw_userR10rgw_bucketR15RGWStorageStats
librgw.so.2:_ZN19RGWCORSXMLParser_S39alloc_objEPKc
librgw.so.2:_ZN19RGWGetBucketLogging17verify_permissionEv
librgw.so.2:_ZN19RGWGetBucketWebsite17verify_permissionEv
librgw.so.2:_ZN19RGWGetBucketWebsite7executeEv
librgw.so.2:_ZN19RGWGetBucketWebsite8pre_execEv
librgw.so.2:_ZN19RGWPostObj_ObjStore13verify_paramsEv
librgw.so.2:_ZN19RGWPutACLs_ObjStore10get_paramsEv
librgw.so.2:_ZN19RGWQuotaInfoApplier12get_instanceERK12RGWQuotaInfo
librgw.so.2:_ZN19RGWRESTReadResource11init_commonEPSt6vectorISt4pairINSt7__cxx1112basic_stringIcSt11char_traitsIcESaIcEEES7_ESaIS8_EE
librgw.so.2:_ZN19RGWRESTReadResource4readEv
librgw.so.2:_ZN19RGWRESTReadResource8aio_readEv
librgw.so.2:_ZN19RGWRESTReadResourceC1EP11RGWRESTConnRKNSt7__cxx1112basic_stringIcSt11char_traitsIcESaIcEEEPK19rgw_http_param_pairPSt6vectorISt4pairIS7_S7_ESaISF_EEP14RGWHTTPManager
librgw.so.2:_ZN19RGWRESTReadResourceC1EP11RGWRESTConnRKNSt7__cxx1112basic_stringIcSt11char_traitsIcESaIcEEERSt6vectorISt4pairIS7_S7_ESaISC_EEPSE_P14RGWHTTPManager
librgw.so.2:_ZN19RGWRESTReadResourceC2EP11RGWRESTConnRKNSt7__cxx1112basic_stringIcSt11char_traitsIcESaIcEEEPK19rgw_http_param_pairPSt6vectorISt4pairIS7_S7_ESaISF_EEP14RGWHTTPManager
librgw.so.2:_ZN19RGWRESTReadResourceC2EP11RGWRESTConnRKNSt7__cxx1112basic_stringIcSt11char_traitsIcESaIcEEERSt6vectorISt4pairIS7_S7_ESaISC_EEPSE_P14RGWHTTPManager
librgw.so.2:_ZN19RGWRESTSendResource11init_commonEPSt6vectorISt4pairINSt7__cxx1112basic_stringIcSt11char_traitsIcESaIcEEES7_ESaIS8_EE
librgw.so.2:_ZN19RGWRESTSendResource4sendERN4ceph6buffer4listE
librgw.so.2:_ZN19RGWRESTSendResource8aio_sendERN4ceph6buffer4listE
librgw.so.2:_ZN19RGWRESTSendResourceC1EP11RGWRESTConnRKNSt7__cxx1112basic_stringIcSt11char_traitsIcESaIcEEES9_PK19rgw_http_param_pairPSt6vectorISt4pairIS7_S7_ESaISF_EEP14RGWHTTPManager
librgw.so.2:_ZN19RGWRESTSendResourceC1EP11RGWRESTConnRKNSt7__cxx1112basic_stringIcSt11char_traitsIcESaIcEEES9_RSt6vectorISt4pairIS7_S7_ESaISC_EEPSE_P14RGWHTTPManager
librgw.so.2:_ZN19RGWRESTSendResourceC2EP11RGWRESTConnRKNSt7__cxx1112basic_stringIcSt11char_traitsIcESaIcEEES9_PK19rgw_http_param_pairPSt6vectorISt4pairIS7_S7_ESaISF_EEP14RGWHTTPManager
librgw.so.2:_ZN19RGWRESTSendResourceC2EP11RGWRESTConnRKNSt7__cxx1112basic_stringIcSt11char_traitsIcESaIcEEES9_RSt6vectorISt4pairIS7_S7_ESaISC_EEPSE_P14RGWHTTPManager
librgw.so.2:_ZN19RGWSetBucketWebsite17verify_permissionEv
librgw.so.2:_ZN19RGWSetBucketWebsite7executeEv
librgw.so.2:_ZN19RGWSetBucketWebsite8pre_execEv
librgw.so.2:_ZN19RGWUserAdminOp_Caps3addEP8RGWRadosR19RGWUserAdminOpStateR19RGWFormatterFlusher
librgw.so.2:_ZN19RGWUserAdminOp_Caps6removeEP8RGWRadosR19RGWUserAdminOpStateR19RGWFormatterFlusher
librgw.so.2:_ZN19RGWUserAdminOp_User4infoEP8RGWRadosR19RGWUserAdminOpStateR19RGWFormatterFlusher
librgw.so.2:_ZN19RGWUserAdminOp_User6createEP8RGWRadosR19RGWUserAdminOpStateR19RGWFormatterFlusher
librgw.so.2:_ZN19RGWUserAdminOp_User6modifyEP8RGWRadosR19RGWUserAdminOpStateR19RGWFormatterFlusher
librgw.so.2:_ZN19RGWUserAdminOp_User6removeEP8RGWRadosR19RGWUserAdminOpStateR19RGWFormatterFlusher
librgw.so.2:_ZN20CLSRGWIssueBILogList8issue_opEiRKNSt7__cxx1112basic_stringIcSt11char_traitsIcESaIcEEE
librgw.so.2:_ZN20CLSRGWIssueBILogTrim8issue_opEiRKNSt7__cxx1112basic_stringIcSt11char_traitsIcESaIcEEE
librgw.so.2:_ZN20PrebufferedStreambuf8overflowEi
librgw.so.2:_ZN20PrebufferedStreambuf9underflowEv
librgw.so.2:_ZN20PrebufferedStreambufC1EPcm
librgw.so.2:_ZN20PrebufferedStreambufC2EPcm
librgw.so.2:_ZN20RGWAccessControlList10_add_grantEP8ACLGrant
librgw.so.2:_ZN20RGWAccessControlList14get_group_permE16ACLGroupTypeEnumj
librgw.so.2:_ZN20RGWAccessControlList16get_referer_permENSt7__cxx1112basic_stringIcSt11char_traitsIcESaIcEEEj
librgw.so.2:_ZN20RGWAccessControlList23generate_test_instancesERNSt7__cxx114listIPS_SaIS2_EEE
librgw.so.2:_ZN20RGWAccessControlList8get_permERK18RGWIdentityApplierj
librgw.so.2:_ZN20RGWAccessControlList9add_grantEP8ACLGrant
librgw.so.2:_ZN20RGWAsyncGetSystemObj13_send_requestEv
librgw.so.2:_ZN20RGWAsyncGetSystemObjC1EP12RGWCoroutineP24RGWAioCompletionNotifierP8RGWRadosP12RGWObjectCtxP20RGWObjVersionTrackerR7rgw_objPN4ceph6buffer4listEll
librgw.so.2:_ZN20RGWAsyncGetSystemObjC2EP12RGWCoroutineP24RGWAioCompletionNotifierP8RGWRadosP12RGWObjectCtxP20RGWObjVersionTrackerR7rgw_objPN4ceph6buffer4listEll
librgw.so.2:_ZN20RGWAsyncPutSystemObj13_send_requestEv
librgw.so.2:_ZN20RGWAsyncPutSystemObjC1EP12RGWCoroutineP24RGWAioCompletionNotifierP8RGWRadosR7rgw_objbRN4ceph6buffer4listE
librgw.so.2:_ZN20RGWAsyncPutSystemObjC2EP12RGWCoroutineP24RGWAioCompletionNotifierP8RGWRadosR7rgw_objbRN4ceph6buffer4listE
librgw.so.2:_ZN20RGWBucketWebsiteConf10decode_xmlEP6XMLObj
librgw.so.2:_ZN20RGWBucketWebsiteConf11decode_jsonEP7JSONObj
librgw.so.2:_ZN20RGWBucketWebsiteConf15should_redirectERKNSt7__cxx1112basic_stringIcSt11char_traitsIcESaIcEEEiP16RGWBWRoutingRule
librgw.so.2:_ZN20RGWCORSConfiguration14host_name_ruleEPKc
librgw.so.2:_ZN20RGWCORSConfiguration20erase_host_name_ruleERNSt7__cxx1112basic_stringIcSt11char_traitsIcESaIcEEE
librgw.so.2:_ZN20RGWCORSConfiguration4dumpEv
librgw.so.2:_ZN20RGWCompleteMultipart17verify_permissionEv
librgw.so.2:_ZN20RGWCompleteMultipart7executeEv
librgw.so.2:_ZN20RGWCompleteMultipart8pre_execEv
librgw.so.2:_ZN20RGWCompletionManager12try_get_nextEPPv
librgw.so.2:_ZN20RGWCompletionManager13wait_intervalEPvRK7utime_tS0_
librgw.so.2:_ZN20RGWCompletionManager28register_completion_notifierEP24RGWAioCompletionNotifier
librgw.so.2:_ZN20RGWCompletionManager30unregister_completion_notifierEP24RGWAioCompletionNotifier
librgw.so.2:_ZN20RGWCompletionManager6wakeupEPv
librgw.so.2:_ZN20RGWCompletionManager7_wakeupEPv
librgw.so.2:_ZN20RGWCompletionManager7go_downEv
librgw.so.2:_ZN20RGWCompletionManager8completeEP24RGWAioCompletionNotifierPv
librgw.so.2:_ZN20RGWCompletionManager8get_nextEPPv
librgw.so.2:_ZN20RGWCompletionManager9_completeEP24RGWAioCompletionNotifierPv
librgw.so.2:_ZN20RGWCompletionManagerC1EP11CephContext
librgw.so.2:_ZN20RGWCompletionManagerC2EP11CephContext
librgw.so.2:_ZN20RGWCompletionManagerD0Ev
librgw.so.2:_ZN20RGWCompletionManagerD1Ev
librgw.so.2:_ZN20RGWCompletionManagerD2Ev
librgw.so.2:_ZN20RGWContinuousLeaseCR7operateEv
librgw.so.2:_ZN20RGWCoroutinesManager12report_errorEP18RGWCoroutinesStack
librgw.so.2:_ZN20RGWCoroutinesManager14allocate_stackEv
librgw.so.2:_ZN20RGWCoroutinesManager22handle_unblocked_stackERSt3setIP18RGWCoroutinesStackSt4lessIS2_ESaIS2_EERNSt7__cxx114listIS2_S5_EES2_Pi
librgw.so.2:_ZN20RGWCoroutinesManager26create_completion_notifierEP18RGWCoroutinesStack
librgw.so.2:_ZN20RGWCoroutinesManager3runEP12RGWCoroutine
librgw.so.2:_ZN20RGWCoroutinesManager3runERNSt7__cxx114listIP18RGWCoroutinesStackSaIS3_EEE
librgw.so.2:_ZN20RGWCoroutinesManager6get_idB5cxx11Ev
librgw.so.2:_ZN20RGWCoroutinesManager8scheduleEP16RGWCoroutinesEnvP18RGWCoroutinesStack
librgw.so.2:_ZN20RGWDefaultSyncModule15create_instanceEP11CephContextRSt3mapINSt7__cxx1112basic_stringIcSt11char_traitsIcESaIcEEES8_St4lessIS8_ESaISt4pairIKS8_S8_EEEPSt10shared_ptrI21RGWSyncModuleInstanceE
librgw.so.2:_ZN20RGWElasticSyncModule15create_instanceEP11CephContextRSt3mapINSt7__cxx1112basic_stringIcSt11char_traitsIcESaIcEEES8_St4lessIS8_ESaISt4pairIKS8_S8_EEEPSt10shared_ptrI21RGWSyncModuleInstanceE
librgw.so.2:_ZN20RGWGetBucketLocation17verify_permissionEv
librgw.so.2:_ZN20RGWGetLC_ObjStore_S313send_responseEv
librgw.so.2:_ZN20RGWGetLC_ObjStore_S37executeEv
librgw.so.2:_ZN20RGWGetObj_Decompress11fixup_rangeERlS0_
librgw.so.2:_ZN20RGWGetObj_Decompress11handle_dataERN4ceph6buffer4listEll
librgw.so.2:_ZN20RGWGetObj_DecompressC1EP11CephContextP18RGWCompressionInfobP12RGWGetDataCB
librgw.so.2:_ZN20RGWGetObj_DecompressC2EP11CephContextP18RGWCompressionInfobP12RGWGetDataCB
librgw.so.2:_ZN20RGWGetRequestPayment17verify_permissionEv
librgw.so.2:_ZN20RGWGetRequestPayment7executeEv
librgw.so.2:_ZN20RGWGetRequestPayment8pre_execEv
librgw.so.2:_ZN20RGWListRemoteMDLogCR10spawn_nextEv
librgw.so.2:_ZN20RGWMultiDelXMLParser9alloc_objEPKc
librgw.so.2:_ZN20RGWObjVersionTracker19prepare_op_for_readEPN8librados19ObjectReadOperationE
librgw.so.2:_ZN20RGWObjVersionTracker20prepare_op_for_writeEPN8librados20ObjectWriteOperationE
librgw.so.2:_ZN20RGWObjVersionTracker22generate_new_write_verEP11CephContext
librgw.so.2:_ZN20RGWPutLC_ObjStore_S313send_responseEv
librgw.so.2:_ZN20RGWPutMetadataBucket17verify_permissionEv
librgw.so.2:_ZN20RGWPutMetadataBucket7executeEv
librgw.so.2:_ZN20RGWPutMetadataBucket8pre_execEv
librgw.so.2:_ZN20RGWPutMetadataObject17verify_permissionEv
librgw.so.2:_ZN20RGWPutMetadataObject7executeEv
librgw.so.2:_ZN20RGWPutMetadataObject8pre_execEv
librgw.so.2:_ZN20RGWRESTSimpleRequest10get_statusEv
librgw.so.2:_ZN20RGWRESTSimpleRequest12append_paramERNSt7__cxx1112basic_stringIcSt11char_traitsIcESaIcEEERKS5_S8_
librgw.so.2:_ZN20RGWRESTSimpleRequest12receive_dataEPvm
librgw.so.2:_ZN20RGWRESTSimpleRequest12sign_requestER12RGWAccessKeyR6RGWEnvR8req_info
librgw.so.2:_ZN20RGWRESTSimpleRequest13handle_headerERKNSt7__cxx1112basic_stringIcSt11char_traitsIcESaIcEEES7_
librgw.so.2:_ZN20RGWRESTSimpleRequest14get_params_strERSt3mapINSt7__cxx1112basic_stringIcSt11char_traitsIcESaIcEEES6_St4lessIS6_ESaISt4pairIKS6_S6_EEERS6_
librgw.so.2:_ZN20RGWRESTSimpleRequest14receive_headerEPvm
librgw.so.2:_ZN20RGWRESTSimpleRequest15forward_requestER12RGWAccessKeyR8req_infomPN4ceph6buffer4listES7_
librgw.so.2:_ZN20RGWRESTSimpleRequest7executeER12RGWAccessKeyPKcS3_
librgw.so.2:_ZN20RGWRESTSimpleRequest9send_dataEPvm
librgw.so.2:_ZN20RGWRadosTimelogAddCR12send_requestEv
librgw.so.2:_ZN20RGWRadosTimelogAddCR16request_completeEv
librgw.so.2:_ZN20RGWRadosTimelogAddCRC1EP8RGWRadosRKNSt7__cxx1112basic_stringIcSt11char_traitsIcESaIcEEERK13cls_log_entry
librgw.so.2:_ZN20RGWRadosTimelogAddCRC2EP8RGWRadosRKNSt7__cxx1112basic_stringIcSt11char_traitsIcESaIcEEERK13cls_log_entry
librgw.so.2:_ZN20RGWRadosTimelogAddCRD0Ev
librgw.so.2:_ZN20RGWRadosTimelogAddCRD1Ev
librgw.so.2:_ZN20RGWRadosTimelogAddCRD2Ev
librgw.so.2:_ZN20RGWSetRequestPayment17verify_permissionEv
librgw.so.2:_ZN20RGWSetRequestPayment7executeEv
librgw.so.2:_ZN20RGWSetRequestPayment8pre_execEv
librgw.so.2:_ZN20RGWSimpleRadosLockCR12send_requestEv
librgw.so.2:_ZN20RGWSimpleRadosLockCR15request_cleanupEv
librgw.so.2:_ZN20RGWSimpleRadosLockCR16request_completeEv
librgw.so.2:_ZN20RGWSimpleRadosLockCRC1EP22RGWAsyncRadosProcessorP8RGWRadosRK10rgw_bucketRKNSt7__cxx1112basic_stringIcSt11char_traitsIcESaIcEEESE_SE_j
librgw.so.2:_ZN20RGWSimpleRadosLockCRC2EP22RGWAsyncRadosProcessorP8RGWRadosRK10rgw_bucketRKNSt7__cxx1112basic_stringIcSt11char_traitsIcESaIcEEESE_SE_j
librgw.so.2:_ZN20RGWStatRemoteObjCBCRC1EP14RGWDataSyncEnvR13RGWBucketInfoR11rgw_obj_key
librgw.so.2:_ZN20RGWStatRemoteObjCBCRC2EP14RGWDataSyncEnvR13RGWBucketInfoR11rgw_obj_key
librgw.so.2:_ZN20RGWZonePlacementInfo11decode_jsonEP7JSONObj
librgw.so.2:_ZN20rgw_bucket_dir_entry11decode_jsonEP7JSONObj
librgw.so.2:_ZN20rgw_bucket_dir_entry23generate_test_instancesERNSt7__cxx114listIPS_SaIS2_EEE
librgw.so.2:_ZN20rgw_bucket_entry_ver11decode_jsonEP7JSONObj
librgw.so.2:_ZN20rgw_bucket_entry_ver23generate_test_instancesERNSt7__cxx114listIPS_SaIS2_EEE
librgw.so.2:_ZN20rgw_bucket_olh_entry11decode_jsonEP7JSONObj
librgw.so.2:_ZN20rgw_mdlog_shard_data11decode_jsonEP7JSONObj
librgw.so.2:_ZN20rgw_meta_sync_marker11decode_jsonEP7JSONObj
librgw.so.2:_ZN20rgw_meta_sync_status11decode_jsonEP7JSONObj
librgw.so.2:_ZN21BucketIndexAioManager13do_completionEi
librgw.so.2:_ZN21BucketIndexAioManager20wait_for_completionsEiPiS0_PSt3mapIiNSt7__cxx1112basic_stringIcSt11char_traitsIcESaIcEEESt4lessIiESaISt4pairIKiS7_EEE
librgw.so.2:_ZN21CLSRGWIssueBucketList8issue_opEiRKNSt7__cxx1112basic_stringIcSt11char_traitsIcESaIcEEE
librgw.so.2:_ZN21RGWAsyncLockSystemObj13_send_requestEv
librgw.so.2:_ZN21RGWAsyncLockSystemObjC1EP12RGWCoroutineP24RGWAioCompletionNotifierP8RGWRadosP20RGWObjVersionTrackerR7rgw_objRKNSt7__cxx1112basic_stringIcSt11char_traitsIcESaIcEEESH_j
librgw.so.2:_ZN21RGWAsyncLockSystemObjC2EP12RGWCoroutineP24RGWAioCompletionNotifierP8RGWRadosP20RGWObjVersionTrackerR7rgw_objRKNSt7__cxx1112basic_stringIcSt11char_traitsIcESaIcEEESH_j
librgw.so.2:_ZN21RGWAsyncStatRemoteObj13_send_requestEv
librgw.so.2:_ZN21RGWBucketCompleteInfo11decode_jsonEP7JSONObj
librgw.so.2:_ZN21RGWDataChangesLogInfo11decode_jsonEP7JSONObj
librgw.so.2:_ZN21RGWGetObj_ObjStore_S318send_response_dataERN4ceph6buffer4listEll
librgw.so.2:_ZN21RGWGetObj_ObjStore_S324send_response_data_errorEv
librgw.so.2:_ZN21RGWKeystoneTokenCache10add_lockedERKNSt7__cxx1112basic_stringIcSt11char_traitsIcESaIcEEERK13KeystoneToken
librgw.so.2:_ZN21RGWKeystoneTokenCache10find_adminER13KeystoneToken
librgw.so.2:_ZN21RGWKeystoneTokenCache10invalidateERKNSt7__cxx1112basic_stringIcSt11char_traitsIcESaIcEEE
librgw.so.2:_ZN21RGWKeystoneTokenCache11find_lockedERKNSt7__cxx1112basic_stringIcSt11char_traitsIcESaIcEEER13KeystoneToken
librgw.so.2:_ZN21RGWKeystoneTokenCache12RevokeThread13check_revokedEv
librgw.so.2:_ZN21RGWKeystoneTokenCache12RevokeThread4stopEv
librgw.so.2:_ZN21RGWKeystoneTokenCache12RevokeThread5entryEv
librgw.so.2:_ZN21RGWKeystoneTokenCache12get_instanceEv
librgw.so.2:_ZN21RGWKeystoneTokenCache3addERKNSt7__cxx1112basic_stringIcSt11char_traitsIcESaIcEEERK13KeystoneToken
librgw.so.2:_ZN21RGWKeystoneTokenCache4findERKNSt7__cxx1112basic_stringIcSt11char_traitsIcESaIcEEER13KeystoneToken
librgw.so.2:_ZN21RGWKeystoneTokenCache9add_adminERK13KeystoneToken
librgw.so.2:_ZN21RGWPutMetadataAccount15init_processingEv
librgw.so.2:_ZN21RGWPutMetadataAccount17verify_permissionEv
librgw.so.2:_ZN21RGWPutMetadataAccount19filter_out_temp_urlERSt3mapINSt7__cxx1112basic_stringIcSt11char_traitsIcESaIcEEEN4ceph6buffer4listESt4lessIS6_ESaISt4pairIKS6_S9_EEERKSt3setIS6_SB_SaIS6_EERS0_IiS6_SA_IiESaISC_IKiS6_EEE
librgw.so.2:_ZN21RGWPutMetadataAccount7executeEv
librgw.so.2:_ZN21RGWPutObj_ObjStore_S310get_paramsEv
librgw.so.2:_ZN21RGWPutObj_ObjStore_S313send_responseEv
librgw.so.2:_ZN21RGWPutObj_ObjStore_S326validate_aws4_single_chunkEPcS0_jNSt7__cxx1112basic_stringIcSt11char_traitsIcESaIcEEE
librgw.so.2:_ZN21RGWPutObj_ObjStore_S347validate_and_unwrap_available_aws4_chunked_dataERN4ceph6buffer4listES3_
librgw.so.2:_ZN21RGWPutObj_ObjStore_S38get_dataERN4ceph6buffer4listE
librgw.so.2:_ZN21RGWRadosGetOmapKeysCR12send_requestEv
librgw.so.2:_ZN21RGWRadosGetOmapKeysCRC1EP8RGWRadosRK10rgw_bucketRKNSt7__cxx1112basic_stringIcSt11char_traitsIcESaIcEEESC_PSt3mapISA_N4ceph6buffer4listESt4lessISA_ESaISt4pairISB_SG_EEEi
librgw.so.2:_ZN21RGWRadosGetOmapKeysCRC2EP8RGWRadosRK10rgw_bucketRKNSt7__cxx1112basic_stringIcSt11char_traitsIcESaIcEEESC_PSt3mapISA_N4ceph6buffer4listESt4lessISA_ESaISt4pairISB_SG_EEEi
librgw.so.2:_ZN21RGWRadosGetOmapKeysCRD0Ev
librgw.so.2:_ZN21RGWRadosGetOmapKeysCRD1Ev
librgw.so.2:_ZN21RGWRadosGetOmapKeysCRD2Ev
librgw.so.2:_ZN21RGWRadosSetOmapKeysCR12send_requestEv
librgw.so.2:_ZN21RGWRadosSetOmapKeysCR16request_completeEv
librgw.so.2:_ZN21RGWRadosSetOmapKeysCRC1EP8RGWRadosR10rgw_bucketRKNSt7__cxx1112basic_stringIcSt11char_traitsIcESaIcEEERSt3mapIS9_N4ceph6buffer4listESt4lessIS9_ESaISt4pairISA_SF_EEE
librgw.so.2:_ZN21RGWRadosSetOmapKeysCRC2EP8RGWRadosR10rgw_bucketRKNSt7__cxx1112basic_stringIcSt11char_traitsIcESaIcEEERSt3mapIS9_N4ceph6buffer4listESt4lessIS9_ESaISt4pairISA_SF_EEE
librgw.so.2:_ZN21RGWRadosSetOmapKeysCRD0Ev
librgw.so.2:_ZN21RGWRadosSetOmapKeysCRD1Ev
librgw.so.2:_ZN21RGWRadosSetOmapKeysCRD2Ev
librgw.so.2:_ZN21RGWRadosTimelogTrimCR12send_requestEv
librgw.so.2:_ZN21RGWRadosTimelogTrimCR16request_completeEv
librgw.so.2:_ZN21RGWRadosTimelogTrimCRC1EP8RGWRadosRKNSt7__cxx1112basic_stringIcSt11char_traitsIcESaIcEEERKNSt6chrono10time_pointIN4ceph11time_detail10real_clockENSA_8durationImSt5ratioILl1ELl1000000000EEEEEESL_S9_S9_
librgw.so.2:_ZN21RGWRadosTimelogTrimCRC2EP8RGWRadosRKNSt7__cxx1112basic_stringIcSt11char_traitsIcESaIcEEERKNSt6chrono10time_pointIN4ceph11time_detail10real_clockENSA_8durationImSt5ratioILl1ELl1000000000EEEEEESL_S9_S9_
librgw.so.2:_ZN21RGWRadosTimelogTrimCRD0Ev
librgw.so.2:_ZN21RGWRadosTimelogTrimCRD1Ev
librgw.so.2:_ZN21RGWRadosTimelogTrimCRD2Ev
librgw.so.2:_ZN21rgw_bucket_dir_header23generate_test_instancesERNSt7__cxx114listIPS_SaIS2_EEE
librgw.so.2:_ZN22CLSRGWIssueBucketCheck8issue_opEiRKNSt7__cxx1112basic_stringIcSt11char_traitsIcESaIcEEE
librgw.so.2:_ZN22PerfCountersCollection14dump_formattedEPN4ceph9FormatterEbRKNSt7__cxx1112basic_stringIcSt11char_traitsIcESaIcEEESA_
librgw.so.2:_ZN22PerfCountersCollection3addEP12PerfCounters
librgw.so.2:_ZN22PerfCountersCollection5clearEv
librgw.so.2:_ZN22PerfCountersCollection5resetERKNSt7__cxx1112basic_stringIcSt11char_traitsIcESaIcEEE
librgw.so.2:_ZN22PerfCountersCollection6removeEP12PerfCounters
librgw.so.2:_ZN22PerfCountersCollectionC1EP11CephContext
librgw.so.2:_ZN22PerfCountersCollectionC2EP11CephContext
librgw.so.2:_ZN22PerfCountersCollectionD1Ev
librgw.so.2:_ZN22PerfCountersCollectionD2Ev
librgw.so.2:_ZN22RGWAccessControlPolicy17verify_permissionERK18RGWIdentityApplierjjPKc
librgw.so.2:_ZN22RGWAccessControlPolicy23generate_test_instancesERNSt7__cxx114listIPS_SaIS2_EEE
librgw.so.2:_ZN22RGWAccessControlPolicy8get_permERK18RGWIdentityApplierjPKc
librgw.so.2:_ZN22RGWAsyncFetchRemoteObj13_send_requestEv
librgw.so.2:_ZN22RGWAsyncRadosProcessor14handle_requestEP20RGWAsyncRadosRequest
librgw.so.2:_ZN22RGWAsyncRadosProcessor4stopEv
librgw.so.2:_ZN22RGWAsyncRadosProcessor5RGWWQ11_dump_queueEv
librgw.so.2:_ZN22RGWAsyncRadosProcessor5RGWWQ6_emptyEv
librgw.so.2:_ZN22RGWAsyncRadosProcessor5RGWWQ8_dequeueEv
librgw.so.2:_ZN22RGWAsyncRadosProcessor5RGWWQ8_enqueueEP20RGWAsyncRadosRequest
librgw.so.2:_ZN22RGWAsyncRadosProcessor5RGWWQ8_processEP20RGWAsyncRadosRequestRN10ThreadPool8TPHandleE
librgw.so.2:_ZN22RGWAsyncRadosProcessor5queueEP20RGWAsyncRadosRequest
librgw.so.2:_ZN22RGWAsyncRadosProcessor5startEv
librgw.so.2:_ZN22RGWAsyncRadosProcessorC1EP8RGWRadosi
librgw.so.2:_ZN22RGWAsyncRadosProcessorC2EP8RGWRadosi
librgw.so.2:_ZN22RGWCallStatRemoteObjCR7operateEv
librgw.so.2:_ZN22RGWCallStatRemoteObjCRC1EP14RGWDataSyncEnvR13RGWBucketInfoR11rgw_obj_key
librgw.so.2:_ZN22RGWCallStatRemoteObjCRC2EP14RGWDataSyncEnvR13RGWBucketInfoR11rgw_obj_key
librgw.so.2:_ZN22RGWCopyObj_ObjStore_S310get_paramsEv
librgw.so.2:_ZN22RGWCopyObj_ObjStore_S313send_responseEv
librgw.so.2:_ZN22RGWCopyObj_ObjStore_S316init_dest_policyEv
librgw.so.2:_ZN22RGWCopyObj_ObjStore_S321send_partial_responseEl
librgw.so.2:_ZN22RGWDeleteBucketWebsite17verify_permissionEv
librgw.so.2:_ZN22RGWDeleteBucketWebsite7executeEv
librgw.so.2:_ZN22RGWDeleteBucketWebsite8pre_execEv
librgw.so.2:_ZN22RGWGetACLs_ObjStore_S313send_responseEv
librgw.so.2:_ZN22RGWGetBucketVersioning17verify_permissionEv
librgw.so.2:_ZN22RGWGetBucketVersioning7executeEv
librgw.so.2:_ZN22RGWGetBucketVersioning8pre_execEv
librgw.so.2:_ZN22RGWGetCORS_ObjStore_S313send_responseEv
librgw.so.2:_ZN22RGWHandler_REST_Obj_S310get_obj_opEb
librgw.so.2:_ZN22RGWHandler_REST_Obj_S310op_optionsEv
librgw.so.2:_ZN22RGWHandler_REST_Obj_S36op_getEv
librgw.so.2:_ZN22RGWHandler_REST_Obj_S36op_putEv
librgw.so.2:_ZN22RGWHandler_REST_Obj_S37op_headEv
librgw.so.2:_ZN22RGWHandler_REST_Obj_S37op_postEv
librgw.so.2:_ZN22RGWHandler_REST_Obj_S39op_deleteEv
librgw.so.2:_ZN22RGWListRemoteDataLogCR10spawn_nextEv
librgw.so.2:_ZN22RGWMultiCompleteUpload7xml_endEPKc
librgw.so.2:_ZN22RGWPostObj_ObjStore_S310get_paramsEv
librgw.so.2:_ZN22RGWPostObj_ObjStore_S310get_policyEv
librgw.so.2:_ZN22RGWPostObj_ObjStore_S311rebuild_keyERNSt7__cxx1112basic_stringIcSt11char_traitsIcESaIcEEE
librgw.so.2:_ZN22RGWPostObj_ObjStore_S313send_responseEv
librgw.so.2:_ZN22RGWPostObj_ObjStore_S318read_with_boundaryERN4ceph6buffer4listEmbPbS4_
librgw.so.2:_ZN22RGWPostObj_ObjStore_S319complete_get_paramsEv
librgw.so.2:_ZN22RGWPostObj_ObjStore_S321read_form_part_headerEP14post_form_partPb
librgw.so.2:_ZN22RGWPostObj_ObjStore_S37part_blERKNSt7__cxx1112basic_stringIcSt11char_traitsIcESaIcEEEPN4ceph6buffer4listE
librgw.so.2:_ZN22RGWPostObj_ObjStore_S38get_dataERN4ceph6buffer4listE
librgw.so.2:_ZN22RGWPostObj_ObjStore_S38part_strERKNSt7__cxx1112basic_stringIcSt11char_traitsIcESaIcEEEPS5_
librgw.so.2:_ZN22RGWPostObj_ObjStore_S39read_dataERN4ceph6buffer4listEmPbS4_
librgw.so.2:_ZN22RGWPostObj_ObjStore_S39read_lineERN4ceph6buffer4listEmPbS4_
librgw.so.2:_ZN22RGWPutACLs_ObjStore_S310get_paramsEv
librgw.so.2:_ZN22RGWPutACLs_ObjStore_S313send_responseEv
librgw.so.2:_ZN22RGWPutACLs_ObjStore_S321get_policy_from_stateEP8RGWRadosP9req_stateRNSt7__cxx1118basic_stringstreamIcSt11char_traitsIcESaIcEEE
librgw.so.2:_ZN22RGWPutCORS_ObjStore_S310get_paramsEv
librgw.so.2:_ZN22RGWPutCORS_ObjStore_S313send_responseEv
librgw.so.2:_ZN22RGWPutObjProcessor_Aio11pop_pendingEv
librgw.so.2:_ZN22RGWPutObjProcessor_Aio13drain_pendingEv
librgw.so.2:_ZN22RGWPutObjProcessor_Aio13throttle_dataEPvRK7rgw_objb
librgw.so.2:_ZN22RGWPutObjProcessor_Aio15handle_obj_dataER7rgw_objRN4ceph6buffer4listEllPPvb
librgw.so.2:_ZN22RGWPutObjProcessor_Aio18wait_pending_frontEv
librgw.so.2:_ZN22RGWPutObjProcessor_Aio21pending_has_completedEv
librgw.so.2:_ZN22RGWPutObjProcessor_AioD0Ev
librgw.so.2:_ZN22RGWPutObjProcessor_AioD1Ev
librgw.so.2:_ZN22RGWPutObjProcessor_AioD2Ev
librgw.so.2:_ZN22RGWRESTStreamRWRequest12get_resourceER12RGWAccessKeyRSt3mapINSt7__cxx1112basic_stringIcSt11char_traitsIcESaIcEEES8_St4lessIS8_ESaISt4pairIKS8_S8_EEERSC_P14RGWHTTPManager
librgw.so.2:_ZN22RGWRESTStreamRWRequest12receive_dataEPvm
librgw.so.2:_ZN22RGWRESTStreamRWRequest13handle_headerERKNSt7__cxx1112basic_stringIcSt11char_traitsIcESaIcEEES7_
librgw.so.2:_ZN22RGWRESTStreamRWRequest7get_objER12RGWAccessKeyRSt3mapINSt7__cxx1112basic_stringIcSt11char_traitsIcESaIcEEES8_St4lessIS8_ESaISt4pairIKS8_S8_EEER7rgw_obj
librgw.so.2:_ZN22RGWRESTStreamRWRequest8completeERNSt7__cxx1112basic_stringIcSt11char_traitsIcESaIcEEEPNSt6chrono10time_pointIN4ceph11time_detail10real_clockENS7_8durationImSt5ratioILl1ELl1000000000EEEEEEPmRSt3mapIS5_S5_St4lessIS5_ESaISt4pairIKS5_S5_EEE
librgw.so.2:_ZN22RGWRESTStreamRWRequest9send_dataEPvm
librgw.so.2:_ZN22RGWSetBucketVersioning17verify_permissionEv
librgw.so.2:_ZN22RGWSetBucketVersioning7executeEv
librgw.so.2:_ZN22RGWSetBucketVersioning8pre_execEv
librgw.so.2:_ZN22RGWSimpleRadosUnlockCR12send_requestEv
librgw.so.2:_ZN22RGWSimpleRadosUnlockCR15request_cleanupEv
librgw.so.2:_ZN22RGWSimpleRadosUnlockCR16request_completeEv
librgw.so.2:_ZN22RGWSimpleRadosUnlockCRC1EP22RGWAsyncRadosProcessorP8RGWRadosRK10rgw_bucketRKNSt7__cxx1112basic_stringIcSt11char_traitsIcESaIcEEESE_SE_
librgw.so.2:_ZN22RGWSimpleRadosUnlockCRC2EP22RGWAsyncRadosProcessorP8RGWRadosRK10rgw_bucketRKNSt7__cxx1112basic_stringIcSt11char_traitsIcESaIcEEESE_SE_
librgw.so.2:_ZN22RGWUserAdminOp_Subuser6createEP8RGWRadosR19RGWUserAdminOpStateR19RGWFormatterFlusher
librgw.so.2:_ZN22RGWUserAdminOp_Subuser6modifyEP8RGWRadosR19RGWUserAdminOpStateR19RGWFormatterFlusher
librgw.so.2:_ZN22RGWUserAdminOp_Subuser6removeEP8RGWRadosR19RGWUserAdminOpStateR19RGWFormatterFlusher
librgw.so.2:_ZN22rgw_bucket_entry_owner11decode_jsonEP7JSONObj
librgw.so.2:_ZN22rgw_datalog_shard_data11decode_jsonEP7JSONObj
librgw.so.2:_ZN23CLSRGWIssueGetDirHeader8issue_opEiRKNSt7__cxx1112basic_stringIcSt11char_traitsIcESaIcEEE
librgw.so.2:_ZN23RGWAccessControlList_S313create_cannedER8ACLOwnerS1_RKNSt7__cxx1112basic_stringIcSt11char_traitsIcESaIcEEE
librgw.so.2:_ZN23RGWAccessControlList_S318create_from_grantsERNSt7__cxx114listI8ACLGrantSaIS2_EEE
librgw.so.2:_ZN23RGWAccessControlList_S36to_xmlERSo
librgw.so.2:_ZN23RGWAccessControlList_S37xml_endEPKc
librgw.so.2:_ZN23RGWAsyncUnlockSystemObj13_send_requestEv
librgw.so.2:_ZN23RGWAsyncUnlockSystemObjC1EP12RGWCoroutineP24RGWAioCompletionNotifierP8RGWRadosP20RGWObjVersionTrackerR7rgw_objRKNSt7__cxx1112basic_stringIcSt11char_traitsIcESaIcEEESH_
librgw.so.2:_ZN23RGWAsyncUnlockSystemObjC2EP12RGWCoroutineP24RGWAioCompletionNotifierP8RGWRadosP20RGWObjVersionTrackerR7rgw_objRKNSt7__cxx1112basic_stringIcSt11char_traitsIcESaIcEEESH_
librgw.so.2:_ZN23RGWCORSConfiguration_S36to_xmlERSo
librgw.so.2:_ZN23RGWCORSConfiguration_S37xml_endEPKc
librgw.so.2:_ZN23RGWDefaultZoneGroupInfo11decode_jsonEP7JSONObj
librgw.so.2:_ZN23RGWDeleteLC_ObjStore_S313send_responseEv
librgw.so.2:_ZN23RGWGetUsage_ObjStore_S310get_paramsEv
librgw.so.2:_ZN23RGWGetUsage_ObjStore_S313send_responseEv
librgw.so.2:_ZN23RGWHTTPHeadersCollector14receive_headerEPvm
librgw.so.2:_ZN23RGWListBucketMultiparts17verify_permissionEv
librgw.so.2:_ZN23RGWListBucketMultiparts7executeEv
librgw.so.2:_ZN23RGWListBucketMultiparts8pre_execEv
librgw.so.2:_ZN23UserAsyncRefreshHandler10init_fetchEv
librgw.so.2:_ZN23UserAsyncRefreshHandler15handle_responseEi
librgw.so.2:_ZN23rgw_bucket_pending_info11decode_jsonEP7JSONObj
librgw.so.2:_ZN23rgw_bucket_pending_info23generate_test_instancesERNSt7__cxx114listIPS_SaIS2_EEE
librgw.so.2:_ZN24CLSRGWIssueBucketRebuild8issue_opEiRKNSt7__cxx1112basic_stringIcSt11char_traitsIcESaIcEEE
librgw.so.2:_ZN24CLSRGWIssueSetTagTimeout8issue_opEiRKNSt7__cxx1112basic_stringIcSt11char_traitsIcESaIcEEE
librgw.so.2:_ZN24RGWAioCompletionNotifierC1EP20RGWCompletionManagerPv
librgw.so.2:_ZN24RGWAioCompletionNotifierC2EP20RGWCompletionManagerPv
librgw.so.2:_ZN24RGWBucketShardFullSyncCR7operateEv
librgw.so.2:_ZN24RGWCloneMetaLogCoroutine10state_initEv
librgw.so.2:_ZN24RGWCloneMetaLogCoroutine23state_read_shard_statusEv
librgw.so.2:_ZN24RGWCloneMetaLogCoroutine23state_send_rest_requestEv
librgw.so.2:_ZN24RGWCloneMetaLogCoroutine25state_store_mdlog_entriesEv
librgw.so.2:_ZN24RGWCloneMetaLogCoroutine27state_receive_rest_responseEv
librgw.so.2:_ZN24RGWCloneMetaLogCoroutine32state_read_shard_status_completeEv
librgw.so.2:_ZN24RGWCloneMetaLogCoroutine34state_store_mdlog_entries_completeEv
librgw.so.2:_ZN24RGWCloneMetaLogCoroutine7operateEv
librgw.so.2:_ZN24RGWDataSyncStatusManager14shard_obj_nameERKNSt7__cxx1112basic_stringIcSt11char_traitsIcESaIcEEEi
librgw.so.2:_ZN24RGWDataSyncStatusManager15sync_status_oidERKNSt7__cxx1112basic_stringIcSt11char_traitsIcESaIcEEE
librgw.so.2:_ZN24RGWDataSyncStatusManager4initEv
librgw.so.2:_ZN24RGWDataSyncStatusManager8finalizeEv
librgw.so.2:_ZN24RGWDefaultDataSyncModule11sync_objectEP14RGWDataSyncEnvR13RGWBucketInfoR11rgw_obj_keym
librgw.so.2:_ZN24RGWDefaultDataSyncModule13remove_objectEP14RGWDataSyncEnvR13RGWBucketInfoR11rgw_obj_keyRNSt6chrono10time_pointIN4ceph11time_detail10real_clockENS6_8durationImSt5ratioILl1ELl1000000000EEEEEEbm
librgw.so.2:_ZN24RGWDefaultDataSyncModule20create_delete_markerEP14RGWDataSyncEnvR13RGWBucketInfoR11rgw_obj_keyRNSt6chrono10time_pointIN4ceph11time_detail10real_clockENS6_8durationImSt5ratioILl1ELl1000000000EEEEEER22rgw_bucket_entry_ownerbm
librgw.so.2:_ZN24RGWDeleteObj_ObjStore_S310get_paramsEv
librgw.so.2:_ZN24RGWDeleteObj_ObjStore_S313send_responseEv
librgw.so.2:_ZN24RGWMetaSyncSingleEntryCR7operateEv
librgw.so.2:_ZN24RGWMetaSyncStatusManager4initEv
librgw.so.2:_ZN24RGWPeriodLatestEpochInfo11decode_jsonEP7JSONObj
librgw.so.2:_ZN24RGWRadosRemoveOmapKeysCR12send_requestEv
librgw.so.2:_ZN24RGWRadosRemoveOmapKeysCRC1EP8RGWRadosRK10rgw_bucketRKNSt7__cxx1112basic_stringIcSt11char_traitsIcESaIcEEERKSt3setISA_St4lessISA_ESaISA_EE
librgw.so.2:_ZN24RGWRadosRemoveOmapKeysCRC2EP8RGWRadosRK10rgw_bucketRKNSt7__cxx1112basic_stringIcSt11char_traitsIcESaIcEEERKSt3setISA_St4lessISA_ESaISA_EE
librgw.so.2:_ZN24RGWRadosRemoveOmapKeysCRD0Ev
librgw.so.2:_ZN24RGWRadosRemoveOmapKeysCRD1Ev
librgw.so.2:_ZN24RGWRadosRemoveOmapKeysCRD2Ev
librgw.so.2:_ZN24RGWReadRemoteMDLogInfoCR10spawn_nextEv
librgw.so.2:_ZN24rgw_bucket_olh_log_entry11decode_jsonEP7JSONObj
librgw.so.2:_ZN24rgw_bucket_olh_log_entry23generate_test_instancesERNSt7__cxx114listIPS_SaIS2_EEE
librgw.so.2:_ZN25BucketAsyncRefreshHandler10init_fetchEv
librgw.so.2:_ZN25BucketAsyncRefreshHandler15handle_responseEi
librgw.so.2:_ZN25RGWAccessControlPolicy_S318compare_group_nameERNSt7__cxx1112basic_stringIcSt11char_traitsIcESaIcEEE16ACLGroupTypeEnum
librgw.so.2:_ZN25RGWAccessControlPolicy_S319create_from_headersEP8RGWRadosP6RGWEnvR8ACLOwner
librgw.so.2:_ZN25RGWAccessControlPolicy_S36to_xmlERSo
librgw.so.2:_ZN25RGWAccessControlPolicy_S37rebuildEP8RGWRadosP8ACLOwnerR22RGWAccessControlPolicy
librgw.so.2:_ZN25RGWAccessControlPolicy_S37xml_endEPKc
librgw.so.2:_ZN25RGWAsyncPutSystemObjAttrs13_send_requestEv
librgw.so.2:_ZN25RGWAsyncPutSystemObjAttrsC1EP12RGWCoroutineP24RGWAioCompletionNotifierP8RGWRadosP20RGWObjVersionTrackerR7rgw_objPSt3mapINSt7__cxx1112basic_stringIcSt11char_traitsIcESaIcEEEN4ceph6buffer4listESt4lessISG_ESaISt4pairIKSG_SJ_EEE
librgw.so.2:_ZN25RGWAsyncPutSystemObjAttrsC2EP12RGWCoroutineP24RGWAioCompletionNotifierP8RGWRadosP20RGWObjVersionTrackerR7rgw_objPSt3mapINSt7__cxx1112basic_stringIcSt11char_traitsIcESaIcEEEN4ceph6buffer4listESt4lessISG_ESaISt4pairIKSG_SJ_EEE
librgw.so.2:_ZN25RGWBWRoutingRuleCondition10decode_xmlEP6XMLObj
librgw.so.2:_ZN25RGWBWRoutingRuleCondition11decode_jsonEP7JSONObj
librgw.so.2:_ZN25RGWBWRoutingRuleCondition19check_key_conditionERKNSt7__cxx1112basic_stringIcSt11char_traitsIcESaIcEEE
librgw.so.2:_ZN25RGWDeleteCORS_ObjStore_S313send_responseEv
librgw.so.2:_ZN25RGWHandler_REST_Bucket_S310get_obj_opEb
librgw.so.2:_ZN25RGWHandler_REST_Bucket_S310op_optionsEv
librgw.so.2:_ZN25RGWHandler_REST_Bucket_S36op_getEv
librgw.so.2:_ZN25RGWHandler_REST_Bucket_S36op_putEv
librgw.so.2:_ZN25RGWHandler_REST_Bucket_S37op_headEv
librgw.so.2:_ZN25RGWHandler_REST_Bucket_S37op_postEv
librgw.so.2:_ZN25RGWHandler_REST_Bucket_S39op_deleteEv
librgw.so.2:_ZN25RGWHandler_REST_S3Website13error_handlerEiPNSt7__cxx1112basic_stringIcSt11char_traitsIcESaIcEEE
librgw.so.2:_ZN25RGWHandler_REST_S3Website14serve_errordocEiRKNSt7__cxx1112basic_stringIcSt11char_traitsIcESaIcEEE
librgw.so.2:_ZN25RGWHandler_REST_S3Website6op_getEv
librgw.so.2:_ZN25RGWHandler_REST_S3Website7op_headEv
librgw.so.2:_ZN25RGWHandler_REST_S3Website8retargetEP5RGWOpPS1_
librgw.so.2:_ZN25RGWLifecycleConfiguration8add_ruleEP6LCRule
librgw.so.2:_ZN25RGWLifecycleConfiguration9_add_ruleEP6LCRule
librgw.so.2:_ZN25RGWListBucket_ObjStore_S310get_paramsEv
librgw.so.2:_ZN25RGWListBucket_ObjStore_S313send_responseEv
librgw.so.2:_ZN25RGWListBucket_ObjStore_S323send_versioned_responseEv
librgw.so.2:_ZN25RGWListMultipart_ObjStore10get_paramsEv
librgw.so.2:_ZN25RGWPutObjProcessor_Atomic10write_dataERN4ceph6buffer4listElPPvP7rgw_objb
librgw.so.2:_ZN25RGWPutObjProcessor_Atomic11do_completeEmRKNSt7__cxx1112basic_stringIcSt11char_traitsIcESaIcEEEPNSt6chrono10time_pointIN4ceph11time_detail10real_clockENS8_8durationImSt5ratioILl1ELl1000000000EEEEEESH_RSt3mapIS5_NSA_6buffer4listESt4lessIS5_ESaISt4pairIS6_SL_EEESH_PKcSU_
librgw.so.2:_ZN25RGWPutObjProcessor_Atomic11handle_dataERN4ceph6buffer4listElPPvP7rgw_objPb
librgw.so.2:_ZN25RGWPutObjProcessor_Atomic12prepare_initEP8RGWRadosPNSt7__cxx1112basic_stringIcSt11char_traitsIcESaIcEEE
librgw.so.2:_ZN25RGWPutObjProcessor_Atomic14complete_partsEv
librgw.so.2:_ZN25RGWPutObjProcessor_Atomic17prepare_next_partEl
librgw.so.2:_ZN25RGWPutObjProcessor_Atomic21complete_writing_dataEv
librgw.so.2:_ZN25RGWPutObjProcessor_Atomic7prepareEP8RGWRadosPNSt7__cxx1112basic_stringIcSt11char_traitsIcESaIcEEE
librgw.so.2:_ZN25RGWRESTStreamWriteRequest12put_obj_initER12RGWAccessKeyR7rgw_objmRSt3mapINSt7__cxx1112basic_stringIcSt11char_traitsIcESaIcEEEN4ceph6buffer4listESt4lessISA_ESaISt4pairIKSA_SD_EEE
librgw.so.2:_ZN25RGWRESTStreamWriteRequest15add_output_dataERN4ceph6buffer4listE
librgw.so.2:_ZN25RGWRESTStreamWriteRequest8completeERNSt7__cxx1112basic_stringIcSt11char_traitsIcESaIcEEEPNSt6chrono10time_pointIN4ceph11time_detail10real_clockENS7_8durationImSt5ratioILl1ELl1000000000EEEEEE
librgw.so.2:_ZN25RGWRESTStreamWriteRequest9send_dataEPvm
librgw.so.2:_ZN25RGWRESTStreamWriteRequestD0Ev
librgw.so.2:_ZN25RGWRESTStreamWriteRequestD1Ev
librgw.so.2:_ZN25RGWRESTStreamWriteRequestD2Ev
librgw.so.2:_ZN25RGWRunBucketSyncCoroutine7operateEv
librgw.so.2:_ZN25RGWSimpleRadosReadAttrsCR12send_requestEv
librgw.so.2:_ZN25RGWSimpleRadosReadAttrsCR16request_completeEv
librgw.so.2:_ZN25RGWStatBucket_ObjStore_S313send_responseEv
librgw.so.2:_ZN25rgw_bucket_category_stats23generate_test_instancesERNSt7__cxx114listIPS_SaIS2_EEE
librgw.so.2:_ZN25rgw_bucket_dir_entry_meta11decode_jsonEP7JSONObj
librgw.so.2:_ZN25rgw_bucket_dir_entry_meta23generate_test_instancesERNSt7__cxx114listIPS_SaIS2_EEE
librgw.so.2:_ZN25rgw_data_change_log_entry11decode_jsonEP7JSONObj
librgw.so.2:_ZN26CLSRGWIssueBucketIndexInit7cleanupEv
librgw.so.2:_ZN26CLSRGWIssueBucketIndexInit8issue_opEiRKNSt7__cxx1112basic_stringIcSt11char_traitsIcESaIcEEE
librgw.so.2:_ZN26RGWBucketSyncStatusManager10status_oidERKNSt7__cxx1112basic_stringIcSt11char_traitsIcESaIcEEERK16rgw_bucket_shard
librgw.so.2:_ZN26RGWBucketSyncStatusManager16init_sync_statusEv
librgw.so.2:_ZN26RGWBucketSyncStatusManager16read_sync_statusEv
librgw.so.2:_ZN26RGWBucketSyncStatusManager3runEv
librgw.so.2:_ZN26RGWBucketSyncStatusManager4initEv
librgw.so.2:_ZN26RGWBucketSyncStatusManagerD1Ev
librgw.so.2:_ZN26RGWBucketSyncStatusManagerD2Ev
librgw.so.2:_ZN26RGWDeleteMultiObj_ObjStore10get_paramsEv
librgw.so.2:_ZN26RGWHandler_REST_Service_S36op_getEv
librgw.so.2:_ZN26RGWHandler_REST_Service_S37op_headEv
librgw.so.2:_ZN26RGWListBuckets_ObjStore_S317send_response_endEv
librgw.so.2:_ZN26RGWListBuckets_ObjStore_S318send_response_dataER14RGWUserBuckets
librgw.so.2:_ZN26RGWListBuckets_ObjStore_S319send_response_beginEb
librgw.so.2:_ZN26RGWOptionsCORS_ObjStore_S313send_responseEv
librgw.so.2:_ZN26RGWReadRemoteDataLogInfoCR10spawn_nextEv
librgw.so.2:_ZN26RGWReadSyncStatusCoroutine11handle_dataER18rgw_meta_sync_info
librgw.so.2:_ZN26rgw_bucket_shard_sync_info16encode_all_attrsERSt3mapINSt7__cxx1112basic_stringIcSt11char_traitsIcESaIcEEEN4ceph6buffer4listESt4lessIS6_ESaISt4pairIKS6_S9_EEE
librgw.so.2:_ZN26rgw_bucket_shard_sync_info17decode_from_attrsEP11CephContextRSt3mapINSt7__cxx1112basic_stringIcSt11char_traitsIcESaIcEEEN4ceph6buffer4listESt4lessIS8_ESaISt4pairIKS8_SB_EEE
librgw.so.2:_ZN26rgw_bucket_shard_sync_info17encode_state_attrERSt3mapINSt7__cxx1112basic_stringIcSt11char_traitsIcESaIcEEEN4ceph6buffer4listESt4lessIS6_ESaISt4pairIKS6_S9_EEE
librgw.so.2:_ZN27RGWCreateBucket_ObjStore_S310get_paramsEv
librgw.so.2:_ZN27RGWCreateBucket_ObjStore_S313send_responseEv
librgw.so.2:_ZN27RGWDefaultSystemMetaObjInfo11decode_jsonEP7JSONObj
librgw.so.2:_ZN27RGWDeleteBucket_ObjStore_S313send_responseEv
librgw.so.2:_ZN27RGWZoneGroupPlacementTarget11decode_jsonEP7JSONObj
librgw.so.2:_ZN28RGWCoroutinesManagerRegistry21hook_to_admin_commandERKNSt7__cxx1112basic_stringIcSt11char_traitsIcESaIcEEE
librgw.so.2:_ZN28RGWCoroutinesManagerRegistry3addEP20RGWCoroutinesManager
librgw.so.2:_ZN28RGWCoroutinesManagerRegistry4callENSt7__cxx1112basic_stringIcSt11char_traitsIcESaIcEEERSt3mapIS5_N5boost7variantIS5_JbldSt6vectorIS5_SaIS5_EES9_IlSaIlEEEEESt4lessIS5_ESaISt4pairIKS5_SE_EEES5_RN4ceph6buffer4listE
librgw.so.2:_ZN28RGWCoroutinesManagerRegistry6removeEP20RGWCoroutinesManager
librgw.so.2:_ZN28RGWCoroutinesManagerRegistryD0Ev
librgw.so.2:_ZN28RGWCoroutinesManagerRegistryD1Ev
librgw.so.2:_ZN28RGWCoroutinesManagerRegistryD2Ev
librgw.so.2:_ZN28RGWGetObj_ObjStore_S3Website18send_response_dataERN4ceph6buffer4listEll
librgw.so.2:_ZN28RGWGetObj_ObjStore_S3Website24send_response_data_errorEv
librgw.so.2:_ZN28RGWInitMultipart_ObjStore_S310get_paramsEv
librgw.so.2:_ZN28RGWInitMultipart_ObjStore_S313send_responseEv
librgw.so.2:_ZN28RGWLifecycleConfiguration_S37rebuildEP8RGWRadosR25RGWLifecycleConfiguration
librgw.so.2:_ZN28RGWLifecycleConfiguration_S37xml_endEPKc
librgw.so.2:_ZN28RGWListMultipart_ObjStore_S313send_responseEv
librgw.so.2:_ZN28RGWMetadataLogInfoCompletionC1ESt8functionIFviRK14cls_log_headerEE
librgw.so.2:_ZN28RGWMetadataLogInfoCompletionC2ESt8functionIFviRK14cls_log_headerEE
librgw.so.2:_ZN28RGWMetadataLogInfoCompletionD0Ev
librgw.so.2:_ZN28RGWMetadataLogInfoCompletionD1Ev
librgw.so.2:_ZN28RGWMetadataLogInfoCompletionD2Ev
librgw.so.2:_ZN28RGWPutObjProcessor_Multipart11do_completeEmRKNSt7__cxx1112basic_stringIcSt11char_traitsIcESaIcEEEPNSt6chrono10time_pointIN4ceph11time_detail10real_clockENS8_8durationImSt5ratioILl1ELl1000000000EEEEEESH_RSt3mapIS5_NSA_6buffer4listESt4lessIS5_ESaISt4pairIS6_SL_EEESH_PKcSU_
librgw.so.2:_ZN28RGWPutObjProcessor_Multipart7prepareEP8RGWRadosPNSt7__cxx1112basic_stringIcSt11char_traitsIcESaIcEEE
librgw.so.2:_ZN29RGWAbortMultipart_ObjStore_S313send_responseEv
librgw.so.2:_ZN29RGWAsyncGetBucketInstanceInfo13_send_requestEv
librgw.so.2:_ZN29RGWCompleteMultipart_ObjStore10get_paramsEv
librgw.so.2:_ZN29RGWDeleteMultiObj_ObjStore_S310get_paramsEv
librgw.so.2:_ZN29RGWDeleteMultiObj_ObjStore_S311send_statusEv
librgw.so.2:_ZN29RGWDeleteMultiObj_ObjStore_S312end_responseEv
librgw.so.2:_ZN29RGWDeleteMultiObj_ObjStore_S314begin_responseEv
librgw.so.2:_ZN29RGWDeleteMultiObj_ObjStore_S321send_partial_responseER11rgw_obj_keybRKNSt7__cxx1112basic_stringIcSt11char_traitsIcESaIcEEEi
librgw.so.2:_ZN29RGWHandler_REST_Obj_S3Website10get_obj_opEb
librgw.so.2:_ZN30RGWReadDataSyncStatusCoroutine7operateEv
librgw.so.2:_ZN30RGWReadDataSyncStatusMarkersCR10spawn_nextEv
librgw.so.2:_ZN31RGWBucketShardIncrementalSyncCR7operateEv
librgw.so.2:_ZN31RGWGetBucketLogging_ObjStore_S313send_responseEv
librgw.so.2:_ZN31RGWGetBucketWebsite_ObjStore_S313send_responseEv
librgw.so.2:_ZN31RGWSetBucketWebsite_ObjStore_S310get_paramsEv
librgw.so.2:_ZN31RGWSetBucketWebsite_ObjStore_S313send_responseEv
librgw.so.2:_ZN31RGWSwiftWebsiteListingFormatter11dump_objectERK9RGWObjEnt
librgw.so.2:_ZN31RGWSwiftWebsiteListingFormatter11dump_subdirERKNSt7__cxx1112basic_stringIcSt11char_traitsIcESaIcEEE
librgw.so.2:_ZN31RGWSwiftWebsiteListingFormatter15generate_footerEv
librgw.so.2:_ZN31RGWSwiftWebsiteListingFormatter15generate_headerERKNSt7__cxx1112basic_stringIcSt11char_traitsIcESaIcEEES7_
librgw.so.2:_ZN32RGWCompleteMultipart_ObjStore_S310get_paramsEv
librgw.so.2:_ZN32RGWCompleteMultipart_ObjStore_S313send_responseEv
librgw.so.2:_ZN32RGWGetBucketLocation_ObjStore_S313send_responseEv
librgw.so.2:_ZN32RGWGetRequestPayment_ObjStore_S313send_responseEv
librgw.so.2:_ZN32RGWHandler_REST_Bucket_S3Website10get_obj_opEb
librgw.so.2:_ZN32RGWListBucketMultiparts_ObjStore10get_paramsEv
librgw.so.2:_ZN32RGWReadBucketSyncStatusCoroutine7operateEv
librgw.so.2:_ZN32RGWSetRequestPayment_ObjStore_S310get_paramsEv
librgw.so.2:_ZN32RGWSetRequestPayment_ObjStore_S313send_responseEv
librgw.so.2:_ZN32rgw_bucket_shard_inc_sync_marker11encode_attrERSt3mapINSt7__cxx1112basic_stringIcSt11char_traitsIcESaIcEEEN4ceph6buffer4listESt4lessIS6_ESaISt4pairIKS6_S9_EEE
librgw.so.2:_ZN33RGWHandler_REST_Service_S3Website10get_obj_opEb
librgw.so.2:_ZN33rgw_bucket_shard_full_sync_marker11encode_attrERSt3mapINSt7__cxx1112basic_stringIcSt11char_traitsIcESaIcEEEN4ceph6buffer4listESt4lessIS6_ESaISt4pairIKS6_S9_EEE
librgw.so.2:_ZN34RGWDeleteBucketWebsite_ObjStore_S313send_responseEv
librgw.so.2:_ZN34RGWGetBucketVersioning_ObjStore_S313send_responseEv
librgw.so.2:_ZN34RGWSetBucketVersioning_ObjStore_S310get_paramsEv
librgw.so.2:_ZN34RGWSetBucketVersioning_ObjStore_S313send_responseEv
librgw.so.2:_ZN34RGW_Auth_S3_Keystone_ValidateToken16validate_s3tokenERKNSt7__cxx1112basic_stringIcSt11char_traitsIcESaIcEEES7_S7_
librgw.so.2:_ZN35RGWListBucketMultiparts_ObjStore_S313send_responseEv
librgw.so.2:_ZN3rgw10LDAPHelper4authENSt7__cxx1112basic_stringIcSt11char_traitsIcESaIcEEES6_
librgw.so.2:_ZN3rgw13RGWFileHandle12decode_attrsEPKN4ceph6buffer4listES5_
librgw.so.2:_ZN3rgw13RGWFileHandle12encode_attrsERN4ceph6buffer4listES4_
librgw.so.2:_ZN3rgw13RGWFileHandle12write_finishEj
librgw.so.2:_ZN3rgw13RGWFileHandle4fileD1Ev
librgw.so.2:_ZN3rgw13RGWFileHandle4fileD2Ev
librgw.so.2:_ZN3rgw13RGWFileHandle5closeEv
librgw.so.2:_ZN3rgw13RGWFileHandle5writeEmmPmPv
librgw.so.2:_ZN3rgw13RGWFileHandle7readdirEPFbPKcPvmES3_PmPbj
librgw.so.2:_ZN3rgw13RGWFileHandle7reclaimEv
librgw.so.2:_ZN3rgw13RGWLibProcess10checkpointEv
librgw.so.2:_ZN3rgw13RGWLibProcess13start_requestEPNS_18RGWLibContinuedReqE
librgw.so.2:_ZN3rgw13RGWLibProcess14finish_requestEPNS_18RGWLibContinuedReqE
librgw.so.2:_ZN3rgw13RGWLibProcess14handle_requestEP10RGWRequest
librgw.so.2:_ZN3rgw13RGWLibProcess15process_requestEPNS_13RGWLibRequestE
librgw.so.2:_ZN3rgw13RGWLibProcess15process_requestEPNS_13RGWLibRequestEPNS_8RGWLibIOE
librgw.so.2:_ZN3rgw13RGWLibProcess3runEv
librgw.so.2:_ZN3rgw13RGWLibRequest16read_permissionsEP5RGWOp
librgw.so.2:_ZN3rgw14RGWHandler_Lib16init_from_headerEP9req_state
librgw.so.2:_ZN3rgw14RGWHandler_Lib9authorizeEv
librgw.so.2:_ZN3rgw14RGWLibFrontend4initEv
librgw.so.2:_ZN3rgw15RGWWriteRequest10exec_startEv
librgw.so.2:_ZN3rgw15RGWWriteRequest11exec_finishEv
librgw.so.2:_ZN3rgw15RGWWriteRequest13exec_continueEv
librgw.so.2:_ZN3rgw2io11BasicClient4initEP11CephContext
librgw.so.2:_ZN3rgw6RGWLib4initERSt6vectorIPKcSaIS3_EE
librgw.so.2:_ZN3rgw6RGWLib4initEv
librgw.so.2:_ZN3rgw6RGWLib4stopEv
librgw.so.2:_ZN3rgw8RGWLibFS11stat_bucketEPNS_13RGWFileHandleEPKcj
librgw.so.2:_ZN3rgw8RGWLibFS2gcEv
librgw.so.2:_ZN3rgw8RGWLibFS4readEPNS_13RGWFileHandleEmmPmPvj
librgw.so.2:_ZN3rgw8RGWLibFS5closeEv
librgw.so.2:_ZN3rgw8RGWLibFS5mkdirEPNS_13RGWFileHandleEPKcP4statjj
librgw.so.2:_ZN3rgw8RGWLibFS6createEPNS_13RGWFileHandleEPKcP4statjj
librgw.so.2:_ZN3rgw8RGWLibFS6renameEPNS_13RGWFileHandleES2_PKcS4_
librgw.so.2:_ZN3rgw8RGWLibFS6unlinkEPNS_13RGWFileHandleEPKcj
librgw.so.2:_ZN3rgw8RGWLibFS7getattrEPNS_13RGWFileHandleEP4stat
librgw.so.2:_ZN3rgw8RGWLibFS7setattrEPNS_13RGWFileHandleEP4statjj
librgw.so.2:_ZN3rgw8RGWLibFS9stat_leafEPNS_13RGWFileHandleEPKcj
librgw.so.2:_ZN3rgw8RGWLibIO7set_uidEP8RGWRadosRK8rgw_user
librgw.so.2:_ZN4ceph11DNSResolver13resolve_cnameEP11CephContextRKNSt7__cxx1112basic_stringIcSt11char_traitsIcESaIcEEEPS8_Pb
librgw.so.2:_ZN4ceph11DNSResolver15resolve_ip_addrEP11CephContextPP11__res_stateRKNSt7__cxx1112basic_stringIcSt11char_traitsIcESaIcEEEP13entity_addr_t
librgw.so.2:_ZN4ceph11DNSResolver15resolve_ip_addrEP11CephContextRKNSt7__cxx1112basic_stringIcSt11char_traitsIcESaIcEEEP13entity_addr_t
librgw.so.2:_ZN4ceph11DNSResolver17resolve_srv_hostsEP11CephContextRKNSt7__cxx1112basic_stringIcSt11char_traitsIcESaIcEEENS0_12SRV_ProtocolEPSt3mapIS8_13entity_addr_tSt4lessIS8_ESaISt4pairIS9_SD_EEE
librgw.so.2:_ZN4ceph11DNSResolver17resolve_srv_hostsEP11CephContextRKNSt7__cxx1112basic_stringIcSt11char_traitsIcESaIcEEENS0_12SRV_ProtocolESA_PSt3mapIS8_13entity_addr_tSt4lessIS8_ESaISt4pairIS9_SD_EEE
librgw.so.2:_ZN4ceph11DNSResolver9get_stateEP11CephContextPP11__res_state
librgw.so.2:_ZN4ceph11DNSResolver9put_stateEP11__res_state
librgw.so.2:_ZN4ceph11DNSResolverD1Ev
librgw.so.2:_ZN4ceph11DNSResolverD2Ev
librgw.so.2:_ZN4ceph11time_detail10real_clock16to_ceph_timespecERKNSt6chrono10time_pointIS1_NS2_8durationImSt5ratioILl1ELl1000000000EEEEEE
librgw.so.2:_ZN4ceph11time_detail10real_clock16to_ceph_timespecERKNSt6chrono10time_pointIS1_NS2_8durationImSt5ratioILl1ELl1000000000EEEEEER13ceph_timespec
librgw.so.2:_ZN4ceph11time_detail10real_clock18from_ceph_timespecERK13ceph_timespec
librgw.so.2:_ZN4ceph11time_detail10real_clock3nowEPK11CephContext
librgw.so.2:_ZN4ceph11time_detail17coarse_real_clock16to_ceph_timespecERKNSt6chrono10time_pointIS1_NS2_8durationImSt5ratioILl1ELl1000000000EEEEEE
librgw.so.2:_ZN4ceph11time_detail17coarse_real_clock16to_ceph_timespecERKNSt6chrono10time_pointIS1_NS2_8durationImSt5ratioILl1ELl1000000000EEEEEER13ceph_timespec
librgw.so.2:_ZN4ceph11time_detail17coarse_real_clock18from_ceph_timespecERK13ceph_timespec
librgw.so.2:_ZN4ceph11time_detail17coarse_real_clock3nowEPK11CephContext
librgw.so.2:_ZN4ceph12HeartbeatMap10add_workerERKNSt7__cxx1112basic_stringIcSt11char_traitsIcESaIcEEEm
librgw.so.2:_ZN4ceph12HeartbeatMap10is_healthyEv
librgw.so.2:_ZN4ceph12HeartbeatMap13clear_timeoutEPNS_18heartbeat_handle_dE
librgw.so.2:_ZN4ceph12HeartbeatMap13remove_workerEPKNS_18heartbeat_handle_dE
librgw.so.2:_ZN4ceph12HeartbeatMap13reset_timeoutEPNS_18heartbeat_handle_dEll
librgw.so.2:_ZN4ceph12HeartbeatMap16check_touch_fileEv
librgw.so.2:_ZN4ceph12HeartbeatMap6_checkEPKNS_18heartbeat_handle_dEPKcl
librgw.so.2:_ZN4ceph12HeartbeatMapC1EP11CephContext
librgw.so.2:_ZN4ceph12HeartbeatMapC2EP11CephContext
librgw.so.2:_ZN4ceph12HeartbeatMapD1Ev
librgw.so.2:_ZN4ceph12HeartbeatMapD2Ev
librgw.so.2:_ZN4ceph12XMLFormatter10dump_floatEPKcd
librgw.so.2:_ZN4ceph12XMLFormatter11dump_streamEPKc
librgw.so.2:_ZN4ceph12XMLFormatter11dump_stringEPKcRKNSt7__cxx1112basic_stringIcSt11char_traitsIcESaIcEEE
librgw.so.2:_ZN4ceph12XMLFormatter12print_spacesEv
librgw.so.2:_ZN4ceph12XMLFormatter13close_sectionEv
librgw.so.2:_ZN4ceph12XMLFormatter13dump_unsignedEPKcm
librgw.so.2:_ZN4ceph12XMLFormatter13get_attrs_strEPKNS_14FormatterAttrsERNSt7__cxx1112basic_stringIcSt11char_traitsIcESaIcEEE
librgw.so.2:_ZN4ceph12XMLFormatter13output_footerEv
librgw.so.2:_ZN4ceph12XMLFormatter13output_headerEv
librgw.so.2:_ZN4ceph12XMLFormatter14dump_format_vaEPKcS2_bS2_P13__va_list_tag
librgw.so.2:_ZN4ceph12XMLFormatter14escape_xml_strB5cxx11EPKc
librgw.so.2:_ZN4ceph12XMLFormatter14write_raw_dataEPKc
librgw.so.2:_ZN4ceph12XMLFormatter18open_array_sectionEPKc
librgw.so.2:_ZN4ceph12XMLFormatter18open_section_in_nsEPKcS2_PKNS_14FormatterAttrsE
librgw.so.2:_ZN4ceph12XMLFormatter19open_object_sectionEPKc
librgw.so.2:_ZN4ceph12XMLFormatter21finish_pending_stringEv
librgw.so.2:_ZN4ceph12XMLFormatter22dump_string_with_attrsEPKcRKNSt7__cxx1112basic_stringIcSt11char_traitsIcESaIcEEERKNS_14FormatterAttrsE
librgw.so.2:_ZN4ceph12XMLFormatter24open_array_section_in_nsEPKcS2_
librgw.so.2:_ZN4ceph12XMLFormatter25open_object_section_in_nsEPKcS2_
librgw.so.2:_ZN4ceph12XMLFormatter29open_array_section_with_attrsEPKcRKNS_14FormatterAttrsE
librgw.so.2:_ZN4ceph12XMLFormatter30open_object_section_with_attrsEPKcRKNS_14FormatterAttrsE
librgw.so.2:_ZN4ceph12XMLFormatter5flushERSo
librgw.so.2:_ZN4ceph12XMLFormatter5resetEv
librgw.so.2:_ZN4ceph12XMLFormatter8dump_intEPKcl
librgw.so.2:_ZN4ceph12XMLFormatterC1Ebb
librgw.so.2:_ZN4ceph12XMLFormatterC2Ebb
librgw.so.2:_ZN4ceph12_get_bits_ofEi
librgw.so.2:_ZN4ceph13HTMLFormatter10dump_floatEPKcd
librgw.so.2:_ZN4ceph13HTMLFormatter10set_statusEiPKc
librgw.so.2:_ZN4ceph13HTMLFormatter11dump_streamEPKc
librgw.so.2:_ZN4ceph13HTMLFormatter11dump_stringEPKcRKNSt7__cxx1112basic_stringIcSt11char_traitsIcESaIcEEE
librgw.so.2:_ZN4ceph13HTMLFormatter13dump_unsignedEPKcm
librgw.so.2:_ZN4ceph13HTMLFormatter13output_headerEv
librgw.so.2:_ZN4ceph13HTMLFormatter14dump_format_vaEPKcS2_bS2_P13__va_list_tag
librgw.so.2:_ZN4ceph13HTMLFormatter22dump_string_with_attrsEPKcRKNSt7__cxx1112basic_stringIcSt11char_traitsIcESaIcEEERKNS_14FormatterAttrsE
librgw.so.2:_ZN4ceph13HTMLFormatter5resetEv
librgw.so.2:_ZN4ceph13HTMLFormatter8dump_intEPKcl
librgw.so.2:_ZN4ceph13HTMLFormatterC1Eb
librgw.so.2:_ZN4ceph13HTMLFormatterC2Eb
librgw.so.2:_ZN4ceph13HTMLFormatterD0Ev
librgw.so.2:_ZN4ceph13HTMLFormatterD1Ev
librgw.so.2:_ZN4ceph13HTMLFormatterD2Ev
librgw.so.2:_ZN4ceph13JSONFormatter10dump_floatEPKcd
librgw.so.2:_ZN4ceph13JSONFormatter10print_nameEPKc
librgw.so.2:_ZN4ceph13JSONFormatter11dump_streamEPKc
librgw.so.2:_ZN4ceph13JSONFormatter11dump_stringEPKcRKNSt7__cxx1112basic_stringIcSt11char_traitsIcESaIcEEE
librgw.so.2:_ZN4ceph13JSONFormatter11print_commaERNS0_28json_formatter_stack_entry_dE
librgw.so.2:_ZN4ceph13JSONFormatter12open_sectionEPKcb
librgw.so.2:_ZN4ceph13JSONFormatter13close_sectionEv
librgw.so.2:_ZN4ceph13JSONFormatter13dump_unsignedEPKcm
librgw.so.2:_ZN4ceph13JSONFormatter14dump_format_vaEPKcS2_bS2_P13__va_list_tag
librgw.so.2:_ZN4ceph13JSONFormatter14write_raw_dataEPKc
librgw.so.2:_ZN4ceph13JSONFormatter18open_array_sectionEPKc
librgw.so.2:_ZN4ceph13JSONFormatter19open_object_sectionEPKc
librgw.so.2:_ZN4ceph13JSONFormatter19print_quoted_stringERKNSt7__cxx1112basic_stringIcSt11char_traitsIcESaIcEEE
librgw.so.2:_ZN4ceph13JSONFormatter21finish_pending_stringEv
librgw.so.2:_ZN4ceph13JSONFormatter24open_array_section_in_nsEPKcS2_
librgw.so.2:_ZN4ceph13JSONFormatter25open_object_section_in_nsEPKcS2_
librgw.so.2:_ZN4ceph13JSONFormatter5flushERSo
librgw.so.2:_ZN4ceph13JSONFormatter5resetEv
librgw.so.2:_ZN4ceph13JSONFormatter8dump_intEPKcl
librgw.so.2:_ZN4ceph13JSONFormatterC1Eb
librgw.so.2:_ZN4ceph13JSONFormatterC2Eb
librgw.so.2:_ZN4ceph14FormatterAttrsC1EPKcz
librgw.so.2:_ZN4ceph14FormatterAttrsC2EPKcz
librgw.so.2:_ZN4ceph14PluginRegistry13get_with_loadERKNSt7__cxx1112basic_stringIcSt11char_traitsIcESaIcEEES8_
librgw.so.2:_ZN4ceph14PluginRegistry3addERKNSt7__cxx1112basic_stringIcSt11char_traitsIcESaIcEEES8_PNS_6PluginE
librgw.so.2:_ZN4ceph14PluginRegistry3getERKNSt7__cxx1112basic_stringIcSt11char_traitsIcESaIcEEES8_
librgw.so.2:_ZN4ceph14PluginRegistry4loadERKNSt7__cxx1112basic_stringIcSt11char_traitsIcESaIcEEES8_
librgw.so.2:_ZN4ceph14PluginRegistry6removeERKNSt7__cxx1112basic_stringIcSt11char_traitsIcESaIcEEES8_
librgw.so.2:_ZN4ceph14PluginRegistryC1EP11CephContext
librgw.so.2:_ZN4ceph14PluginRegistryC2EP11CephContext
librgw.so.2:_ZN4ceph14PluginRegistryD1Ev
librgw.so.2:_ZN4ceph14PluginRegistryD2Ev
librgw.so.2:_ZN4ceph14ResolvHWrapper12__res_nqueryEP11__res_statePKciiPhi
librgw.so.2:_ZN4ceph14ResolvHWrapper13__res_nsearchEP11__res_statePKciiPhi
librgw.so.2:_ZN4ceph14TableFormatter10dump_floatEPKcd
librgw.so.2:_ZN4ceph14TableFormatter11dump_streamEPKc
librgw.so.2:_ZN4ceph14TableFormatter11dump_stringEPKcRKNSt7__cxx1112basic_stringIcSt11char_traitsIcESaIcEEE
librgw.so.2:_ZN4ceph14TableFormatter11m_vec_indexEPKc
librgw.so.2:_ZN4ceph14TableFormatter13close_sectionEv
librgw.so.2:_ZN4ceph14TableFormatter13dump_unsignedEPKcm
librgw.so.2:_ZN4ceph14TableFormatter13get_attrs_strEPKNS_14FormatterAttrsERNSt7__cxx1112basic_stringIcSt11char_traitsIcESaIcEEE
librgw.so.2:_ZN4ceph14TableFormatter14dump_format_vaEPKcS2_bS2_P13__va_list_tag
librgw.so.2:_ZN4ceph14TableFormatter14write_raw_dataEPKc
librgw.so.2:_ZN4ceph14TableFormatter16get_section_nameB5cxx11EPKc
librgw.so.2:_ZN4ceph14TableFormatter18open_array_sectionEPKc
librgw.so.2:_ZN4ceph14TableFormatter18open_section_in_nsEPKcS2_PKNS_14FormatterAttrsE
librgw.so.2:_ZN4ceph14TableFormatter19open_object_sectionEPKc
librgw.so.2:_ZN4ceph14TableFormatter21finish_pending_stringEv
librgw.so.2:_ZN4ceph14TableFormatter22dump_string_with_attrsEPKcRKNSt7__cxx1112basic_stringIcSt11char_traitsIcESaIcEEERKNS_14FormatterAttrsE
librgw.so.2:_ZN4ceph14TableFormatter24open_array_section_in_nsEPKcS2_
librgw.so.2:_ZN4ceph14TableFormatter25open_object_section_in_nsEPKcS2_
librgw.so.2:_ZN4ceph14TableFormatter29open_array_section_with_attrsEPKcRKNS_14FormatterAttrsE
librgw.so.2:_ZN4ceph14TableFormatter30open_object_section_with_attrsEPKcRKNS_14FormatterAttrsE
librgw.so.2:_ZN4ceph14TableFormatter5flushERSo
librgw.so.2:_ZN4ceph14TableFormatter5resetEv
librgw.so.2:_ZN4ceph14TableFormatter8dump_intEPKcl
librgw.so.2:_ZN4ceph14TableFormatterC1Eb
librgw.so.2:_ZN4ceph14TableFormatterC2Eb
librgw.so.2:_ZN4ceph18__ceph_assert_failEPKcS1_iS1_
librgw.so.2:_ZN4ceph18__ceph_assert_warnEPKcS1_iS1_
librgw.so.2:_ZN4ceph19__ceph_assertf_failEPKcS1_iS1_S1_z
librgw.so.2:_ZN4ceph23register_assert_contextEP11CephContext
librgw.so.2:_ZN4ceph25ErasureCodePluginRegistry3addERKNSt7__cxx1112basic_stringIcSt11char_traitsIcESaIcEEEPNS_17ErasureCodePluginE
librgw.so.2:_ZN4ceph25ErasureCodePluginRegistry3getERKNSt7__cxx1112basic_stringIcSt11char_traitsIcESaIcEEE
librgw.so.2:_ZN4ceph25ErasureCodePluginRegistry4loadERKNSt7__cxx1112basic_stringIcSt11char_traitsIcESaIcEEES8_PPNS_17ErasureCodePluginEPSo
librgw.so.2:_ZN4ceph25ErasureCodePluginRegistry6removeERKNSt7__cxx1112basic_stringIcSt11char_traitsIcESaIcEEE
librgw.so.2:_ZN4ceph25ErasureCodePluginRegistry7factoryERKNSt7__cxx1112basic_stringIcSt11char_traitsIcESaIcEEES8_RSt3mapIS6_S6_St4lessIS6_ESaISt4pairIS7_S6_EEEPSt10shared_ptrINS_20ErasureCodeInterfaceEEPSo
librgw.so.2:_ZN4ceph25ErasureCodePluginRegistry7preloadERKNSt7__cxx1112basic_stringIcSt11char_traitsIcESaIcEEES8_PSo
librgw.so.2:_ZN4ceph25ErasureCodePluginRegistryC1Ev
librgw.so.2:_ZN4ceph25ErasureCodePluginRegistryC2Ev
librgw.so.2:_ZN4ceph25ErasureCodePluginRegistryD1Ev
librgw.so.2:_ZN4ceph25ErasureCodePluginRegistryD2Ev
librgw.so.2:_ZN4ceph6crypto4HMACD1Ev
librgw.so.2:_ZN4ceph6crypto4HMACD2Ev
librgw.so.2:_ZN4ceph6crypto4initEP11CephContext
librgw.so.2:_ZN4ceph6crypto8shutdownEv
librgw.so.2:_ZN4ceph7logging12SubsystemMap13set_log_levelEji
librgw.so.2:_ZN4ceph7logging12SubsystemMap16set_gather_levelEji
librgw.so.2:_ZN4ceph7logging12SubsystemMap3addEjNSt7__cxx1112basic_stringIcSt11char_traitsIcESaIcEEEii
librgw.so.2:_ZN4ceph7logging3Log10reset_segvEv
librgw.so.2:_ZN4ceph7logging3Log11dump_recentEv
librgw.so.2:_ZN4ceph7logging3Log11inject_segvEv
librgw.so.2:_ZN4ceph7logging3Log11set_max_newEi
librgw.so.2:_ZN4ceph7logging3Log12_log_messageEPKcb
librgw.so.2:_ZN4ceph7logging3Log12create_entryEii
librgw.so.2:_ZN4ceph7logging3Log12create_entryEiiPm
librgw.so.2:_ZN4ceph7logging3Log12set_log_fileENSt7__cxx1112basic_stringIcSt11char_traitsIcESaIcEEE
librgw.so.2:_ZN4ceph7logging3Log12stop_graylogEv
librgw.so.2:_ZN4ceph7logging3Log12submit_entryEPNS0_5EntryE
librgw.so.2:_ZN4ceph7logging3Log13start_graylogEv
librgw.so.2:_ZN4ceph7logging3Log14chown_log_fileEjj
librgw.so.2:_ZN4ceph7logging3Log14set_max_recentEi
librgw.so.2:_ZN4ceph7logging3Log15reopen_log_fileEv
librgw.so.2:_ZN4ceph7logging3Log16set_stderr_levelEii
librgw.so.2:_ZN4ceph7logging3Log16set_syslog_levelEii
librgw.so.2:_ZN4ceph7logging3Log17set_flush_on_exitEv
librgw.so.2:_ZN4ceph7logging3Log17set_graylog_levelEii
librgw.so.2:_ZN4ceph7logging3Log18is_inside_log_lockEv
librgw.so.2:_ZN4ceph7logging3Log4stopEv
librgw.so.2:_ZN4ceph7logging3Log5entryEv
librgw.so.2:_ZN4ceph7logging3Log5flushEv
librgw.so.2:_ZN4ceph7logging3Log5startEv
librgw.so.2:_ZN4ceph7logging3Log6_flushEPNS0_10EntryQueueES3_b
librgw.so.2:_ZN4ceph7logging3LogC1EPNS0_12SubsystemMapE
librgw.so.2:_ZN4ceph7logging3LogC2EPNS0_12SubsystemMapE
librgw.so.2:_ZN4ceph7logging3LogD0Ev
librgw.so.2:_ZN4ceph7logging3LogD1Ev
librgw.so.2:_ZN4ceph7logging3LogD2Ev
librgw.so.2:_ZN4ceph7logging7Graylog12set_hostnameERKNSt7__cxx1112basic_stringIcSt11char_traitsIcESaIcEEE
librgw.so.2:_ZN4ceph7logging7Graylog13log_log_entryEPK8LogEntry
librgw.so.2:_ZN4ceph7logging7Graylog15set_destinationERKNSt7__cxx1112basic_stringIcSt11char_traitsIcESaIcEEEi
librgw.so.2:_ZN4ceph7logging7Graylog8set_fsidERK6uuid_d
librgw.so.2:_ZN4ceph7logging7Graylog9log_entryEPKNS0_5EntryE
librgw.so.2:_ZN4ceph7logging7GraylogC1ENSt7__cxx1112basic_stringIcSt11char_traitsIcESaIcEEE
librgw.so.2:_ZN4ceph7logging7GraylogC1EPKNS0_12SubsystemMapENSt7__cxx1112basic_stringIcSt11char_traitsIcESaIcEEE
librgw.so.2:_ZN4ceph7logging7GraylogC2ENSt7__cxx1112basic_stringIcSt11char_traitsIcESaIcEEE
librgw.so.2:_ZN4ceph7logging7GraylogC2EPKNS0_12SubsystemMapENSt7__cxx1112basic_stringIcSt11char_traitsIcESaIcEEE
librgw.so.2:_ZN4ceph7logging7GraylogD0Ev
librgw.so.2:_ZN4ceph7logging7GraylogD1Ev
librgw.so.2:_ZN4ceph7logging7GraylogD2Ev
librgw.so.2:_ZN4ceph9BackTrace5printERSo
librgw.so.2:_ZN4ceph9Formatter11dump_formatEPKcS2_z
librgw.so.2:_ZN4ceph9Formatter14dump_format_nsEPKcS2_S2_z
librgw.so.2:_ZN4ceph9Formatter20dump_format_unquotedEPKcS2_z
librgw.so.2:_ZN4ceph9Formatter5flushERNS_6buffer4listE
librgw.so.2:_ZN4ceph9Formatter6createERKNSt7__cxx1112basic_stringIcSt11char_traitsIcESaIcEEES8_S8_
librgw.so.2:_ZN4ceph9FormatterC1Ev
librgw.so.2:_ZN4ceph9FormatterC2Ev
librgw.so.2:_ZN4ceph9FormatterD0Ev
librgw.so.2:_ZN4ceph9FormatterD1Ev
librgw.so.2:_ZN4ceph9FormatterD2Ev
librgw.so.2:_ZN4cephlsERSoRKNSt6chrono8durationImSt5ratioILl1ELl1000000000EEEE
librgw.so.2:_ZN4seed10get_paramsEv
librgw.so.2:_ZN4seed11handle_dataEv
librgw.so.2:_ZN4seed12get_data_lenEv
librgw.so.2:_ZN4seed12set_announceEv
librgw.so.2:_ZN4seed12sha1_processEv
librgw.so.2:_ZN4seed13set_info_nameERKNSt7__cxx1112basic_stringIcSt11char_traitsIcESaIcEEE
librgw.so.2:_ZN4seed15set_create_dateERNSt6chrono10time_pointIN4ceph11time_detail10real_clockENS0_8durationImSt5ratioILl1ELl1000000000EEEEEE
librgw.so.2:_ZN4seed15set_info_piecesEPc
librgw.so.2:_ZN4seed16get_torrent_fileERiRN8RGWRados6Object4ReadERmRN4ceph6buffer4listER7rgw_obj
librgw.so.2:_ZN4seed17save_torrent_fileEv
librgw.so.2:_ZN4seed4initEP9req_stateP8RGWRados
librgw.so.2:_ZN4seed4sha1EPN4ceph6crypto4SHA1ERNS0_6buffer4listEl
librgw.so.2:_ZN4seed8get_flagEv
librgw.so.2:_ZN4seed9do_encodeEv
librgw.so.2:_ZN4seed9save_dataERN4ceph6buffer4listE
librgw.so.2:_ZN4seedC1Ev
librgw.so.2:_ZN4seedC2Ev
librgw.so.2:_ZN4seedD1Ev
librgw.so.2:_ZN4seedD2Ev
librgw.so.2:_ZN5Mutex4LockEb
librgw.so.2:_ZN5Mutex6UnlockEv
librgw.so.2:_ZN5MutexC1ERKNSt7__cxx1112basic_stringIcSt11char_traitsIcESaIcEEEbbbP11CephContext
librgw.so.2:_ZN5MutexC2ERKNSt7__cxx1112basic_stringIcSt11char_traitsIcESaIcEEEbbbP11CephContext
librgw.so.2:_ZN5MutexD1Ev
librgw.so.2:_ZN5MutexD2Ev
librgw.so.2:_ZN5RGWGC10going_downEv
librgw.so.2:_ZN5RGWGC10initializeEP11CephContextP8RGWRados
librgw.so.2:_ZN5RGWGC10send_chainER17cls_rgw_obj_chainRKNSt7__cxx1112basic_stringIcSt11char_traitsIcESaIcEEEb
librgw.so.2:_ZN5RGWGC11defer_chainERKNSt7__cxx1112basic_stringIcSt11char_traitsIcESaIcEEEb
librgw.so.2:_ZN5RGWGC14stop_processorEv
librgw.so.2:_ZN5RGWGC15start_processorEv
librgw.so.2:_ZN5RGWGC4listEPiRNSt7__cxx1112basic_stringIcSt11char_traitsIcESaIcEEEjbRNS1_4listI19cls_rgw_gc_obj_infoSaIS9_EEEPb
librgw.so.2:_ZN5RGWGC6removeEiRKNSt7__cxx114listINS0_12basic_stringIcSt11char_traitsIcESaIcEEESaIS6_EEE
librgw.so.2:_ZN5RGWGC7processEii
librgw.so.2:_ZN5RGWGC7processEv
librgw.so.2:_ZN5RGWGC8GCWorker4stopEv
librgw.so.2:_ZN5RGWGC8GCWorker5entryEv
librgw.so.2:_ZN5RGWGC8finalizeEv
librgw.so.2:_ZN5RGWGC9add_chainERN8librados20ObjectWriteOperationER17cls_rgw_obj_chainRKNSt7__cxx1112basic_stringIcSt11char_traitsIcESaIcEEE
librgw.so.2:_ZN5RGWGC9tag_indexERKNSt7__cxx1112basic_stringIcSt11char_traitsIcESaIcEEE
librgw.so.2:_ZN5RGWLC10going_downEv
librgw.so.2:_ZN5RGWLC10initializeEP11CephContextP8RGWRados
librgw.so.2:_ZN5RGWLC14bucket_lc_postEiiR19cls_rgw_lc_obj_headRSt4pairINSt7__cxx1112basic_stringIcSt11char_traitsIcESaIcEEEiERi
librgw.so.2:_ZN5RGWLC14stop_processorEv
librgw.so.2:_ZN5RGWLC15obj_has_expiredEdi
librgw.so.2:_ZN5RGWLC15start_processorEv
librgw.so.2:_ZN5RGWLC16list_lc_progressERKNSt7__cxx1112basic_stringIcSt11char_traitsIcESaIcEEEjPSt3mapIS5_iSt4lessIS5_ESaISt4pairIS6_iEEE
librgw.so.2:_ZN5RGWLC17bucket_lc_prepareEi
librgw.so.2:_ZN5RGWLC17bucket_lc_processERNSt7__cxx1112basic_stringIcSt11char_traitsIcESaIcEEE
librgw.so.2:_ZN5RGWLC20if_already_run_todayERl
librgw.so.2:_ZN5RGWLC7processEii
librgw.so.2:_ZN5RGWLC7processEv
librgw.so.2:_ZN5RGWLC8LCWorker11should_workER7utime_t
librgw.so.2:_ZN5RGWLC8LCWorker24schedule_next_start_timeER7utime_tS2_
librgw.so.2:_ZN5RGWLC8LCWorker4stopEv
librgw.so.2:_ZN5RGWLC8LCWorker5entryEv
librgw.so.2:_ZN5RGWLC8finalizeEv
librgw.so.2:_ZN5RGWOp10init_quotaEv
librgw.so.2:_ZN5RGWOp13error_handlerEiPNSt7__cxx1112basic_stringIcSt11char_traitsIcESaIcEEE
librgw.so.2:_ZN5RGWOp14verify_op_maskEv
librgw.so.2:_ZN5RGWOp16read_bucket_corsEv
librgw.so.2:_ZN5RGWOp21generate_cors_headersERNSt7__cxx1112basic_stringIcSt11char_traitsIcESaIcEEES6_S6_S6_Pj
librgw.so.2:_ZN5RGWOp23do_aws4_auth_completionEv
librgw.so.2:_ZN5boost11this_thread18interruption_pointEv
librgw.so.2:_ZN5boost11this_thread20disable_interruptionC1Ev
librgw.so.2:_ZN5boost11this_thread20disable_interruptionC2Ev
librgw.so.2:_ZN5boost11this_thread20disable_interruptionD1Ev
librgw.so.2:_ZN5boost11this_thread20disable_interruptionD2Ev
librgw.so.2:_ZN5boost11this_thread20interruption_enabledEv
librgw.so.2:_ZN5boost11this_thread20restore_interruptionC1ERNS0_20disable_interruptionE
librgw.so.2:_ZN5boost11this_thread20restore_interruptionC2ERNS0_20disable_interruptionE
librgw.so.2:_ZN5boost11this_thread20restore_interruptionD1Ev
librgw.so.2:_ZN5boost11this_thread20restore_interruptionD2Ev
librgw.so.2:_ZN5boost11this_thread21no_interruption_point6hidden11sleep_untilERK8timespec
librgw.so.2:_ZN5boost11this_thread21no_interruption_point6hidden9sleep_forERK8timespec
librgw.so.2:_ZN5boost11this_thread22interruption_requestedEv
librgw.so.2:_ZN5boost11this_thread5yieldEv
librgw.so.2:_ZN5boost11this_thread6hidden11sleep_untilERK8timespec
librgw.so.2:_ZN5boost11this_thread6hidden9sleep_forERK8timespec
librgw.so.2:_ZN5boost13thread_detail17enter_once_regionERNS_9once_flagE
librgw.so.2:_ZN5boost13thread_detail18commit_once_regionERNS_9once_flagE
librgw.so.2:_ZN5boost13thread_detail20rollback_once_regionERNS_9once_flagE
librgw.so.2:_ZN5boost25notify_all_at_thread_exitERNS_18condition_variableENS_11unique_lockINS_5mutexEEE
librgw.so.2:_ZN5boost6detail12get_tss_dataEPKv
librgw.so.2:_ZN5boost6detail12set_tss_dataEPKvNS_10shared_ptrINS0_20tss_cleanup_functionEEEPvb
librgw.so.2:_ZN5boost6detail13find_tss_dataEPKv
librgw.so.2:_ZN5boost6detail14erase_tss_nodeEPKv
librgw.so.2:_ZN5boost6detail16add_new_tss_nodeEPKvNS_10shared_ptrINS0_20tss_cleanup_functionEEEPv
librgw.so.2:_ZN5boost6detail16thread_data_baseD0Ev
librgw.so.2:_ZN5boost6detail16thread_data_baseD1Ev
librgw.so.2:_ZN5boost6detail16thread_data_baseD2Ev
librgw.so.2:_ZN5boost6detail23get_current_thread_dataEv
librgw.so.2:_ZN5boost6detail23set_current_thread_dataEPNS0_16thread_data_baseE
librgw.so.2:_ZN5boost6detail24add_thread_exit_functionEPNS0_25thread_exit_function_baseE
librgw.so.2:_ZN5boost6detail25make_external_thread_dataEv
librgw.so.2:_ZN5boost6detail25make_ready_at_thread_exitENS_10shared_ptrINS0_17shared_state_baseEEE
librgw.so.2:_ZN5boost6detail31get_or_make_current_thread_dataEv
librgw.so.2:_ZN5boost6random13random_deviceC1ERKNSt7__cxx1112basic_stringIcSt11char_traitsIcESaIcEEE
librgw.so.2:_ZN5boost6random13random_deviceC1Ev
librgw.so.2:_ZN5boost6random13random_deviceC2ERKNSt7__cxx1112basic_stringIcSt11char_traitsIcESaIcEEE
librgw.so.2:_ZN5boost6random13random_deviceC2Ev
librgw.so.2:_ZN5boost6random13random_deviceD1Ev
librgw.so.2:_ZN5boost6random13random_deviceD2Ev
librgw.so.2:_ZN5boost6random13random_deviceclEv
librgw.so.2:_ZN5boost6system15system_categoryEv
librgw.so.2:_ZN5boost6system16generic_categoryEv
librgw.so.2:_ZN5boost6thread13join_noexceptEv
librgw.so.2:_ZN5boost6thread13native_handleEv
librgw.so.2:_ZN5boost6thread20hardware_concurrencyEv
librgw.so.2:_ZN5boost6thread20physical_concurrencyEv
librgw.so.2:_ZN5boost6thread21start_thread_noexceptERKNS_17thread_attributesE
librgw.so.2:_ZN5boost6thread21start_thread_noexceptEv
librgw.so.2:_ZN5boost6thread26do_try_join_until_noexceptERK8timespecRb
librgw.so.2:_ZN5boost6thread6detachEv
librgw.so.2:_ZN5boost6thread9interruptEv
librgw.so.2:_ZN5boost6threadC1Ev
librgw.so.2:_ZN5boost6threadC2Ev
librgw.so.2:_ZN5boost9iostreams10zlib_error5checkEi
librgw.so.2:_ZN5boost9iostreams10zlib_errorC1Ei
librgw.so.2:_ZN5boost9iostreams10zlib_errorC2Ei
librgw.so.2:_ZN5boost9iostreams6detail9zlib_base5afterERPKcRPcb
librgw.so.2:_ZN5boost9iostreams6detail9zlib_base5resetEbb
librgw.so.2:_ZN5boost9iostreams6detail9zlib_base6beforeERPKcS4_RPcS6_
librgw.so.2:_ZN5boost9iostreams6detail9zlib_base7do_initERKNS0_11zlib_paramsEbPFPvS6_jjEPFvS6_S6_ES6_
librgw.so.2:_ZN5boost9iostreams6detail9zlib_base8xdeflateEi
librgw.so.2:_ZN5boost9iostreams6detail9zlib_base8xinflateEi
librgw.so.2:_ZN5boost9iostreams6detail9zlib_baseC1Ev
librgw.so.2:_ZN5boost9iostreams6detail9zlib_baseC2Ev
librgw.so.2:_ZN5boost9iostreams6detail9zlib_baseD1Ev
librgw.so.2:_ZN5boost9iostreams6detail9zlib_baseD2Ev
librgw.so.2:_ZN5pidfh4openEPK11md_config_t
librgw.so.2:_ZN5pidfh5writeEv
librgw.so.2:_ZN5pidfh6removeEv
librgw.so.2:_ZN5pidfh6verifyEv
librgw.so.2:_ZN5rados3cls4lock10aio_unlockEPN8librados5IoCtxERKNSt7__cxx1112basic_stringIcSt11char_traitsIcESaIcEEESC_SC_PNS2_13AioCompletionE
librgw.so.2:_ZN5rados3cls4lock10break_lockEPN8librados20ObjectWriteOperationERKNSt7__cxx1112basic_stringIcSt11char_traitsIcESaIcEEESC_RK13entity_name_t
librgw.so.2:_ZN5rados3cls4lock10break_lockEPN8librados5IoCtxERKNSt7__cxx1112basic_stringIcSt11char_traitsIcESaIcEEESC_SC_RK13entity_name_t
librgw.so.2:_ZN5rados3cls4lock10list_locksEPN8librados5IoCtxERKNSt7__cxx1112basic_stringIcSt11char_traitsIcESaIcEEEPNS5_4listISA_SaISA_EEE
librgw.so.2:_ZN5rados3cls4lock10set_cookieEPN8librados20ObjectWriteOperationERKNSt7__cxx1112basic_stringIcSt11char_traitsIcESaIcEEE11ClsLockTypeSC_SC_SC_
librgw.so.2:_ZN5rados3cls4lock13assert_lockedEPN8librados15ObjectOperationERKNSt7__cxx1112basic_stringIcSt11char_traitsIcESaIcEEE11ClsLockTypeSC_SC_
librgw.so.2:_ZN5rados3cls4lock13get_lock_infoEPN8librados5IoCtxERKNSt7__cxx1112basic_stringIcSt11char_traitsIcESaIcEEESC_PSt3mapINS1_11locker_id_tENS1_13locker_info_tESt4lessISE_ESaISt4pairIKSE_SF_EEEP11ClsLockTypePSA_
librgw.so.2:_ZN5rados3cls4lock19get_lock_info_startEPN8librados19ObjectReadOperationERKNSt7__cxx1112basic_stringIcSt11char_traitsIcESaIcEEE
librgw.so.2:_ZN5rados3cls4lock20get_lock_info_finishEPN4ceph6buffer4list8iteratorEPSt3mapINS1_11locker_id_tENS1_13locker_info_tESt4lessIS8_ESaISt4pairIKS8_S9_EEEP11ClsLockTypePNSt7__cxx1112basic_stringIcSt11char_traitsIcESaIcEEE
librgw.so.2:_ZN5rados3cls4lock4Lock10break_lockEPN8librados20ObjectWriteOperationERK13entity_name_t
librgw.so.2:_ZN5rados3cls4lock4Lock10break_lockEPN8librados5IoCtxERKNSt7__cxx1112basic_stringIcSt11char_traitsIcESaIcEEERK13entity_name_t
librgw.so.2:_ZN5rados3cls4lock4Lock11lock_sharedEPN8librados20ObjectWriteOperationE
librgw.so.2:_ZN5rados3cls4lock4Lock11lock_sharedEPN8librados5IoCtxERKNSt7__cxx1112basic_stringIcSt11char_traitsIcESaIcEEE
librgw.so.2:_ZN5rados3cls4lock4Lock14lock_exclusiveEPN8librados20ObjectWriteOperationE
librgw.so.2:_ZN5rados3cls4lock4Lock14lock_exclusiveEPN8librados5IoCtxERKNSt7__cxx1112basic_stringIcSt11char_traitsIcESaIcEEE
librgw.so.2:_ZN5rados3cls4lock4Lock20assert_locked_sharedEPN8librados15ObjectOperationE
librgw.so.2:_ZN5rados3cls4lock4Lock23assert_locked_exclusiveEPN8librados15ObjectOperationE
librgw.so.2:_ZN5rados3cls4lock4Lock6unlockEPN8librados20ObjectWriteOperationE
librgw.so.2:_ZN5rados3cls4lock4Lock6unlockEPN8librados5IoCtxERKNSt7__cxx1112basic_stringIcSt11char_traitsIcESaIcEEE
librgw.so.2:_ZN5rados3cls4lock4lockEPN8librados20ObjectWriteOperationERKNSt7__cxx1112basic_stringIcSt11char_traitsIcESaIcEEE11ClsLockTypeSC_SC_SC_RK7utime_th
librgw.so.2:_ZN5rados3cls4lock4lockEPN8librados5IoCtxERKNSt7__cxx1112basic_stringIcSt11char_traitsIcESaIcEEESC_11ClsLockTypeSC_SC_SC_RK7utime_th
librgw.so.2:_ZN5rados3cls4lock6unlockEPN8librados20ObjectWriteOperationERKNSt7__cxx1112basic_stringIcSt11char_traitsIcESaIcEEESC_
librgw.so.2:_ZN5rados3cls4lock6unlockEPN8librados5IoCtxERKNSt7__cxx1112basic_stringIcSt11char_traitsIcESaIcEEESC_SC_
librgw.so.2:_ZN6RGWEnv13exists_prefixEPKc
librgw.so.2:_ZN6RGWEnv3getEPKcS1_
librgw.so.2:_ZN6RGWEnv3setERKN5boost16basic_string_refIcSt11char_traitsIcEEES6_
librgw.so.2:_ZN6RGWEnv4initEP11CephContext
librgw.so.2:_ZN6RGWEnv4initEP11CephContextPPc
librgw.so.2:_ZN6RGWEnv6existsEPKc
librgw.so.2:_ZN6RGWEnv6removeEPKc
librgw.so.2:_ZN6RGWEnv7get_intEPKci
librgw.so.2:_ZN6RGWEnv8get_boolEPKcb
librgw.so.2:_ZN6RGWEnv8get_sizeEPKcm
librgw.so.2:_ZN6Thread10set_ioprioEii
librgw.so.2:_ZN6Thread10try_createEm
librgw.so.2:_ZN6Thread11_entry_funcEPv
librgw.so.2:_ZN6Thread12set_affinityEi
librgw.so.2:_ZN6Thread13entry_wrapperEv
librgw.so.2:_ZN6Thread4joinEPPv
librgw.so.2:_ZN6Thread4killEi
librgw.so.2:_ZN6Thread6createEPKcm
librgw.so.2:_ZN6Thread6detachEv
librgw.so.2:_ZN6ThreadC1Ev
librgw.so.2:_ZN6ThreadC2Ev
librgw.so.2:_ZN6ThreadD0Ev
librgw.so.2:_ZN6ThreadD1Ev
librgw.so.2:_ZN6ThreadD2Ev
librgw.so.2:_ZN6XMLObj10find_firstENSt7__cxx1112basic_stringIcSt11char_traitsIcESaIcEEE
librgw.so.2:_ZN6XMLObj10get_parentEv
librgw.so.2:_ZN6XMLObj15xml_handle_dataEPKci
librgw.so.2:_ZN6XMLObj4findENSt7__cxx1112basic_stringIcSt11char_traitsIcESaIcEEE
librgw.so.2:_ZN6XMLObj7xml_endEPKc
librgw.so.2:_ZN6XMLObj8get_attrENSt7__cxx1112basic_stringIcSt11char_traitsIcESaIcEEERS5_
librgw.so.2:_ZN6XMLObj8get_dataB5cxx11Ev
librgw.so.2:_ZN6XMLObj9add_childENSt7__cxx1112basic_stringIcSt11char_traitsIcESaIcEEEPS_
librgw.so.2:_ZN6XMLObj9xml_startEPS_PKcPS2_
librgw.so.2:_ZN6XMLObjD0Ev
librgw.so.2:_ZN6XMLObjD1Ev
librgw.so.2:_ZN6XMLObjD2Ev
librgw.so.2:_ZN7JSONObj10find_firstERKNSt7__cxx1112basic_stringIcSt11char_traitsIcESaIcEEE
librgw.so.2:_ZN7JSONObj10find_firstEv
librgw.so.2:_ZN7JSONObj10get_parentEv
librgw.so.2:_ZN7JSONObj12handle_valueEN11json_spirit10Value_implINS0_13Config_vectorINSt7__cxx1112basic_stringIcSt11char_traitsIcESaIcEEEEEEE
librgw.so.2:_ZN7JSONObj18get_array_elementsB5cxx11Ev
librgw.so.2:_ZN7JSONObj4findERKNSt7__cxx1112basic_stringIcSt11char_traitsIcESaIcEEE
librgw.so.2:_ZN7JSONObj4initEPS_N11json_spirit10Value_implINS1_13Config_vectorINSt7__cxx1112basic_stringIcSt11char_traitsIcESaIcEEEEEEES9_
librgw.so.2:_ZN7JSONObj8find_objERKNSt7__cxx1112basic_stringIcSt11char_traitsIcESaIcEEE
librgw.so.2:_ZN7JSONObj8get_attrENSt7__cxx1112basic_stringIcSt11char_traitsIcESaIcEEERS5_
librgw.so.2:_ZN7JSONObj8get_dataERKNSt7__cxx1112basic_stringIcSt11char_traitsIcESaIcEEEPS5_
librgw.so.2:_ZN7JSONObj8is_arrayEv
librgw.so.2:_ZN7JSONObj9add_childENSt7__cxx1112basic_stringIcSt11char_traitsIcESaIcEEEPS_
librgw.so.2:_ZN7JSONObj9is_objectEv
librgw.so.2:_ZN7JSONObjD0Ev
librgw.so.2:_ZN7JSONObjD1Ev
librgw.so.2:_ZN7JSONObjD2Ev
librgw.so.2:_ZN7NameVal5parseEv
librgw.so.2:_ZN7RGWConf4initEP11CephContextP6RGWEnv
librgw.so.2:_ZN7RGWREST10preprocessEP9req_statePN3rgw2io11BasicClientE
librgw.so.2:_ZN7RGWREST11get_handlerEP8RGWRadosP9req_stateRKNSt7__cxx1112basic_stringIcSt11char_traitsIcESaIcEEEP12RGWRestfulIOPP10RGWRESTMgrPi
librgw.so.2:_ZN7RGWREST18register_x_headersERKNSt7__cxx1112basic_stringIcSt11char_traitsIcESaIcEEE
librgw.so.2:_ZN7RGWUser11execute_addER19RGWUserAdminOpStatePNSt7__cxx1112basic_stringIcSt11char_traitsIcESaIcEEE
librgw.so.2:_ZN7RGWUser12init_defaultEv
librgw.so.2:_ZN7RGWUser12init_membersER19RGWUserAdminOpState
librgw.so.2:_ZN7RGWUser12init_storageEP8RGWRados
librgw.so.2:_ZN7RGWUser14execute_modifyER19RGWUserAdminOpStatePNSt7__cxx1112basic_stringIcSt11char_traitsIcESaIcEEE
librgw.so.2:_ZN7RGWUser14execute_removeER19RGWUserAdminOpStatePNSt7__cxx1112basic_stringIcSt11char_traitsIcESaIcEEE
librgw.so.2:_ZN7RGWUser3addER19RGWUserAdminOpStatePNSt7__cxx1112basic_stringIcSt11char_traitsIcESaIcEEE
librgw.so.2:_ZN7RGWUser4infoER11RGWUserInfoPNSt7__cxx1112basic_stringIcSt11char_traitsIcESaIcEEE
librgw.so.2:_ZN7RGWUser4infoER19RGWUserAdminOpStateR11RGWUserInfoPNSt7__cxx1112basic_stringIcSt11char_traitsIcESaIcEEE
librgw.so.2:_ZN7RGWUser4initEP8RGWRadosR19RGWUserAdminOpState
librgw.so.2:_ZN7RGWUser4initER19RGWUserAdminOpState
librgw.so.2:_ZN7RGWUser6modifyER19RGWUserAdminOpStatePNSt7__cxx1112basic_stringIcSt11char_traitsIcESaIcEEE
librgw.so.2:_ZN7RGWUser6removeER19RGWUserAdminOpStatePNSt7__cxx1112basic_stringIcSt11char_traitsIcESaIcEEE
librgw.so.2:_ZN7RGWUser6updateER19RGWUserAdminOpStatePNSt7__cxx1112basic_stringIcSt11char_traitsIcESaIcEEE
librgw.so.2:_ZN7RGWUser8check_opER19RGWUserAdminOpStatePNSt7__cxx1112basic_stringIcSt11char_traitsIcESaIcEEE
librgw.so.2:_ZN7RGWUserC1Ev
librgw.so.2:_ZN7RGWUserC2Ev
librgw.so.2:_ZN7RGWUserD1Ev
librgw.so.2:_ZN7RGWUserD2Ev
librgw.so.2:_ZN7RGWZone11decode_jsonEP7JSONObj
librgw.so.2:_ZN7RGWZone23generate_test_instancesERNSt7__cxx114listIPS_SaIS2_EEE
librgw.so.2:_ZN7mempool13get_pool_nameENS_12pool_index_tE
librgw.so.2:_ZN7mempool14set_debug_modeEb
librgw.so.2:_ZN7mempool4dumpEPN4ceph9FormatterEm
librgw.so.2:_ZN7mempool8get_poolENS_12pool_index_tE
librgw.so.2:_ZN7rgw_err5clearEv
librgw.so.2:_ZN7rgw_errC1EiRKNSt7__cxx1112basic_stringIcSt11char_traitsIcESaIcEEE
librgw.so.2:_ZN7rgw_errC1Ev
librgw.so.2:_ZN7rgw_errC2EiRKNSt7__cxx1112basic_stringIcSt11char_traitsIcESaIcEEE
librgw.so.2:_ZN7rgw_errC2Ev
librgw.so.2:_ZN7rgw_obj23generate_test_instancesERNSt7__cxx114listIPS_SaIS2_EEE
librgw.so.2:_ZN8ACLGrant12uri_to_groupERNSt7__cxx1112basic_stringIcSt11char_traitsIcESaIcEEE
librgw.so.2:_ZN8ACLGrant23generate_test_instancesERNSt7__cxx114listIPS_SaIS2_EEE
librgw.so.2:_ZN8ACLOwner23generate_test_instancesERNSt7__cxx114listIPS_SaIS2_EEE
librgw.so.2:_ZN8ConfFile10parse_fileERKNSt7__cxx1112basic_stringIcSt11char_traitsIcESaIcEEEPSt5dequeIS5_SaIS5_EEPSo
librgw.so.2:_ZN8ConfFile12process_lineEiPKcPSt5dequeINSt7__cxx1112basic_stringIcSt11char_traitsIcESaIcEEESaIS8_EE
librgw.so.2:_ZN8ConfFile15trim_whitespaceERNSt7__cxx1112basic_stringIcSt11char_traitsIcESaIcEEEb
librgw.so.2:_ZN8ConfFile16load_from_bufferEPKcmPSt5dequeINSt7__cxx1112basic_stringIcSt11char_traitsIcESaIcEEESaIS8_EEPSo
librgw.so.2:_ZN8ConfFile16parse_bufferlistEPN4ceph6buffer4listEPSt5dequeINSt7__cxx1112basic_stringIcSt11char_traitsIcESaIcEEESaISA_EEPSo
librgw.so.2:_ZN8ConfFile18normalize_key_nameERKNSt7__cxx1112basic_stringIcSt11char_traitsIcESaIcEEE
librgw.so.2:_ZN8ConfFile5clearEv
librgw.so.2:_ZN8ConfFileC1Ev
librgw.so.2:_ZN8ConfFileC2Ev
librgw.so.2:_ZN8ConfFileD1Ev
librgw.so.2:_ZN8ConfFileD2Ev
librgw.so.2:_ZN8ConfLineC1ERKNSt7__cxx1112basic_stringIcSt11char_traitsIcESaIcEEES5_S5_S5_i
librgw.so.2:_ZN8ConfLineC2ERKNSt7__cxx1112basic_stringIcSt11char_traitsIcESaIcEEES5_S5_S5_i
librgw.so.2:_ZN8Finisher14wait_for_emptyEv
librgw.so.2:_ZN8Finisher21finisher_thread_entryEv
librgw.so.2:_ZN8Finisher4stopEv
librgw.so.2:_ZN8Finisher5startEv
librgw.so.2:_ZN8LogEntry13log_to_syslogENSt7__cxx1112basic_stringIcSt11char_traitsIcESaIcEEES5_
librgw.so.2:_ZN8LogEntry23generate_test_instancesERNSt7__cxx114listIPS_SaIS2_EEE
librgw.so.2:_ZN8LogEntry6decodeERN4ceph6buffer4list8iteratorE
librgw.so.2:_ZN8RESTArgs10get_stringEP9req_stateRKNSt7__cxx1112basic_stringIcSt11char_traitsIcESaIcEEES9_PS7_Pb
librgw.so.2:_ZN8RESTArgs10get_uint32EP9req_stateRKNSt7__cxx1112basic_stringIcSt11char_traitsIcESaIcEEEjPjPb
librgw.so.2:_ZN8RESTArgs10get_uint64EP9req_stateRKNSt7__cxx1112basic_stringIcSt11char_traitsIcESaIcEEEmPmPb
librgw.so.2:_ZN8RESTArgs8get_boolEP9req_stateRKNSt7__cxx1112basic_stringIcSt11char_traitsIcESaIcEEEbPbSA_
librgw.so.2:_ZN8RESTArgs8get_timeEP9req_stateRKNSt7__cxx1112basic_stringIcSt11char_traitsIcESaIcEEERK7utime_tPSA_Pb
librgw.so.2:_ZN8RESTArgs9get_epochEP9req_stateRKNSt7__cxx1112basic_stringIcSt11char_traitsIcESaIcEEEmPmPb
librgw.so.2:_ZN8RESTArgs9get_int32EP9req_stateRKNSt7__cxx1112basic_stringIcSt11char_traitsIcESaIcEEEiPiPb
librgw.so.2:_ZN8RESTArgs9get_int64EP9req_stateRKNSt7__cxx1112basic_stringIcSt11char_traitsIcESaIcEEElPlPb
librgw.so.2:_ZN8RGWGetLC17verify_permissionEv
librgw.so.2:_ZN8RGWGetLC8pre_execEv
librgw.so.2:_ZN8RGWPutLC17verify_permissionEv
librgw.so.2:_ZN8RGWPutLC7executeEv
librgw.so.2:_ZN8RGWPutLC8pre_execEv
librgw.so.2:_ZN8RGWRados10delete_objER12RGWObjectCtxR13RGWBucketInfoRK7rgw_objitRKNSt6chrono10time_pointIN4ceph11time_detail10real_clockENS7_8durationImSt5ratioILl1ELl1000000000EEEEEE
librgw.so.2:_ZN8RGWRados10distributeERKNSt7__cxx1112basic_stringIcSt11char_traitsIcESaIcEEERN4ceph6buffer4listE
librgw.so.2:_ZN8RGWRados10follow_olhER12RGWObjectCtxP11RGWObjStateR7rgw_objPS4_
librgw.so.2:_ZN8RGWRados10gc_operateERNSt7__cxx1112basic_stringIcSt11char_traitsIcESaIcEEEPN8librados19ObjectReadOperationEPN4ceph6buffer4listE
librgw.so.2:_ZN8RGWRados10gc_operateERNSt7__cxx1112basic_stringIcSt11char_traitsIcESaIcEEEPN8librados20ObjectWriteOperationE
librgw.so.2:_ZN8RGWRados10init_radosEv
librgw.so.2:_ZN8RGWRados10init_watchEv
librgw.so.2:_ZN8RGWRados10initializeEv
librgw.so.2:_ZN8RGWRados10list_zonesERNSt7__cxx114listINS0_12basic_stringIcSt11char_traitsIcESaIcEEESaIS6_EEE
librgw.so.2:_ZN8RGWRados10log_removeERKNSt7__cxx1112basic_stringIcSt11char_traitsIcESaIcEEE
librgw.so.2:_ZN8RGWRados10process_gcEv
librgw.so.2:_ZN8RGWRados10process_lcEv
librgw.so.2:_ZN8RGWRados10read_usageERK8rgw_usermmjPbR12RGWUsageIterRSt3mapI15rgw_user_bucket19rgw_usage_log_entrySt4lessIS7_ESaISt4pairIKS7_S8_EEE
librgw.so.2:_ZN8RGWRados10shard_nameERKNSt7__cxx1112basic_stringIcSt11char_traitsIcESaIcEEEjRS5_
librgw.so.2:_ZN8RGWRados10shard_nameERKNSt7__cxx1112basic_stringIcSt11char_traitsIcESaIcEEEjS7_RS5_Pi
librgw.so.2:_ZN8RGWRados10shard_nameERKNSt7__cxx1112basic_stringIcSt11char_traitsIcESaIcEEEjS7_S7_RS5_
librgw.so.2:_ZN8RGWRados10trim_usageER8rgw_usermm
librgw.so.2:_ZN8RGWRados10update_olhER12RGWObjectCtxP11RGWObjStateR13RGWBucketInfoR7rgw_obj
librgw.so.2:_ZN8RGWRados11BucketShard4initER10rgw_bucketR7rgw_obj
librgw.so.2:_ZN8RGWRados11BucketShard4initER10rgw_bucketi
librgw.so.2:_ZN8RGWRados11add_watcherEi
librgw.so.2:_ZN8RGWRados11check_quotaERK8rgw_userR10rgw_bucketR12RGWQuotaInfoS6_m
librgw.so.2:_ZN8RGWRados11create_poolER10rgw_bucket
librgw.so.2:_ZN8RGWRados11get_obj_refERK7rgw_objP13rgw_rados_refP10rgw_bucket
librgw.so.2:_ZN8RGWRados11instance_idEv
librgw.so.2:_ZN8RGWRados11iterate_objER12RGWObjectCtxR7rgw_objllmPFiS3_lllbP11RGWObjStatePvES6_
librgw.so.2:_ZN8RGWRados11list_realmsERNSt7__cxx114listINS0_12basic_stringIcSt11char_traitsIcESaIcEEESaIS6_EEE
librgw.so.2:_ZN8RGWRados11obj_operateER7rgw_objPN8librados19ObjectReadOperationE
librgw.so.2:_ZN8RGWRados11obj_operateER7rgw_objPN8librados20ObjectWriteOperationE
librgw.so.2:_ZN8RGWRados11rewrite_objER13RGWBucketInfoR7rgw_obj
librgw.so.2:_ZN8RGWRados12SystemObject4Read11GetObjState9get_ioctxEPS_R7rgw_objPPN8librados5IoCtxE
librgw.so.2:_ZN8RGWRados12SystemObject4Read4readEllRN4ceph6buffer4listEP20RGWObjVersionTracker
librgw.so.2:_ZN8RGWRados12SystemObject4Read4statEP20RGWObjVersionTracker
librgw.so.2:_ZN8RGWRados12SystemObject4Read8get_attrEPKcRN4ceph6buffer4listE
librgw.so.2:_ZN8RGWRados12SystemObject9get_stateEPP11RGWObjStateP20RGWObjVersionTracker
librgw.so.2:_ZN8RGWRados12append_asyncER7rgw_objmRN4ceph6buffer4listE
librgw.so.2:_ZN8RGWRados12create_poolsERSt6vectorINSt7__cxx1112basic_stringIcSt11char_traitsIcESaIcEEESaIS6_EERS0_IiSaIiEE
librgw.so.2:_ZN8RGWRados12list_gc_objsEPiRNSt7__cxx1112basic_stringIcSt11char_traitsIcESaIcEEEjbRNS1_4listI19cls_rgw_gc_obj_infoSaIS9_EEEPb
librgw.so.2:_ZN8RGWRados12list_periodsERKNSt7__cxx1112basic_stringIcSt11char_traitsIcESaIcEEERNS0_4listIS5_SaIS5_EEE
librgw.so.2:_ZN8RGWRados12list_periodsERNSt7__cxx114listINS0_12basic_stringIcSt11char_traitsIcESaIcEEESaIS6_EEE
librgw.so.2:_ZN8RGWRados12list_regionsERNSt7__cxx114listINS0_12basic_stringIcSt11char_traitsIcESaIcEEESaIS6_EEE
librgw.so.2:_ZN8RGWRados12omap_get_allER7rgw_objRN4ceph6buffer4listERSt3mapINSt7__cxx1112basic_stringIcSt11char_traitsIcESaIcEEES4_St4lessISC_ESaISt4pairIKSC_S4_EEE
librgw.so.2:_ZN8RGWRados12pool_iterateER14RGWPoolIterCtxjRSt6vectorI9RGWObjEntSaIS3_EEPbP19RGWAccessListFilter
librgw.so.2:_ZN8RGWRados12put_obj_dataEPvR7rgw_objPKclmb
librgw.so.2:_ZN8RGWRados12raw_obj_statER7rgw_objPmPNSt6chrono10time_pointIN4ceph11time_detail10real_clockENS3_8durationImSt5ratioILl1ELl1000000000EEEEEES2_PSt3mapINSt7__cxx1112basic_stringIcSt11char_traitsIcESaIcEEENS5_6buffer4listESt4lessISK_ESaISt4pairIKSK_SM_EEEPSM_P20RGWObjVersionTracker
librgw.so.2:_ZN8RGWRados12time_log_addERKNSt7__cxx1112basic_stringIcSt11char_traitsIcESaIcEEERKNSt6chrono10time_pointIN4ceph11time_detail10real_clockENS8_8durationImSt5ratioILl1ELl1000000000EEEEEES7_S7_RNSA_6buffer4listE
librgw.so.2:_ZN8RGWRados12time_log_addERKNSt7__cxx1112basic_stringIcSt11char_traitsIcESaIcEEERNS0_4listI13cls_log_entrySaIS9_EEEPN8librados13AioCompletionEb
librgw.so.2:_ZN8RGWRados13aio_completedEPv
librgw.so.2:_ZN8RGWRados13apply_olh_logER12RGWObjectCtxR11RGWObjStateR13RGWBucketInfoR7rgw_objRN4ceph6buffer4listERSt3mapImSt6vectorI24rgw_bucket_olh_log_entrySaISE_EESt4lessImESaISt4pairIKmSG_EEEPm
librgw.so.2:_ZN8RGWRados13copy_obj_dataER12RGWObjectCtxR13RGWBucketInfoRNS_6Object4ReadElR7rgw_objS8_mPNSt6chrono10time_pointIN4ceph11time_detail10real_clockENS9_8durationImSt5ratioILl1ELl1000000000EEEEEESI_RSt3mapINSt7__cxx1112basic_stringIcSt11char_traitsIcESaIcEEENSB_6buffer4listESt4lessISQ_ESaISt4pairIKSQ_SS_EEE14RGWObjCategorymSI_PSQ_S12_PSS_P7rgw_err
librgw.so.2:_ZN8RGWRados13create_bucketER11RGWUserInfoR10rgw_bucketRKNSt7__cxx1112basic_stringIcSt11char_traitsIcESaIcEEESB_SB_PK12RGWQuotaInfoRSt3mapIS9_N4ceph6buffer4listESt4lessIS9_ESaISt4pairISA_SI_EEER13RGWBucketInfoP11obj_versionST_NSt6chrono10time_pointINSG_11time_detail10real_clockENSU_8durationImSt5ratioILl1ELl1000000000EEEEEEPS2_b
librgw.so.2:_ZN8RGWRados13decode_policyERN4ceph6buffer4listEP8ACLOwner
librgw.so.2:_ZN8RGWRados13delete_bucketER10rgw_bucketR20RGWObjVersionTracker
librgw.so.2:_ZN8RGWRados13get_obj_ioctxERK7rgw_objPN8librados5IoCtxE
librgw.so.2:_ZN8RGWRados13get_obj_stateEP12RGWObjectCtxR7rgw_objPP11RGWObjStateb
librgw.so.2:_ZN8RGWRados13init_completeEv
librgw.so.2:_ZN8RGWRados13log_list_initERKNSt7__cxx1112basic_stringIcSt11char_traitsIcESaIcEEEPPv
librgw.so.2:_ZN8RGWRados13log_list_nextEPvPNSt7__cxx1112basic_stringIcSt11char_traitsIcESaIcEEE
librgw.so.2:_ZN8RGWRados13log_show_initERKNSt7__cxx1112basic_stringIcSt11char_traitsIcESaIcEEEPPv
librgw.so.2:_ZN8RGWRados13log_show_nextEPvP13rgw_log_entry
librgw.so.2:_ZN8RGWRados13omap_get_valsER7rgw_objRN4ceph6buffer4listERKNSt7__cxx1112basic_stringIcSt11char_traitsIcESaIcEEEmRSt3mapISB_S4_St4lessISB_ESaISt4pairISC_S4_EEE
librgw.so.2:_ZN8RGWRados13open_pool_ctxERKNSt7__cxx1112basic_stringIcSt11char_traitsIcESaIcEEERN8librados5IoCtxE
librgw.so.2:_ZN8RGWRados13time_log_infoERKNSt7__cxx1112basic_stringIcSt11char_traitsIcESaIcEEEP14cls_log_header
librgw.so.2:_ZN8RGWRados13time_log_listERKNSt7__cxx1112basic_stringIcSt11char_traitsIcESaIcEEERKNSt6chrono10time_pointIN4ceph11time_detail10real_clockENS8_8durationImSt5ratioILl1ELl1000000000EEEEEESJ_iRNS0_4listI13cls_log_entrySaISL_EEES7_PS5_Pb
librgw.so.2:_ZN8RGWRados13time_log_trimERKNSt7__cxx1112basic_stringIcSt11char_traitsIcESaIcEEERKNSt6chrono10time_pointIN4ceph11time_detail10real_clockENS8_8durationImSt5ratioILl1ELl1000000000EEEEEESJ_S7_S7_PN8librados13AioCompletionE
librgw.so.2:_ZN8RGWRados14delete_obj_aioER7rgw_objR10rgw_bucketR13RGWBucketInfoP11RGWObjStateRNSt7__cxx114listIPN8librados13AioCompletionESaISC_EEEb
librgw.so.2:_ZN8RGWRados14finalize_watchEv
librgw.so.2:_ZN8RGWRados14gc_aio_operateERNSt7__cxx1112basic_stringIcSt11char_traitsIcESaIcEEEPN8librados20ObjectWriteOperationE
librgw.so.2:_ZN8RGWRados14get_system_objER12RGWObjectCtxRNS_12SystemObject4Read11GetObjStateEP20RGWObjVersionTrackerR7rgw_objRN4ceph6buffer4listEllPSt3mapINSt7__cxx1112basic_stringIcSt11char_traitsIcESaIcEEESC_St4lessISK_ESaISt4pairIKSK_SC_EEEP20rgw_cache_entry_info
librgw.so.2:_ZN8RGWRados14get_user_statsERK8rgw_userR15RGWStorageStats
librgw.so.2:_ZN8RGWRados14is_meta_masterEv
librgw.so.2:_ZN8RGWRados14lock_exclusiveER10rgw_bucketRKNSt7__cxx1112basic_stringIcSt11char_traitsIcESaIcEEERNSt6chrono8durationImSt5ratioILl1ELl1000000000EEEERS7_SG_
librgw.so.2:_ZN8RGWRados14move_rados_objERN8librados5IoCtxERKNSt7__cxx1112basic_stringIcSt11char_traitsIcESaIcEEESA_S2_SA_SA_
librgw.so.2:_ZN8RGWRados14next_bucket_idEv
librgw.so.2:_ZN8RGWRados14remove_watcherEi
librgw.so.2:_ZN8RGWRados15bi_get_instanceER7rgw_objP20rgw_bucket_dir_entry
librgw.so.2:_ZN8RGWRados15cls_bucket_headER10rgw_bucketiRSt3mapINSt7__cxx1112basic_stringIcSt11char_traitsIcESaIcEEE21rgw_bucket_dir_headerSt4lessIS8_ESaISt4pairIKS8_S9_EEEPS2_IiS8_SA_IiESaISC_IKiS8_EEE
librgw.so.2:_ZN8RGWRados15cls_bucket_listER10rgw_bucketiR11rgw_obj_keyRKNSt7__cxx1112basic_stringIcSt11char_traitsIcESaIcEEEjbRSt3mapIS9_9RGWObjEntSt4lessIS9_ESaISt4pairISA_SD_EEEPbPS2_PFbSB_E
librgw.so.2:_ZN8RGWRados15flush_read_listEP12get_obj_data
librgw.so.2:_ZN8RGWRados15get_bucket_infoER12RGWObjectCtxRKNSt7__cxx1112basic_stringIcSt11char_traitsIcESaIcEEES9_R13RGWBucketInfoPNSt6chrono10time_pointIN4ceph11time_detail10real_clockENSC_8durationImSt5ratioILl1ELl1000000000EEEEEEPSt3mapIS7_NSE_6buffer4listESt4lessIS7_ESaISt4pairIS8_SP_EEE
librgw.so.2:_ZN8RGWRados15key_to_shard_idERKNSt7__cxx1112basic_stringIcSt11char_traitsIcESaIcEEEi
librgw.so.2:_ZN8RGWRados15list_zonegroupsERNSt7__cxx114listINS0_12basic_stringIcSt11char_traitsIcESaIcEEESaIS6_EEE
librgw.so.2:_ZN8RGWRados15objexp_hint_addERKNSt6chrono10time_pointIN4ceph11time_detail10real_clockENS0_8durationImSt5ratioILl1ELl1000000000EEEEEERKNSt7__cxx1112basic_stringIcSt11char_traitsIcESaIcEEESJ_SJ_RK11rgw_obj_key
librgw.so.2:_ZN8RGWRados15stat_remote_objER12RGWObjectCtxRK8rgw_userRKNSt7__cxx1112basic_stringIcSt11char_traitsIcESaIcEEEP8req_infoSC_R7rgw_objR13RGWBucketInfoPNSt6chrono10time_pointIN4ceph11time_detail10real_clockENSJ_8durationImSt5ratioILl1ELl1000000000EEEEEEPmPKSS_SW_bPKcSY_PSt3mapISA_NSL_6buffer4listESt4lessISA_ESaISt4pairISB_S11_EEEPSA_S19_S19_
librgw.so.2:_ZN8RGWRados15stat_system_objER12RGWObjectCtxRNS_12SystemObject4Read11GetObjStateER7rgw_objPSt3mapINSt7__cxx1112basic_stringIcSt11char_traitsIcESaIcEEEN4ceph6buffer4listESt4lessISE_ESaISt4pairIKSE_SH_EEEPNSt6chrono10time_pointINSF_11time_detail10real_clockENSQ_8durationImSt5ratioILl1ELl1000000000EEEEEEPmP20RGWObjVersionTracker
librgw.so.2:_ZN8RGWRados15update_gc_chainER7rgw_objR14RGWObjManifestP17cls_rgw_obj_chain
librgw.so.2:_ZN8RGWRados15zone_syncs_fromER7RGWZoneS1_
librgw.so.2:_ZN8RGWRados16aio_put_obj_dataEPvR7rgw_objRN4ceph6buffer4listElbPS0_
librgw.so.2:_ZN8RGWRados16bucket_suspendedER10rgw_bucketPb
librgw.so.2:_ZN8RGWRados16check_disk_stateEN8librados5IoCtxER10rgw_bucketR20rgw_bucket_dir_entryR9RGWObjEntRN4ceph6buffer4listE
librgw.so.2:_ZN8RGWRados16create_bucket_idEPNSt7__cxx1112basic_stringIcSt11char_traitsIcESaIcEEE
librgw.so.2:_ZN8RGWRados16delete_obj_indexER7rgw_obj
librgw.so.2:_ZN8RGWRados16fetch_remote_objER12RGWObjectCtxRK8rgw_userRKNSt7__cxx1112basic_stringIcSt11char_traitsIcESaIcEEESC_bP8req_infoSC_R7rgw_objSG_R13RGWBucketInfoSI_PNSt6chrono10time_pointIN4ceph11time_detail10real_clockENSJ_8durationImSt5ratioILl1ELl1000000000EEEEEEST_PKSS_SV_bPKcSX_NS_8AttrsModEbRSt3mapISA_NSL_6buffer4listESt4lessISA_ESaISt4pairISB_S11_EEE14RGWObjCategorymSS_PSA_S1A_PS11_P7rgw_errPFvlPvES1E_
librgw.so.2:_ZN8RGWRados16get_bucket_statsER10rgw_bucketiPNSt7__cxx1112basic_stringIcSt11char_traitsIcESaIcEEES8_RSt3mapI14RGWObjCategory15RGWStorageStatsSt4lessISA_ESaISt4pairIKSA_SB_EEES8_
librgw.so.2:_ZN8RGWRados16get_rados_handleEv
librgw.so.2:_ZN8RGWRados16list_lc_progressERKNSt7__cxx1112basic_stringIcSt11char_traitsIcESaIcEEEjPSt3mapIS5_iSt4lessIS5_ESaISt4pairIS6_iEEE
librgw.so.2:_ZN8RGWRados16list_raw_objectsER10rgw_bucketRKNSt7__cxx1112basic_stringIcSt11char_traitsIcESaIcEEEiR17RGWListRawObjsCtxRNS2_4listIS7_SaIS7_EEEPb
librgw.so.2:_ZN8RGWRados16objexp_get_shardEiRNSt7__cxx1112basic_stringIcSt11char_traitsIcESaIcEEE
librgw.so.2:_ZN8RGWRados16objexp_hint_listERKNSt7__cxx1112basic_stringIcSt11char_traitsIcESaIcEEERKNSt6chrono10time_pointIN4ceph11time_detail10real_clockENS8_8durationImSt5ratioILl1ELl1000000000EEEEEESJ_iS7_RNS0_4listI19cls_timeindex_entrySaISL_EEEPS5_Pb
librgw.so.2:_ZN8RGWRados16objexp_hint_trimERKNSt7__cxx1112basic_stringIcSt11char_traitsIcESaIcEEERKNSt6chrono10time_pointIN4ceph11time_detail10real_clockENS8_8durationImSt5ratioILl1ELl1000000000EEEEEESJ_S7_S7_
librgw.so.2:_ZN8RGWRados16objexp_key_shardERK11rgw_obj_key
librgw.so.2:_ZN8RGWRados16open_gc_pool_ctxEv
librgw.so.2:_ZN8RGWRados16open_lc_pool_ctxEv
librgw.so.2:_ZN8RGWRados16pick_control_oidERKNSt7__cxx1112basic_stringIcSt11char_traitsIcESaIcEEERS5_
librgw.so.2:_ZN8RGWRados16schedule_contextEP7Context
librgw.so.2:_ZN8RGWRados16send_chain_to_gcER17cls_rgw_obj_chainRKNSt7__cxx1112basic_stringIcSt11char_traitsIcESaIcEEEb
librgw.so.2:_ZN8RGWRados16set_bucket_ownerER10rgw_bucketR8ACLOwner
librgw.so.2:_ZN8RGWRados17convert_regionmapEv
librgw.so.2:_ZN8RGWRados17delete_system_objER7rgw_objP20RGWObjVersionTracker
librgw.so.2:_ZN8RGWRados17get_bi_log_statusER10rgw_bucketiRSt3mapIiNSt7__cxx1112basic_stringIcSt11char_traitsIcESaIcEEESt4lessIiESaISt4pairIKiS8_EEE
librgw.so.2:_ZN8RGWRados17init_bucket_indexER10rgw_bucketi
librgw.so.2:_ZN8RGWRados17list_buckets_initEPPv
librgw.so.2:_ZN8RGWRados17list_buckets_nextER9RGWObjEntPPv
librgw.so.2:_ZN8RGWRados17objexp_hint_parseER19cls_timeindex_entryR17objexp_hint_entry
librgw.so.2:_ZN8RGWRados17open_bucket_indexER10rgw_bucketRN8librados5IoCtxERNSt7__cxx1112basic_stringIcSt11char_traitsIcESaIcEEE
librgw.so.2:_ZN8RGWRados17open_bucket_indexER10rgw_bucketRN8librados5IoCtxERSt3mapIiNSt7__cxx1112basic_stringIcSt11char_traitsIcESaIcEEESt4lessIiESaISt4pairIKiSB_EEEiPSI_
librgw.so.2:_ZN8RGWRados17time_log_add_initERN8librados5IoCtxE
librgw.so.2:_ZN8RGWRados18append_atomic_testEP12RGWObjectCtxR7rgw_objRN8librados15ObjectOperationEPP11RGWObjState
librgw.so.2:_ZN8RGWRados18bucket_check_indexER10rgw_bucketPSt3mapI14RGWObjCategory15RGWStorageStatsSt4lessIS3_ESaISt4pairIKS3_S4_EEESC_
librgw.so.2:_ZN8RGWRados18cls_obj_prepare_opERNS_11BucketShardE11RGWModifyOpRNSt7__cxx1112basic_stringIcSt11char_traitsIcESaIcEEER7rgw_objt
librgw.so.2:_ZN8RGWRados18cls_rgw_init_indexERN8librados5IoCtxERNS0_20ObjectWriteOperationERNSt7__cxx1112basic_stringIcSt11char_traitsIcESaIcEEE
librgw.so.2:_ZN8RGWRados18get_max_chunk_sizeER10rgw_bucketPm
librgw.so.2:_ZN8RGWRados18get_obj_iterate_cbEP12RGWObjectCtxP11RGWObjStateR7rgw_objlllbPv
librgw.so.2:_ZN8RGWRados18get_obj_state_implEP12RGWObjectCtxR7rgw_objPP11RGWObjStateb
librgw.so.2:_ZN8RGWRados18get_system_obj_refERK7rgw_objP13rgw_rados_refP10rgw_bucket
librgw.so.2:_ZN8RGWRados18init_zg_from_localEPb
librgw.so.2:_ZN8RGWRados18list_placement_setERSt3setINSt7__cxx1112basic_stringIcSt11char_traitsIcESaIcEEESt4lessIS6_ESaIS6_EE
librgw.so.2:_ZN8RGWRados18open_root_pool_ctxEv
librgw.so.2:_ZN8RGWRados18pool_iterate_beginER10rgw_bucketR14RGWPoolIterCtx
librgw.so.2:_ZN8RGWRados19cls_obj_check_mtimeERN8librados15ObjectOperationERKNSt6chrono10time_pointIN4ceph11time_detail10real_clockENS3_8durationImSt5ratioILl1ELl1000000000EEEEEEb17RGWCheckMTimeType
librgw.so.2:_ZN8RGWRados19cls_obj_complete_opERNS_11BucketShardE11RGWModifyOpRNSt7__cxx1112basic_stringIcSt11char_traitsIcESaIcEEElmR9RGWObjEnt14RGWObjCategoryPNS3_4listI11rgw_obj_keySaISE_EEEt
librgw.so.2:_ZN8RGWRados19cls_user_add_bucketER7rgw_objRK21cls_user_bucket_entry
librgw.so.2:_ZN8RGWRados19cls_user_get_headerERKNSt7__cxx1112basic_stringIcSt11char_traitsIcESaIcEEEP15cls_user_header
librgw.so.2:_ZN8RGWRados19get_bucket_meta_oidERK10rgw_bucketRNSt7__cxx1112basic_stringIcSt11char_traitsIcESaIcEEE
librgw.so.2:_ZN8RGWRados19get_target_shard_idERK13RGWBucketInfoRKNSt7__cxx1112basic_stringIcSt11char_traitsIcESaIcEEEPi
librgw.so.2:_ZN8RGWRados19init_zg_from_periodEPb
librgw.so.2:_ZN8RGWRados19list_bi_log_entriesER10rgw_bucketiRNSt7__cxx1112basic_stringIcSt11char_traitsIcESaIcEEEjRNS2_4listI16rgw_bi_log_entrySaISA_EEEPb
librgw.so.2:_ZN8RGWRados19put_system_obj_dataEPvR7rgw_objRN4ceph6buffer4listElb
librgw.so.2:_ZN8RGWRados19put_system_obj_implER7rgw_objmPNSt6chrono10time_pointIN4ceph11time_detail10real_clockENS2_8durationImSt5ratioILl1ELl1000000000EEEEEERSt3mapINSt7__cxx1112basic_stringIcSt11char_traitsIcESaIcEEENS4_6buffer4listESt4lessISJ_ESaISt4pairIKSJ_SL_EEEiRSL_P20RGWObjVersionTrackerSB_
librgw.so.2:_ZN8RGWRados19remove_rgw_head_objERN8librados20ObjectWriteOperationE
librgw.so.2:_ZN8RGWRados19set_buckets_enabledERSt6vectorI10rgw_bucketSaIS1_EEb
librgw.so.2:_ZN8RGWRados19system_obj_get_attrER7rgw_objPKcRN4ceph6buffer4listE
librgw.so.2:_ZN8RGWRados19system_obj_set_attrEPvR7rgw_objPKcRN4ceph6buffer4listEP20RGWObjVersionTracker
librgw.so.2:_ZN8RGWRados19time_log_info_asyncERN8librados5IoCtxERKNSt7__cxx1112basic_stringIcSt11char_traitsIcESaIcEEEP14cls_log_headerPNS0_13AioCompletionE
librgw.so.2:_ZN8RGWRados19trim_bi_log_entriesER10rgw_bucketiRNSt7__cxx1112basic_stringIcSt11char_traitsIcESaIcEEES8_
librgw.so.2:_ZN8RGWRados19unlink_obj_instanceER12RGWObjectCtxR13RGWBucketInfoR7rgw_objm
librgw.so.2:_ZN8RGWRados20add_bucket_placementERNSt7__cxx1112basic_stringIcSt11char_traitsIcESaIcEEE
librgw.so.2:_ZN8RGWRados20bucket_rebuild_indexER10rgw_bucket
librgw.so.2:_ZN8RGWRados20cls_obj_complete_addERNS_11BucketShardERNSt7__cxx1112basic_stringIcSt11char_traitsIcESaIcEEElmR9RGWObjEnt14RGWObjCategoryPNS2_4listI11rgw_obj_keySaISD_EEEt
librgw.so.2:_ZN8RGWRados20cls_obj_complete_delERNS_11BucketShardERNSt7__cxx1112basic_stringIcSt11char_traitsIcESaIcEEElmR7rgw_objRNSt6chrono10time_pointIN4ceph11time_detail10real_clockENSB_8durationImSt5ratioILl1ELl1000000000EEEEEEPNS2_4listI11rgw_obj_keySaISN_EEEt
librgw.so.2:_ZN8RGWRados20fix_head_obj_locatorER10rgw_bucketbbR11rgw_obj_key
librgw.so.2:_ZN8RGWRados20fix_tail_obj_locatorER10rgw_bucketR11rgw_obj_keybPb
librgw.so.2:_ZN8RGWRados20get_olh_target_stateER12RGWObjectCtxR7rgw_objP11RGWObjStatePS5_
librgw.so.2:_ZN8RGWRados20get_system_obj_stateEP12RGWObjectCtxR7rgw_objPP11RGWObjStateP20RGWObjVersionTracker
librgw.so.2:_ZN8RGWRados20get_user_stats_asyncERK8rgw_userP18RGWGetUserStats_CB
librgw.so.2:_ZN8RGWRados20open_bucket_data_ctxER10rgw_bucketRN8librados5IoCtxE
librgw.so.2:_ZN8RGWRados20open_objexp_pool_ctxEv
librgw.so.2:_ZN8RGWRados20system_obj_set_attrsEPvR7rgw_objRSt3mapINSt7__cxx1112basic_stringIcSt11char_traitsIcESaIcEEEN4ceph6buffer4listESt4lessIS9_ESaISt4pairIKS9_SC_EEEPSJ_P20RGWObjVersionTracker
librgw.so.2:_ZN8RGWRados20update_placement_mapEv
librgw.so.2:_ZN8RGWRados21bucket_index_link_olhER11RGWObjStateR7rgw_objbRKNSt7__cxx1112basic_stringIcSt11char_traitsIcESaIcEEEP25rgw_bucket_dir_entry_metamNSt6chrono10time_pointIN4ceph11time_detail10real_clockENSE_8durationImSt5ratioILl1ELl1000000000EEEEEEb
librgw.so.2:_ZN8RGWRados21cls_bucket_head_asyncER10rgw_bucketiP18RGWGetDirHeader_CBPi
librgw.so.2:_ZN8RGWRados21cls_obj_usage_log_addERKNSt7__cxx1112basic_stringIcSt11char_traitsIcESaIcEEER18rgw_usage_log_info
librgw.so.2:_ZN8RGWRados21cls_user_list_bucketsER7rgw_objRKNSt7__cxx1112basic_stringIcSt11char_traitsIcESaIcEEES9_iRNS2_4listI21cls_user_bucket_entrySaISB_EEEPS7_Pb
librgw.so.2:_ZN8RGWRados21get_data_sync_managerERKNSt7__cxx1112basic_stringIcSt11char_traitsIcESaIcEEE
librgw.so.2:_ZN8RGWRados21get_meta_sync_managerEv
librgw.so.2:_ZN8RGWRados21olh_init_modificationER11RGWObjStateR7rgw_objPNSt7__cxx1112basic_stringIcSt11char_traitsIcESaIcEEE
librgw.so.2:_ZN8RGWRados21open_bucket_index_ctxER10rgw_bucketRN8librados5IoCtxE
librgw.so.2:_ZN8RGWRados21swift_versioning_copyER12RGWObjectCtxRK8rgw_userR13RGWBucketInfoR7rgw_obj
librgw.so.2:_ZN8RGWRados22bucket_index_clear_olhER11RGWObjStateR7rgw_obj
librgw.so.2:_ZN8RGWRados22cls_obj_usage_log_readERNSt7__cxx1112basic_stringIcSt11char_traitsIcESaIcEEES6_mmjS6_RSt3mapI15rgw_user_bucket19rgw_usage_log_entrySt4lessIS8_ESaISt4pairIKS8_S9_EEEPb
librgw.so.2:_ZN8RGWRados22cls_obj_usage_log_trimERNSt7__cxx1112basic_stringIcSt11char_traitsIcESaIcEEES6_mm
librgw.so.2:_ZN8RGWRados22cls_user_remove_bucketER7rgw_objRK15cls_user_bucket
librgw.so.2:_ZN8RGWRados22get_bucket_stats_asyncER10rgw_bucketiP20RGWGetBucketStats_CB
librgw.so.2:_ZN8RGWRados22get_required_alignmentER10rgw_bucketPm
librgw.so.2:_ZN8RGWRados22is_syncing_bucket_metaER10rgw_bucket
librgw.so.2:_ZN8RGWRados22list_raw_prefixed_objsERKNSt7__cxx1112basic_stringIcSt11char_traitsIcESaIcEEES7_RNS0_4listIS5_SaIS5_EEE
librgw.so.2:_ZN8RGWRados22open_bucket_index_baseER10rgw_bucketRN8librados5IoCtxERNSt7__cxx1112basic_stringIcSt11char_traitsIcESaIcEEE
librgw.so.2:_ZN8RGWRados22process_expire_objectsEv
librgw.so.2:_ZN8RGWRados22put_linked_bucket_infoER13RGWBucketInfobNSt6chrono10time_pointIN4ceph11time_detail10real_clockENS2_8durationImSt5ratioILl1ELl1000000000EEEEEEP11obj_versionPSt3mapINSt7__cxx1112basic_stringIcSt11char_traitsIcESaIcEEENS4_6buffer4listESt4lessISK_ESaISt4pairIKSK_SM_EEEb
librgw.so.2:_ZN8RGWRados22remove_objs_from_indexER10rgw_bucketRNSt7__cxx114listI11rgw_obj_keySaIS4_EEE
librgw.so.2:_ZN8RGWRados22time_log_prepare_entryER13cls_log_entryRKNSt6chrono10time_pointIN4ceph11time_detail10real_clockENS2_8durationImSt5ratioILl1ELl1000000000EEEEEERKNSt7__cxx1112basic_stringIcSt11char_traitsIcESaIcEEESL_RNS4_6buffer4listE
librgw.so.2:_ZN8RGWRados23cls_obj_complete_cancelERNS_11BucketShardERNSt7__cxx1112basic_stringIcSt11char_traitsIcESaIcEEER7rgw_objt
librgw.so.2:_ZN8RGWRados23cls_user_update_bucketsER7rgw_objRNSt7__cxx114listI21cls_user_bucket_entrySaIS4_EEEb
librgw.so.2:_ZN8RGWRados23convert_old_bucket_infoER12RGWObjectCtxRKNSt7__cxx1112basic_stringIcSt11char_traitsIcESaIcEEES9_
librgw.so.2:_ZN8RGWRados23copy_obj_to_remote_destEP11RGWObjStateRSt3mapINSt7__cxx1112basic_stringIcSt11char_traitsIcESaIcEEEN4ceph6buffer4listESt4lessIS8_ESaISt4pairIKS8_SB_EEERNS_6Object4ReadERK8rgw_userR7rgw_objPNSt6chrono10time_pointINS9_11time_detail10real_clockENSS_8durationImSt5ratioILl1ELl1000000000EEEEEE
librgw.so.2:_ZN8RGWRados23get_bucket_index_objectERKNSt7__cxx1112basic_stringIcSt11char_traitsIcESaIcEEES7_jN13RGWBucketInfo16BIShardsHashTypeEPS5_Pi
librgw.so.2:_ZN8RGWRados23get_bucket_index_objectERKNSt7__cxx1112basic_stringIcSt11char_traitsIcESaIcEEEjiPS5_
librgw.so.2:_ZN8RGWRados23get_bucket_instance_idsER13RGWBucketInfoiPSt3mapIiNSt7__cxx1112basic_stringIcSt11char_traitsIcESaIcEEESt4lessIiESaISt4pairIKiS8_EEE
librgw.so.2:_ZN8RGWRados23get_bucket_instance_objERK10rgw_bucketR7rgw_obj
librgw.so.2:_ZN8RGWRados23open_bucket_index_shardER10rgw_bucketRN8librados5IoCtxERKNSt7__cxx1112basic_stringIcSt11char_traitsIcESaIcEEEPSA_Pi
librgw.so.2:_ZN8RGWRados23open_bucket_index_shardER10rgw_bucketRN8librados5IoCtxEiPNSt7__cxx1112basic_stringIcSt11char_traitsIcESaIcEEE
librgw.so.2:_ZN8RGWRados23remove_bucket_placementERNSt7__cxx1112basic_stringIcSt11char_traitsIcESaIcEEE
librgw.so.2:_ZN8RGWRados23select_bucket_placementER11RGWUserInfoRKNSt7__cxx1112basic_stringIcSt11char_traitsIcESaIcEEES9_S9_S9_R10rgw_bucketPS7_P20RGWZonePlacementInfo
librgw.so.2:_ZN8RGWRados23update_containers_statsERSt3mapINSt7__cxx1112basic_stringIcSt11char_traitsIcESaIcEEE12RGWBucketEntSt4lessIS6_ESaISt4pairIKS6_S7_EEE
librgw.so.2:_ZN8RGWRados23wakeup_data_sync_shardsERKNSt7__cxx1112basic_stringIcSt11char_traitsIcESaIcEEERSt3mapIiSt3setIS5_St4lessIS5_ESaIS5_EESA_IiESaISt4pairIKiSD_EEE
librgw.so.2:_ZN8RGWRados23wakeup_meta_sync_shardsERSt3setIiSt4lessIiESaIiEE
librgw.so.2:_ZN8RGWRados24complete_sync_user_statsERK8rgw_user
librgw.so.2:_ZN8RGWRados24get_bucket_index_objectsERKNSt7__cxx1112basic_stringIcSt11char_traitsIcESaIcEEEjRSt3mapIiS5_St4lessIiESaISt4pairIKiS5_EEEi
librgw.so.2:_ZN8RGWRados24get_bucket_instance_infoER12RGWObjectCtxR10rgw_bucketR13RGWBucketInfoPNSt6chrono10time_pointIN4ceph11time_detail10real_clockENS6_8durationImSt5ratioILl1ELl1000000000EEEEEEPSt3mapINSt7__cxx1112basic_stringIcSt11char_traitsIcESaIcEEENS8_6buffer4listESt4lessISN_ESaISt4pairIKSN_SP_EEE
librgw.so.2:_ZN8RGWRados24get_bucket_instance_infoER12RGWObjectCtxRKNSt7__cxx1112basic_stringIcSt11char_traitsIcESaIcEEER13RGWBucketInfoPNSt6chrono10time_pointIN4ceph11time_detail10real_clockENSC_8durationImSt5ratioILl1ELl1000000000EEEEEEPSt3mapIS7_NSE_6buffer4listESt4lessIS7_ESaISt4pairIS8_SP_EEE
librgw.so.2:_ZN8RGWRados24on_last_entry_in_listingER13RGWBucketInfoRKNSt7__cxx1112basic_stringIcSt11char_traitsIcESaIcEEES9_St8functionIFiRK9RGWObjEntEE
librgw.so.2:_ZN8RGWRados24put_bucket_instance_infoER13RGWBucketInfobNSt6chrono10time_pointIN4ceph11time_detail10real_clockENS2_8durationImSt5ratioILl1ELl1000000000EEEEEEPSt3mapINSt7__cxx1112basic_stringIcSt11char_traitsIcESaIcEEENS4_6buffer4listESt4lessISI_ESaISt4pairIKSI_SK_EEE
librgw.so.2:_ZN8RGWRados24swift_versioning_restoreER12RGWObjectCtxRK8rgw_userR13RGWBucketInfoR7rgw_objRb
librgw.so.2:_ZN8RGWRados24update_user_bucket_statsERKNSt7__cxx1112basic_stringIcSt11char_traitsIcESaIcEEER10rgw_bucketR15RGWStorageStats
librgw.so.2:_ZN8RGWRados25bucket_index_guard_olh_opER11RGWObjStateRN8librados15ObjectOperationE
librgw.so.2:_ZN8RGWRados25bucket_index_read_olh_logER11RGWObjStateR7rgw_objmPSt3mapImSt6vectorI24rgw_bucket_olh_log_entrySaIS6_EESt4lessImESaISt4pairIKmS8_EEEPb
librgw.so.2:_ZN8RGWRados25bucket_index_trim_olh_logER11RGWObjStateR7rgw_objm
librgw.so.2:_ZN8RGWRados25build_bucket_index_markerERKNSt7__cxx1112basic_stringIcSt11char_traitsIcESaIcEEES7_PS5_
librgw.so.2:_ZN8RGWRados25check_pending_olh_entriesERSt3mapINSt7__cxx1112basic_stringIcSt11char_traitsIcESaIcEEEN4ceph6buffer4listESt4lessIS6_ESaISt4pairIKS6_S9_EEEPSG_
librgw.so.2:_ZN8RGWRados25cls_user_get_header_asyncERKNSt7__cxx1112basic_stringIcSt11char_traitsIcESaIcEEEP19RGWGetUserHeader_CB
librgw.so.2:_ZN8RGWRados25get_obj_aio_completion_cbEPvS0_
librgw.so.2:_ZN8RGWRados25get_system_obj_state_implEP12RGWObjectCtxR7rgw_objPP11RGWObjStateP20RGWObjVersionTracker
librgw.so.2:_ZN8RGWRados25objexp_hint_get_shardnameB5cxx11Ei
librgw.so.2:_ZN8RGWRados26cls_obj_check_prefix_existERN8librados15ObjectOperationERKNSt7__cxx1112basic_stringIcSt11char_traitsIcESaIcEEEb
librgw.so.2:_ZN8RGWRados26cls_user_sync_bucket_statsER7rgw_objR10rgw_bucket
librgw.so.2:_ZN8RGWRados26gen_rand_obj_instance_nameEP7rgw_obj
librgw.so.2:_ZN8RGWRados26get_bucket_entrypoint_infoER12RGWObjectCtxRKNSt7__cxx1112basic_stringIcSt11char_traitsIcESaIcEEES9_R19RGWBucketEntryPointP20RGWObjVersionTrackerPNSt6chrono10time_pointIN4ceph11time_detail10real_clockENSE_8durationImSt5ratioILl1ELl1000000000EEEEEEPSt3mapIS7_NSG_6buffer4listESt4lessIS7_ESaISt4pairIS8_SR_EEEP20rgw_cache_entry_info
librgw.so.2:_ZN8RGWRados26olh_init_modification_implER11RGWObjStateR7rgw_objPNSt7__cxx1112basic_stringIcSt11char_traitsIcESaIcEEE
librgw.so.2:_ZN8RGWRados26open_bucket_data_extra_ctxER10rgw_bucketRN8librados5IoCtxE
librgw.so.2:_ZN8RGWRados26put_bucket_entrypoint_infoERKNSt7__cxx1112basic_stringIcSt11char_traitsIcESaIcEEES7_R19RGWBucketEntryPointbR20RGWObjVersionTrackerNSt6chrono10time_pointIN4ceph11time_detail10real_clockENSC_8durationImSt5ratioILl1ELl1000000000EEEEEEPSt3mapIS5_NSE_6buffer4listESt4lessIS5_ESaISt4pairIS6_SO_EEE
librgw.so.2:_ZN8RGWRados26remove_olh_pending_entriesER11RGWObjStateR7rgw_objRSt3mapINSt7__cxx1112basic_stringIcSt11char_traitsIcESaIcEEEN4ceph6buffer4listESt4lessISA_ESaISt4pairIKSA_SD_EEE
librgw.so.2:_ZN8RGWRados26select_new_bucket_locationER11RGWUserInfoRKNSt7__cxx1112basic_stringIcSt11char_traitsIcESaIcEEES9_S9_S9_R10rgw_bucketPS7_P20RGWZonePlacementInfo
librgw.so.2:_ZN8RGWRados27set_bucket_location_by_ruleERKNSt7__cxx1112basic_stringIcSt11char_traitsIcESaIcEEES7_S7_R10rgw_bucketP20RGWZonePlacementInfo
librgw.so.2:_ZN8RGWRados28bucket_index_unlink_instanceER7rgw_objRKNSt7__cxx1112basic_stringIcSt11char_traitsIcESaIcEEES9_m
librgw.so.2:_ZN8RGWRados28cls_user_complete_stats_syncER7rgw_obj
librgw.so.2:_ZN8RGWRados28get_bucket_instance_from_oidER12RGWObjectCtxRNSt7__cxx1112basic_stringIcSt11char_traitsIcESaIcEEER13RGWBucketInfoPNSt6chrono10time_pointIN4ceph11time_detail10real_clockENSB_8durationImSt5ratioILl1ELl1000000000EEEEEEPSt3mapIS7_NSD_6buffer4listESt4lessIS7_ESaISt4pairIKS7_SO_EEEP20rgw_cache_entry_info
librgw.so.2:_ZN8RGWRados29replace_region_with_zonegroupEv
librgw.so.2:_ZN8RGWRados30cls_obj_set_bucket_tag_timeoutER10rgw_bucketm
librgw.so.2:_ZN8RGWRados30select_legacy_bucket_placementERKNSt7__cxx1112basic_stringIcSt11char_traitsIcESaIcEEES7_R10rgw_bucketP20RGWZonePlacementInfo
librgw.so.2:_ZN8RGWRados5watchERKNSt7__cxx1112basic_stringIcSt11char_traitsIcESaIcEEEPmPN8librados9WatchCtx2E
librgw.so.2:_ZN8RGWRados6Bucket11UpdateIndex12complete_delElmRNSt6chrono10time_pointIN4ceph11time_detail10real_clockENS2_8durationImSt5ratioILl1ELl1000000000EEEEEEPNSt7__cxx114listI11rgw_obj_keySaISF_EEE
librgw.so.2:_ZN8RGWRados6Bucket11UpdateIndex6cancelEv
librgw.so.2:_ZN8RGWRados6Bucket11UpdateIndex7prepareE11RGWModifyOp
librgw.so.2:_ZN8RGWRados6Bucket11UpdateIndex8completeElmmmRNSt6chrono10time_pointIN4ceph11time_detail10real_clockENS2_8durationImSt5ratioILl1ELl1000000000EEEEEERKNSt7__cxx1112basic_stringIcSt11char_traitsIcESaIcEEESK_PNS4_6buffer4listE14RGWObjCategoryPNSD_4listI11rgw_obj_keySaISQ_EEE
librgw.so.2:_ZN8RGWRados6Bucket4List12list_objectsEiPSt6vectorI9RGWObjEntSaIS3_EEPSt3mapINSt7__cxx1112basic_stringIcSt11char_traitsIcESaIcEEEbSt4lessISD_ESaISt4pairIKSD_bEEEPb
librgw.so.2:_ZN8RGWRados6Object16invalidate_stateEv
librgw.so.2:_ZN8RGWRados6Object27prepare_atomic_modificationERN8librados20ObjectWriteOperationEbPKNSt7__cxx1112basic_stringIcSt11char_traitsIcESaIcEEEPKcSD_b
librgw.so.2:_ZN8RGWRados6Object28complete_atomic_modificationEv
librgw.so.2:_ZN8RGWRados6Object4Read12range_to_ofsEmRlS2_
librgw.so.2:_ZN8RGWRados6Object4Read4readEllRN4ceph6buffer4listE
librgw.so.2:_ZN8RGWRados6Object4Read7iterateEllP12RGWGetDataCB
librgw.so.2:_ZN8RGWRados6Object4Read7prepareEv
librgw.so.2:_ZN8RGWRados6Object4Read8get_attrEPKcRN4ceph6buffer4listE
librgw.so.2:_ZN8RGWRados6Object4Stat10stat_asyncEv
librgw.so.2:_ZN8RGWRados6Object4Stat4waitEv
librgw.so.2:_ZN8RGWRados6Object4Stat6finishEv
librgw.so.2:_ZN8RGWRados6Object5Write10write_metaEmmRSt3mapINSt7__cxx1112basic_stringIcSt11char_traitsIcESaIcEEEN4ceph6buffer4listESt4lessIS8_ESaISt4pairIKS8_SB_EEE
librgw.so.2:_ZN8RGWRados6Object6Delete10delete_objEv
librgw.so.2:_ZN8RGWRados6Object9get_stateEPP11RGWObjStateb
librgw.so.2:_ZN8RGWRados6bi_getER10rgw_bucketR7rgw_obj11BIIndexTypeP16rgw_cls_bi_entry
librgw.so.2:_ZN8RGWRados6bi_putER10rgw_bucketR7rgw_objR16rgw_cls_bi_entry
librgw.so.2:_ZN8RGWRados6bi_putERN8librados20ObjectWriteOperationERNS_11BucketShardER16rgw_cls_bi_entry
librgw.so.2:_ZN8RGWRados6bi_putERNS_11BucketShardER16rgw_cls_bi_entry
librgw.so.2:_ZN8RGWRados6unlockER10rgw_bucketRKNSt7__cxx1112basic_stringIcSt11char_traitsIcESaIcEEERS7_SA_
librgw.so.2:_ZN8RGWRados7bi_listER10rgw_bucketRKNSt7__cxx1112basic_stringIcSt11char_traitsIcESaIcEEES9_jPNS2_4listI16rgw_cls_bi_entrySaISB_EEEPb
librgw.so.2:_ZN8RGWRados7bi_listER10rgw_bucketiRKNSt7__cxx1112basic_stringIcSt11char_traitsIcESaIcEEES9_jPNS2_4listI16rgw_cls_bi_entrySaISB_EEEPb
librgw.so.2:_ZN8RGWRados7bi_listERNS_11BucketShardERKNSt7__cxx1112basic_stringIcSt11char_traitsIcESaIcEEES9_jPNS2_4listI16rgw_cls_bi_entrySaISB_EEEPb
librgw.so.2:_ZN8RGWRados7get_olhER7rgw_objP10RGWOLHInfo
librgw.so.2:_ZN8RGWRados7set_olhER12RGWObjectCtxR13RGWBucketInfoR7rgw_objbP25rgw_bucket_dir_entry_metamNSt6chrono10time_pointIN4ceph11time_detail10real_clockENS8_8durationImSt5ratioILl1ELl1000000000EEEEEEb
librgw.so.2:_ZN8RGWRados7unwatchEm
librgw.so.2:_ZN8RGWRados8aio_waitEPv
librgw.so.2:_ZN8RGWRados8copy_objER12RGWObjectCtxRK8rgw_userRKNSt7__cxx1112basic_stringIcSt11char_traitsIcESaIcEEESC_P8req_infoSC_R7rgw_objSG_R13RGWBucketInfoSI_PNSt6chrono10time_pointIN4ceph11time_detail10real_clockENSJ_8durationImSt5ratioILl1ELl1000000000EEEEEEST_PKSS_SV_bPKcSX_NS_8AttrsModEbRSt3mapISA_NSL_6buffer4listESt4lessISA_ESaISt4pairISB_S11_EEE14RGWObjCategorymSS_PSA_S1A_PS11_P7rgw_errPFvlPvES1E_
librgw.so.2:_ZN8RGWRados8defer_gcEPvR7rgw_obj
librgw.so.2:_ZN8RGWRados8finalizeEv
librgw.so.2:_ZN8RGWRados8omap_delER7rgw_objRKNSt7__cxx1112basic_stringIcSt11char_traitsIcESaIcEEE
librgw.so.2:_ZN8RGWRados8omap_setER7rgw_objRNSt7__cxx1112basic_stringIcSt11char_traitsIcESaIcEEERN4ceph6buffer4listE
librgw.so.2:_ZN8RGWRados8omap_setER7rgw_objRSt3mapINSt7__cxx1112basic_stringIcSt11char_traitsIcESaIcEEEN4ceph6buffer4listESt4lessIS8_ESaISt4pairIKS8_SB_EEE
librgw.so.2:_ZN8RGWRados8set_attrEPvR7rgw_objPKcRN4ceph6buffer4listE
librgw.so.2:_ZN8RGWRados9bi_removeERNS_11BucketShardE
librgw.so.2:_ZN8RGWRados9log_usageERSt3mapI15rgw_user_bucket13RGWUsageBatchSt4lessIS1_ESaISt4pairIKS1_S2_EEE
librgw.so.2:_ZN8RGWRados9set_attrsEPvR7rgw_objRSt3mapINSt7__cxx1112basic_stringIcSt11char_traitsIcESaIcEEEN4ceph6buffer4listESt4lessIS9_ESaISt4pairIKS9_SC_EEEPSJ_
librgw.so.2:_ZN8RGWRealm10delete_objEv
librgw.so.2:_ZN8RGWRealm11decode_jsonEP7JSONObj
librgw.so.2:_ZN8RGWRealm11notify_zoneERN4ceph6buffer4listE
librgw.so.2:_ZN8RGWRealm13get_pool_nameB5cxx11EP11CephContext
librgw.so.2:_ZN8RGWRealm14create_controlEb
librgw.so.2:_ZN8RGWRealm14delete_controlEv
librgw.so.2:_ZN8RGWRealm15get_control_oidB5cxx11Ev
librgw.so.2:_ZN8RGWRealm15get_default_oidB5cxx11Eb
librgw.so.2:_ZN8RGWRealm17notify_new_periodERK9RGWPeriod
librgw.so.2:_ZN8RGWRealm18set_current_periodER9RGWPeriod
librgw.so.2:_ZN8RGWRealm19get_info_oid_prefixB5cxx11Eb
librgw.so.2:_ZN8RGWRealm19get_predefined_nameB5cxx11EP11CephContext
librgw.so.2:_ZN8RGWRealm20get_names_oid_prefixB5cxx11Ev
librgw.so.2:_ZN8RGWRealm6createEb
librgw.so.2:_ZN8Throttle10_reset_maxEl
librgw.so.2:_ZN8Throttle11get_or_failEl
librgw.so.2:_ZN8Throttle3getEll
librgw.so.2:_ZN8Throttle3putEl
librgw.so.2:_ZN8Throttle4takeEl
librgw.so.2:_ZN8Throttle4waitEl
librgw.so.2:_ZN8Throttle5_waitEl
librgw.so.2:_ZN8Throttle5resetEv
librgw.so.2:_ZN8ThrottleC1EP11CephContextRKNSt7__cxx1112basic_stringIcSt11char_traitsIcESaIcEEElb
librgw.so.2:_ZN8ThrottleC2EP11CephContextRKNSt7__cxx1112basic_stringIcSt11char_traitsIcESaIcEEElb
librgw.so.2:_ZN8ThrottleD1Ev
librgw.so.2:_ZN8ThrottleD2Ev
librgw.so.2:_ZN8req_info12rebuild_fromERS_
librgw.so.2:_ZN8req_info14init_meta_infoEPb
librgw.so.2:_ZN8req_infoC1EP11CephContextP6RGWEnv
librgw.so.2:_ZN8req_infoC2EP11CephContextP6RGWEnv
librgw.so.2:_ZN9CryptoAES15get_key_handlerERKN4ceph6buffer3ptrERNSt7__cxx1112basic_stringIcSt11char_traitsIcESaIcEEE
librgw.so.2:_ZN9CryptoAES15validate_secretERKN4ceph6buffer3ptrE
librgw.so.2:_ZN9CryptoAES6createERN4ceph6buffer3ptrE
librgw.so.2:_ZN9CryptoKey10set_secretEiRKN4ceph6buffer3ptrE7utime_t
librgw.so.2:_ZN9CryptoKey11_set_secretEiRKN4ceph6buffer3ptrE
librgw.so.2:_ZN9CryptoKey16encode_formattedENSt7__cxx1112basic_stringIcSt11char_traitsIcESaIcEEEPN4ceph9FormatterERNS6_6buffer4listE
librgw.so.2:_ZN9CryptoKey16encode_plaintextERN4ceph6buffer4listE
librgw.so.2:_ZN9CryptoKey6createEP11CephContexti
librgw.so.2:_ZN9CryptoKey6decodeERN4ceph6buffer4list8iteratorE
librgw.so.2:_ZN9LCRule_S36to_xmlEP11CephContextRSo
librgw.so.2:_ZN9LCRule_S37xml_endEPKc
librgw.so.2:_ZN9RGWBucket10get_policyER21RGWBucketAdminOpStateR22RGWAccessControlPolicy
librgw.so.2:_ZN9RGWBucket11check_indexER21RGWBucketAdminOpStateRSt3mapI14RGWObjCategory15RGWStorageStatsSt4lessIS3_ESaISt4pairIKS3_S4_EEESC_PNSt7__cxx1112basic_stringIcSt11char_traitsIcESaIcEEE
librgw.so.2:_ZN9RGWBucket13remove_objectER21RGWBucketAdminOpStatePNSt7__cxx1112basic_stringIcSt11char_traitsIcESaIcEEE
librgw.so.2:_ZN9RGWBucket18check_object_indexER21RGWBucketAdminOpStateR19RGWFormatterFlusherPNSt7__cxx1112basic_stringIcSt11char_traitsIcESaIcEEE
librgw.so.2:_ZN9RGWBucket19policy_bl_to_streamERN4ceph6buffer4listERSo
librgw.so.2:_ZN9RGWBucket25check_bad_index_multipartER21RGWBucketAdminOpStateRNSt7__cxx114listI11rgw_obj_keySaIS4_EEEPNS2_12basic_stringIcSt11char_traitsIcESaIcEEE
librgw.so.2:_ZN9RGWBucket4initEP8RGWRadosR21RGWBucketAdminOpState
librgw.so.2:_ZN9RGWBucket4linkER21RGWBucketAdminOpStatePNSt7__cxx1112basic_stringIcSt11char_traitsIcESaIcEEE
librgw.so.2:_ZN9RGWBucket6removeER21RGWBucketAdminOpStatebbPNSt7__cxx1112basic_stringIcSt11char_traitsIcESaIcEEE
librgw.so.2:_ZN9RGWBucket6unlinkER21RGWBucketAdminOpStatePNSt7__cxx1112basic_stringIcSt11char_traitsIcESaIcEEE
librgw.so.2:_ZN9RGWGetObj11get_data_cbERN4ceph6buffer4listEll
librgw.so.2:_ZN9RGWGetObj11init_commonEv
librgw.so.2:_ZN9RGWGetObj13prefetch_dataEv
librgw.so.2:_ZN9RGWGetObj17verify_permissionEv
librgw.so.2:_ZN9RGWGetObj19handle_slo_manifestERN4ceph6buffer4listE
librgw.so.2:_ZN9RGWGetObj20handle_user_manifestEPKc
librgw.so.2:_ZN9RGWGetObj23read_user_manifest_partER10rgw_bucketRK9RGWObjEntP22RGWAccessControlPolicyll
librgw.so.2:_ZN9RGWGetObj7executeEv
librgw.so.2:_ZN9RGWGetObj8pre_execEv
librgw.so.2:_ZN9RGWPeriod10delete_objEv
librgw.so.2:_ZN9RGWPeriod10store_infoEb
librgw.so.2:_ZN9RGWPeriod11decode_jsonEP7JSONObj
librgw.so.2:_ZN9RGWPeriod13add_zonegroupERK12RGWZoneGroup
librgw.so.2:_ZN9RGWPeriod13get_pool_nameB5cxx11EP11CephContext
librgw.so.2:_ZN9RGWPeriod13get_zonegroupER12RGWZoneGroupRKNSt7__cxx1112basic_stringIcSt11char_traitsIcESaIcEEE
librgw.so.2:_ZN9RGWPeriod14get_period_oidB5cxx11Ev
librgw.so.2:_ZN9RGWPeriod14use_next_epochEv
librgw.so.2:_ZN9RGWPeriod16get_latest_epochERj
librgw.so.2:_ZN9RGWPeriod16set_latest_epochEjb
librgw.so.2:_ZN9RGWPeriod16use_latest_epochEv
librgw.so.2:_ZN9RGWPeriod17read_latest_epochER24RGWPeriodLatestEpochInfo
librgw.so.2:_ZN9RGWPeriod18update_sync_statusEv
librgw.so.2:_ZN9RGWPeriod19get_info_oid_prefixB5cxx11Ev
librgw.so.2:_ZN9RGWPeriod19is_single_zonegroupEP11CephContextP8RGWRados
librgw.so.2:_ZN9RGWPeriod20get_latest_epoch_oidB5cxx11Ev
librgw.so.2:_ZN9RGWPeriod21get_period_oid_prefixB5cxx11Ev
librgw.so.2:_ZN9RGWPeriod4forkEv
librgw.so.2:_ZN9RGWPeriod4initEP11CephContextP8RGWRadosRKNSt7__cxx1112basic_stringIcSt11char_traitsIcESaIcEEESB_b
librgw.so.2:_ZN9RGWPeriod4initEP11CephContextP8RGWRadosb
librgw.so.2:_ZN9RGWPeriod6commitER8RGWRealmRKS_RSo
librgw.so.2:_ZN9RGWPeriod6createEb
librgw.so.2:_ZN9RGWPeriod6updateERK15RGWZoneGroupMap
librgw.so.2:_ZN9RGWPeriod6updateEv
librgw.so.2:_ZN9RGWPeriod7reflectEv
librgw.so.2:_ZN9RGWPeriod9read_infoEv
librgw.so.2:_ZN9RGWPolicy11set_expiresERKNSt7__cxx1112basic_stringIcSt11char_traitsIcESaIcEEE
librgw.so.2:_ZN9RGWPolicy13add_conditionERKNSt7__cxx1112basic_stringIcSt11char_traitsIcESaIcEEES7_S7_RS5_
librgw.so.2:_ZN9RGWPolicy5checkEP12RGWPolicyEnvRNSt7__cxx1112basic_stringIcSt11char_traitsIcESaIcEEE
librgw.so.2:_ZN9RGWPolicy9from_jsonERN4ceph6buffer4listERNSt7__cxx1112basic_stringIcSt11char_traitsIcESaIcEEE
librgw.so.2:_ZN9RGWPolicyD1Ev
librgw.so.2:_ZN9RGWPolicyD2Ev
librgw.so.2:_ZN9RGWPutObj11get_data_cbERN4ceph6buffer4listEll
librgw.so.2:_ZN9RGWPutObj16select_processorER12RGWObjectCtxPb
librgw.so.2:_ZN9RGWPutObj17dispose_processorEP22RGWPutObjDataProcessor
librgw.so.2:_ZN9RGWPutObj17verify_permissionEv
librgw.so.2:_ZN9RGWPutObj7executeEv
librgw.so.2:_ZN9RGWPutObj8get_dataEllRN4ceph6buffer4listE
librgw.so.2:_ZN9RGWPutObj8pre_execEv
librgw.so.2:_ZN9RGWRESTOp13send_responseEv
librgw.so.2:_ZN9RGWRESTOp17verify_permissionEv
librgw.so.2:_ZN9SafeTimer12add_event_atE7utime_tP7Context
librgw.so.2:_ZN9SafeTimer12cancel_eventEP7Context
librgw.so.2:_ZN9SafeTimer12timer_threadEv
librgw.so.2:_ZN9SafeTimer15add_event_afterEdP7Context
librgw.so.2:_ZN9SafeTimer17cancel_all_eventsEv
librgw.so.2:_ZN9SafeTimer4initEv
librgw.so.2:_ZN9SafeTimer8shutdownEv
librgw.so.2:_ZN9SafeTimerC1EP11CephContextR5Mutexb
librgw.so.2:_ZN9SafeTimerC2EP11CephContextR5Mutexb
librgw.so.2:_ZN9SafeTimerD1Ev
librgw.so.2:_ZN9SafeTimerD2Ev
librgw.so.2:_ZN9req_stateC1EP11CephContextP6RGWEnvP11RGWUserInfo
librgw.so.2:_ZN9req_stateC2EP11CephContextP6RGWEnvP11RGWUserInfo
librgw.so.2:_ZN9req_stateD1Ev
librgw.so.2:_ZN9req_stateD2Ev
librgw.so.2:_ZNK10EntityName12get_type_strEv
librgw.so.2:_ZNK10EntityName13get_type_nameEv
librgw.so.2:_ZNK10EntityName14has_default_idEv
librgw.so.2:_ZNK10EntityName6get_idB5cxx11Ev
librgw.so.2:_ZNK10EntityName6to_strB5cxx11Ev
librgw.so.2:_ZNK10EntityName7to_cstrEv
librgw.so.2:_ZNK10LogSummary4dumpEPN4ceph9FormatterE
librgw.so.2:_ZNK10LogSummary6encodeERN4ceph6buffer4listEm
librgw.so.2:_ZNK10RGWOLHInfo4dumpEPN4ceph9FormatterE
librgw.so.2:_ZNK10RGWSubUser4dumpEPN4ceph9FormatterE
librgw.so.2:_ZNK10RGWSubUser4dumpEPN4ceph9FormatterERKNSt7__cxx1112basic_stringIcSt11char_traitsIcESaIcEEE
librgw.so.2:_ZNK10rgw_bucket4dumpEPN4ceph9FormatterE
librgw.so.2:_ZNK10rgw_bucket7get_keyB5cxx11Ecc
librgw.so.2:_ZNK11CephContext14get_init_flagsEv
librgw.so.2:_ZNK11CephContext15get_module_typeEv
librgw.so.2:_ZNK11LogEntryKey4dumpEPN4ceph9FormatterE
librgw.so.2:_ZNK11LogEntryKey6encodeERN4ceph6buffer4listEm
librgw.so.2:_ZNK11RGWHTTPArgs3getERKNSt7__cxx1112basic_stringIcSt11char_traitsIcESaIcEEEPb
librgw.so.2:_ZNK11RGWNameToId4dumpEPN4ceph9FormatterE
librgw.so.2:_ZNK11RGWUserCaps4dumpEPN4ceph9FormatterE
librgw.so.2:_ZNK11RGWUserCaps4dumpEPN4ceph9FormatterEPKc
librgw.so.2:_ZNK11RGWUserInfo4dumpEPN4ceph9FormatterE
librgw.so.2:_ZNK11md_config_t11expand_metaERNSt7__cxx1112basic_stringIcSt11char_traitsIcESaIcEEEPKNS_13config_optionENS0_4listIS9_SaIS9_EEEPSo
librgw.so.2:_ZNK11md_config_t11expand_metaERNSt7__cxx1112basic_stringIcSt11char_traitsIcESaIcEEEPSo
librgw.so.2:_ZNK11md_config_t12get_all_keysEPSt6vectorINSt7__cxx1112basic_stringIcSt11char_traitsIcESaIcEEESaIS6_EE
librgw.so.2:_ZNK11md_config_t13config_option7is_safeEv
librgw.so.2:_ZNK11md_config_t15get_my_sectionsERSt6vectorINSt7__cxx1112basic_stringIcSt11char_traitsIcESaIcEEESaIS6_EE
librgw.so.2:_ZNK11md_config_t15get_val_genericB5cxx11EPKc
librgw.so.2:_ZNK11md_config_t16_get_my_sectionsERSt6vectorINSt7__cxx1112basic_stringIcSt11char_traitsIcESaIcEEESaIS6_EE
librgw.so.2:_ZNK11md_config_t16get_all_sectionsERSt6vectorINSt7__cxx1112basic_stringIcSt11char_traitsIcESaIcEEESaIS6_EE
librgw.so.2:_ZNK11md_config_t18find_config_optionERKNSt7__cxx1112basic_stringIcSt11char_traitsIcESaIcEEE
librgw.so.2:_ZNK11md_config_t22get_val_from_conf_fileERKSt6vectorINSt7__cxx1112basic_stringIcSt11char_traitsIcESaIcEEESaIS6_EEPKcRS6_b
librgw.so.2:_ZNK11md_config_t23_get_val_from_conf_fileERKSt6vectorINSt7__cxx1112basic_stringIcSt11char_traitsIcESaIcEEESaIS6_EEPKcRS6_b
librgw.so.2:_ZNK11md_config_t7get_valEPKcPPci
librgw.so.2:_ZNK11md_config_t8_get_valB5cxx11EPKc
librgw.so.2:_ZNK11md_config_t8_get_valEPKcPNSt7__cxx1112basic_stringIcSt11char_traitsIcESaIcEEE
librgw.so.2:_ZNK11md_config_t8_get_valEPKcPPci
librgw.so.2:_ZNK11rgw_obj_key4dumpEPN4ceph9FormatterE
librgw.so.2:_ZNK12CrushWrapper10dump_rulesEPN4ceph9FormatterE
librgw.so.2:_ZNK12CrushWrapper10find_rootsERSt3setIiSt4lessIiESaIiEE
librgw.so.2:_ZNK12CrushWrapper10find_takesERSt3setIiSt4lessIiESaIiEE
librgw.so.2:_ZNK12CrushWrapper10is_v2_ruleEj
librgw.so.2:_ZNK12CrushWrapper10is_v3_ruleEj
librgw.so.2:_ZNK12CrushWrapper10is_v5_ruleEj
librgw.so.2:_ZNK12CrushWrapper10list_rulesEPN4ceph9FormatterE
librgw.so.2:_ZNK12CrushWrapper12has_v2_rulesEv
librgw.so.2:_ZNK12CrushWrapper12has_v3_rulesEv
librgw.so.2:_ZNK12CrushWrapper12has_v5_rulesEv
librgw.so.2:_ZNK12CrushWrapper13dump_tunablesEPN4ceph9FormatterE
librgw.so.2:_ZNK12CrushWrapper14has_v4_bucketsEv
librgw.so.2:_ZNK12CrushWrapper15can_rename_itemERKNSt7__cxx1112basic_stringIcSt11char_traitsIcESaIcEEES7_PSo
librgw.so.2:_ZNK12CrushWrapper15get_item_weightEi
librgw.so.2:_ZNK12CrushWrapper16subtree_containsEii
librgw.so.2:_ZNK12CrushWrapper17can_rename_bucketERKNSt7__cxx1112basic_stringIcSt11char_traitsIcESaIcEEES7_PSo
librgw.so.2:_ZNK12CrushWrapper18check_item_presentEi
librgw.so.2:_ZNK12CrushWrapper19_search_item_existsEi
librgw.so.2:_ZNK12CrushWrapper4dumpEPN4ceph9FormatterE
librgw.so.2:_ZNK12CrushWrapper6encodeERN4ceph6buffer4listEm
librgw.so.2:_ZNK12CrushWrapper9dump_ruleEiPN4ceph9FormatterE
librgw.so.2:_ZNK12CrushWrapper9dump_treeEPN4ceph9FormatterE
librgw.so.2:_ZNK12CrushWrapper9dump_treeEPSoPN4ceph9FormatterE
librgw.so.2:_ZNK12PerfCounters11get_tavg_msEi
librgw.so.2:_ZNK12PerfCounters3getEi
librgw.so.2:_ZNK12PerfCounters4tgetEi
librgw.so.2:_ZNK12PerfCounters8get_nameB5cxx11Ev
librgw.so.2:_ZNK12RGWAccessKey10dump_plainEPN4ceph9FormatterE
librgw.so.2:_ZNK12RGWAccessKey4dumpEPN4ceph9FormatterE
librgw.so.2:_ZNK12RGWAccessKey4dumpEPN4ceph9FormatterERKNSt7__cxx1112basic_stringIcSt11char_traitsIcESaIcEEEb
librgw.so.2:_ZNK12RGWBucketEnt4dumpEPN4ceph9FormatterE
librgw.so.2:_ZNK12RGWCoroutine10StatusItem4dumpEPN4ceph9FormatterE
librgw.so.2:_ZNK12RGWCoroutine4dumpEPN4ceph9FormatterE
librgw.so.2:_ZNK12RGWCoroutine6to_strB5cxx11Ev
librgw.so.2:_ZNK12RGWPeriodMap17get_zone_short_idERKNSt7__cxx1112basic_stringIcSt11char_traitsIcESaIcEEE
librgw.so.2:_ZNK12RGWPeriodMap4dumpEPN4ceph9FormatterE
librgw.so.2:_ZNK12RGWPeriodMap6encodeERN4ceph6buffer4listE
librgw.so.2:_ZNK12RGWQuotaInfo4dumpEPN4ceph9FormatterE
librgw.so.2:_ZNK12RGWRegionMap4dumpEPN4ceph9FormatterE
librgw.so.2:_ZNK12RGWRegionMap6encodeERN4ceph6buffer4listE
librgw.so.2:_ZNK12RGWZoneGroup4dumpEPN4ceph9FormatterE
librgw.so.2:_ZNK12RGWZoneGroup6equalsERKNSt7__cxx1112basic_stringIcSt11char_traitsIcESaIcEEE
librgw.so.2:_ZNK13ACLPermission4dumpEPN4ceph9FormatterE
librgw.so.2:_ZNK13KeystoneToken8has_roleERKNSt7__cxx1112basic_stringIcSt11char_traitsIcESaIcEEE
librgw.so.2:_ZNK13LogStatusDump4dumpEPN4ceph9FormatterE
librgw.so.2:_ZNK13RGWBucketInfo4dumpEPN4ceph9FormatterE
librgw.so.2:_ZNK13RGWZoneParams20get_compression_typeERKNSt7__cxx1112basic_stringIcSt11char_traitsIcESaIcEEE
librgw.so.2:_ZNK13RGWZoneParams4dumpEPN4ceph9FormatterE
librgw.so.2:_ZNK13entity_addr_t4dumpEPN4ceph9FormatterE
librgw.so.2:_ZNK13entity_inst_t4dumpEPN4ceph9FormatterE
librgw.so.2:_ZNK13entity_name_t4dumpEPN4ceph9FormatterE
librgw.so.2:_ZNK13rgw_log_entry4dumpEPN4ceph9FormatterE
librgw.so.2:_ZNK14ACLGranteeType4dumpEPN4ceph9FormatterE
librgw.so.2:_ZNK14ObjectMetaInfo4dumpEPN4ceph9FormatterE
librgw.so.2:_ZNK14RGWObjManifest4dumpEPN4ceph9FormatterE
librgw.so.2:_ZNK14SimpleThrottle13pending_errorEv
librgw.so.2:_ZNK14rgw_bucket_dir4dumpEPN4ceph9FormatterE
librgw.so.2:_ZNK15BackoffThrottle10_get_delayEm
librgw.so.2:_ZNK15ObjectCacheInfo4dumpEPN4ceph9FormatterE
librgw.so.2:_ZNK15OrderedThrottle13pending_errorEv
librgw.so.2:_ZNK15RGWPeriodConfig4dumpEPN4ceph9FormatterE
librgw.so.2:_ZNK15RGWRedirectInfo4dumpEPN4ceph9FormatterE
librgw.so.2:_ZNK15RGWStorageStats4dumpEPN4ceph9FormatterE
librgw.so.2:_ZNK15RGWZoneGroupMap4dumpEPN4ceph9FormatterE
librgw.so.2:_ZNK15RGWZoneGroupMap6encodeERN4ceph6buffer4listE
librgw.so.2:_ZNK15rgw_data_change4dumpEPN4ceph9FormatterE
librgw.so.2:_ZNK16RGWBWRoutingRule4dumpEPN4ceph9FormatterE
librgw.so.2:_ZNK16RGWBWRoutingRule8dump_xmlEPN4ceph9FormatterE
librgw.so.2:_ZNK16RGWPeriodHistory11get_currentEv
librgw.so.2:_ZNK16RGWPeriodHistory6Cursor10get_periodEv
librgw.so.2:_ZNK16RGWPeriodHistory6Cursor8has_nextEv
librgw.so.2:_ZNK16RGWPeriodHistory6Cursor8has_prevEv
librgw.so.2:_ZNK16RGWS3V2Extractor13get_auth_keysERNSt7__cxx1112basic_stringIcSt11char_traitsIcESaIcEEES6_S6_Rb
librgw.so.2:_ZNK16RGWSystemMetaObj4dumpEPN4ceph9FormatterE
librgw.so.2:_ZNK16entity_addrvec_t4dumpEPN4ceph9FormatterE
librgw.so.2:_ZNK16entity_addrvec_t6encodeERN4ceph6buffer4listEm
librgw.so.2:_ZNK16rgw_bi_log_entry4dumpEPN4ceph9FormatterE
librgw.so.2:_ZNK16rgw_bucket_shard7get_keyB5cxx11Eccc
librgw.so.2:_ZNK16rgw_cls_bi_entry4dumpEPN4ceph9FormatterE
librgw.so.2:_ZNK17RGWBWRedirectInfo4dumpEPN4ceph9FormatterE
librgw.so.2:_ZNK17RGWBWRedirectInfo8dump_xmlEPN4ceph9FormatterE
librgw.so.2:_ZNK17RGWBWRoutingRules4dumpEPN4ceph9FormatterE
librgw.so.2:_ZNK17RGWLDAPAuthEngine12authenticateEv
librgw.so.2:_ZNK17RGWLDAPAuthEngine13is_applicableEv
librgw.so.2:_ZNK17RGWLDAPAuthEngine14get_creds_infoERKN3rgw8RGWTokenE
librgw.so.2:_ZNK17RGWLDAPAuthEngine16get_acl_strategyB5cxx11Ev
librgw.so.2:_ZNK17RGWOLHPendingInfo4dumpEPN4ceph9FormatterE
librgw.so.2:_ZNK17RGWUploadPartInfo4dumpEPN4ceph9FormatterE
librgw.so.2:_ZNK18RGWCacheNotifyInfo4dumpEPN4ceph9FormatterE
librgw.so.2:_ZNK18RGWCoroutinesStack4dumpEPN4ceph9FormatterE
librgw.so.2:_ZNK18RGWFormatter_Plain7get_lenEv
librgw.so.2:_ZNK18RGWMetadataLogData4dumpEPN4ceph9FormatterE
librgw.so.2:_ZNK18RGWMetadataLogData6encodeERN4ceph6buffer4listE
librgw.so.2:_ZNK18RGWMetadataLogInfo4dumpEPN4ceph9FormatterE
librgw.so.2:_ZNK18RGWMetadataManager22read_oldest_log_periodEv
librgw.so.2:_ZNK18RGWObjManifestPart4dumpEPN4ceph9FormatterE
librgw.so.2:_ZNK18RGWObjManifestRule4dumpEPN4ceph9FormatterE
librgw.so.2:_ZNK18rgw_meta_sync_info4dumpEPN4ceph9FormatterE
librgw.so.2:_ZNK19RGWBucketEntryPoint4dumpEPN4ceph9FormatterE
librgw.so.2:_ZNK19RGWLocalAuthApplier11is_admin_ofERK8rgw_user
librgw.so.2:_ZNK19RGWLocalAuthApplier11is_owner_ofERK8rgw_user
librgw.so.2:_ZNK19RGWLocalAuthApplier13get_perm_maskERKNSt7__cxx1112basic_stringIcSt11char_traitsIcESaIcEEERK11RGWUserInfo
librgw.so.2:_ZNK19RGWLocalAuthApplier14load_acct_infoER11RGWUserInfo
librgw.so.2:_ZNK19RGWLocalAuthApplier22get_perms_from_aclspecERKSt3mapINSt7__cxx1112basic_stringIcSt11char_traitsIcESaIcEEEiSt4lessIS6_ESaISt4pairIKS6_iEEE
librgw.so.2:_ZNK19RGWLocalAuthApplier6to_strERSo
librgw.so.2:_ZNK19RGWOrphanSearchInfo4dumpEPN4ceph9FormatterE
librgw.so.2:_ZNK19rgw_sync_error_info4dumpEPN4ceph9FormatterE
librgw.so.2:_ZNK20PrebufferedStreambuf4sizeEv
librgw.so.2:_ZNK20PrebufferedStreambuf7get_strB5cxx11Ev
librgw.so.2:_ZNK20PrebufferedStreambuf8snprintfEPcm
librgw.so.2:_ZNK20RGWAccessControlList4dumpEPN4ceph9FormatterE
librgw.so.2:_ZNK20RGWBucketWebsiteConf17get_effective_keyERKNSt7__cxx1112basic_stringIcSt11char_traitsIcESaIcEEEPS5_
librgw.so.2:_ZNK20RGWBucketWebsiteConf4dumpEPN4ceph9FormatterE
librgw.so.2:_ZNK20RGWBucketWebsiteConf8dump_xmlEPN4ceph9FormatterE
librgw.so.2:_ZNK20RGWCoroutinesManager4dumpEPN4ceph9FormatterE
librgw.so.2:_ZNK20RGWOrphanSearchStage4dumpEPN4ceph9FormatterE
librgw.so.2:_ZNK20RGWOrphanSearchState4dumpEPN4ceph9FormatterE
librgw.so.2:_ZNK20RGWRemoteAuthApplier11is_admin_ofERK8rgw_user
librgw.so.2:_ZNK20RGWRemoteAuthApplier11is_owner_ofERK8rgw_user
librgw.so.2:_ZNK20RGWRemoteAuthApplier14create_accountERK8rgw_userR11RGWUserInfo
librgw.so.2:_ZNK20RGWRemoteAuthApplier14load_acct_infoER11RGWUserInfo
librgw.so.2:_ZNK20RGWRemoteAuthApplier22get_perms_from_aclspecERKSt3mapINSt7__cxx1112basic_stringIcSt11char_traitsIcESaIcEEEiSt4lessIS6_ESaISt4pairIKS6_iEEE
librgw.so.2:_ZNK20RGWRemoteAuthApplier6to_strERSo
librgw.so.2:_ZNK20RGWZonePlacementInfo4dumpEPN4ceph9FormatterE
librgw.so.2:_ZNK20rgw_bucket_dir_entry4dumpEPN4ceph9FormatterE
librgw.so.2:_ZNK20rgw_bucket_entry_ver4dumpEPN4ceph9FormatterE
librgw.so.2:_ZNK20rgw_bucket_olh_entry4dumpEPN4ceph9FormatterE
librgw.so.2:_ZNK20rgw_meta_sync_marker4dumpEPN4ceph9FormatterE
librgw.so.2:_ZNK20rgw_meta_sync_status4dumpEPN4ceph9FormatterE
librgw.so.2:_ZNK21RGWBucketCompleteInfo4dumpEPN4ceph9FormatterE
librgw.so.2:_ZNK21RGWDataChangesLogInfo4dumpEPN4ceph9FormatterE
librgw.so.2:_ZNK21RGWKeystoneAuthEngine12authenticateEv
librgw.so.2:_ZNK21RGWKeystoneAuthEngine13is_applicableEv
librgw.so.2:_ZNK21RGWKeystoneAuthEngine14get_creds_infoERK13KeystoneTokenRKSt6vectorINSt7__cxx1112basic_stringIcSt11char_traitsIcESaIcEEESaIS9_EE
librgw.so.2:_ZNK21RGWKeystoneAuthEngine16decode_pki_tokenERKNSt7__cxx1112basic_stringIcSt11char_traitsIcESaIcEEE
librgw.so.2:_ZNK21RGWKeystoneAuthEngine16get_acl_strategyB5cxx11ERK13KeystoneToken
librgw.so.2:_ZNK21RGWKeystoneAuthEngine17get_from_keystoneERKNSt7__cxx1112basic_stringIcSt11char_traitsIcESaIcEEE
librgw.so.2:_ZNK21RGWKeystoneTokenCache10going_downEv
librgw.so.2:_ZNK21rgw_bucket_dir_header4dumpEPN4ceph9FormatterE
librgw.so.2:_ZNK22PerfCountersCollection13with_countersESt8functionIFvRKSt3mapINSt7__cxx1112basic_stringIcSt11char_traitsIcESaIcEEEPN12PerfCounters23perf_counter_data_any_dESt4lessIS7_ESaISt4pairIKS7_SA_EEEEE
librgw.so.2:_ZNK22RGWAccessControlPolicy4dumpEPN4ceph9FormatterE
librgw.so.2:_ZNK22RGWAnonymousAuthEngine12authenticateEv
